GAS LISTING /tmp/ccf9nQcB.s 			page 1


   1              		.file	"_new.cpp"
   2              		.option pic
   3              		.option norelax
   4              		.text
   5              	.Ltext0:
   6              		.align	2
   7              		.globl	_Znwm
   9              	_Znwm:
  10              	.LFB0:
  11              		.file 1 "src/_new.cpp"
   1:src/_new.cpp  **** //
   2:src/_new.cpp  **** // Created by os on 4/26/22.
   3:src/_new.cpp  **** //
   4:src/_new.cpp  **** #include "../lib/mem.h"
   5:src/_new.cpp  **** #include "../h/MemoryAllocator.hpp"
   6:src/_new.cpp  **** 
   7:src/_new.cpp  **** void *operator new(uint64 n) { return MemoryAllocator::mem_alloc(n); }
  12              		.loc 1 7 30
  13              		.cfi_startproc
  14              	.LVL0:
  15 0000 130101FF 		addi	sp,sp,-16
  16              		.cfi_def_cfa_offset 16
  17 0004 23341100 		sd	ra,8(sp)
  18 0008 23308100 		sd	s0,0(sp)
  19              		.cfi_offset 1, -8
  20              		.cfi_offset 8, -16
  21 000c 13040101 		addi	s0,sp,16
  22              		.cfi_def_cfa 8, 0
  23              		.loc 1 7 32
  24              		.loc 1 7 65 is_stmt 0
  25 0010 97000000 		call	_ZN15MemoryAllocator9mem_allocEm@plt
  25      E7800000 
  26              	.LVL1:
  27              		.loc 1 7 70
  28 0018 83308100 		ld	ra,8(sp)
  29              		.cfi_restore 1
  30 001c 03340100 		ld	s0,0(sp)
  31              		.cfi_restore 8
  32              		.cfi_def_cfa 2, 16
  33 0020 13010101 		addi	sp,sp,16
  34              		.cfi_def_cfa_offset 0
  35 0024 67800000 		jr	ra
  36              		.cfi_endproc
  37              	.LFE0:
  39              		.align	2
  40              		.globl	_Znam
  42              	_Znam:
  43              	.LFB1:
   8:src/_new.cpp  **** void *operator new[](uint64 n) { return MemoryAllocator::mem_alloc(n); }
  44              		.loc 1 8 32 is_stmt 1
  45              		.cfi_startproc
  46              	.LVL2:
  47 0028 130101FF 		addi	sp,sp,-16
  48              		.cfi_def_cfa_offset 16
  49 002c 23341100 		sd	ra,8(sp)
  50 0030 23308100 		sd	s0,0(sp)
  51              		.cfi_offset 1, -8
GAS LISTING /tmp/ccf9nQcB.s 			page 2


  52              		.cfi_offset 8, -16
  53 0034 13040101 		addi	s0,sp,16
  54              		.cfi_def_cfa 8, 0
  55              		.loc 1 8 34
  56              		.loc 1 8 67 is_stmt 0
  57 0038 97000000 		call	_ZN15MemoryAllocator9mem_allocEm@plt
  57      E7800000 
  58              	.LVL3:
  59              		.loc 1 8 72
  60 0040 83308100 		ld	ra,8(sp)
  61              		.cfi_restore 1
  62 0044 03340100 		ld	s0,0(sp)
  63              		.cfi_restore 8
  64              		.cfi_def_cfa 2, 16
  65 0048 13010101 		addi	sp,sp,16
  66              		.cfi_def_cfa_offset 0
  67 004c 67800000 		jr	ra
  68              		.cfi_endproc
  69              	.LFE1:
  71              		.align	2
  72              		.globl	_ZdlPv
  74              	_ZdlPv:
  75              	.LFB2:
   9:src/_new.cpp  **** 
  10:src/_new.cpp  **** void operator delete(void *p) noexcept { MemoryAllocator::mem_free(p); }
  76              		.loc 1 10 40 is_stmt 1
  77              		.cfi_startproc
  78              		.cfi_personality 0x9b,DW.ref.__gxx_personality_v0
  79              		.cfi_lsda 0x1b,.LLSDA2
  80              	.LVL4:
  81 0050 130101FF 		addi	sp,sp,-16
  82              		.cfi_def_cfa_offset 16
  83 0054 23341100 		sd	ra,8(sp)
  84 0058 23308100 		sd	s0,0(sp)
  85              		.cfi_offset 1, -8
  86              		.cfi_offset 8, -16
  87 005c 13040101 		addi	s0,sp,16
  88              		.cfi_def_cfa 8, 0
  89              		.loc 1 10 42
  90              		.loc 1 10 67 is_stmt 0
  91 0060 97000000 		call	_ZN15MemoryAllocator8mem_freeEPv@plt
  91      E7800000 
  92              	.LVL5:
  93              		.loc 1 10 72
  94 0068 83308100 		ld	ra,8(sp)
  95              		.cfi_restore 1
  96 006c 03340100 		ld	s0,0(sp)
  97              		.cfi_restore 8
  98              		.cfi_def_cfa 2, 16
  99 0070 13010101 		addi	sp,sp,16
 100              		.cfi_def_cfa_offset 0
 101 0074 67800000 		jr	ra
 102              		.cfi_endproc
 103              	.LFE2:
 104              		.globl	__gxx_personality_v0
 105              		.section	.gcc_except_table,"a",@progbits
 106              	.LLSDA2:
GAS LISTING /tmp/ccf9nQcB.s 			page 3


 107 0000 FF       		.byte	0xff
 108 0001 FF       		.byte	0xff
 109 0002 03       		.byte	0x3
 110 0003 00       		.byte	0
 111              		.text
 113              		.align	2
 114              		.globl	_ZdaPv
 116              	_ZdaPv:
 117              	.LFB3:
  11:src/_new.cpp  **** void operator delete[](void *p) noexcept { MemoryAllocator::mem_free(p); }
 118              		.loc 1 11 42 is_stmt 1
 119              		.cfi_startproc
 120              		.cfi_personality 0x9b,DW.ref.__gxx_personality_v0
 121              		.cfi_lsda 0x1b,.LLSDA3
 122              	.LVL6:
 123 0078 130101FF 		addi	sp,sp,-16
 124              		.cfi_def_cfa_offset 16
 125 007c 23341100 		sd	ra,8(sp)
 126 0080 23308100 		sd	s0,0(sp)
 127              		.cfi_offset 1, -8
 128              		.cfi_offset 8, -16
 129 0084 13040101 		addi	s0,sp,16
 130              		.cfi_def_cfa 8, 0
 131              		.loc 1 11 44
 132              		.loc 1 11 69 is_stmt 0
 133 0088 97000000 		call	_ZN15MemoryAllocator8mem_freeEPv@plt
 133      E7800000 
 134              	.LVL7:
 135              		.loc 1 11 74
 136 0090 83308100 		ld	ra,8(sp)
 137              		.cfi_restore 1
 138 0094 03340100 		ld	s0,0(sp)
 139              		.cfi_restore 8
 140              		.cfi_def_cfa 2, 16
 141 0098 13010101 		addi	sp,sp,16
 142              		.cfi_def_cfa_offset 0
 143 009c 67800000 		jr	ra
 144              		.cfi_endproc
 145              	.LFE3:
 146              		.section	.gcc_except_table
 147              	.LLSDA3:
 148 0004 FF       		.byte	0xff
 149 0005 FF       		.byte	0xff
 150 0006 03       		.byte	0x3
 151 0007 00       		.byte	0
 152              		.text
 154              	.Letext0:
 155              		.file 2 "src/../lib/hw.h"
 156              		.file 3 "src/../h/MemoryAllocator.hpp"
 1020              		.align	3
 1023              	DW.ref.__gxx_personality_v0:
 1024 0000 00000000 		.dword	__gxx_personality_v0
 1024      00000000 
 1025              		.ident	"GCC: (Ubuntu 9.4.0-1ubuntu1~20.04) 9.4.0"
 1026              		.section	.note.GNU-stack,"",@progbits
GAS LISTING /tmp/ccf9nQcB.s 			page 4


DEFINED SYMBOLS
                            *ABS*:0000000000000000 _new.cpp
     /tmp/ccf9nQcB.s:9      .text:0000000000000000 _Znwm
     /tmp/ccf9nQcB.s:13     .text:0000000000000000 .L0 
     /tmp/ccf9nQcB.s:15     .text:0000000000000000 .L0 
     /tmp/ccf9nQcB.s:16     .text:0000000000000004 .L0 
     /tmp/ccf9nQcB.s:19     .text:000000000000000c .L0 
     /tmp/ccf9nQcB.s:20     .text:000000000000000c .L0 
     /tmp/ccf9nQcB.s:22     .text:0000000000000010 .L0 
     /tmp/ccf9nQcB.s:24     .text:0000000000000010 .L0 
     /tmp/ccf9nQcB.s:25     .text:0000000000000010 .L0 
     /tmp/ccf9nQcB.s:28     .text:0000000000000018 .L0 
     /tmp/ccf9nQcB.s:29     .text:000000000000001c .L0 
     /tmp/ccf9nQcB.s:31     .text:0000000000000020 .L0 
     /tmp/ccf9nQcB.s:32     .text:0000000000000020 .L0 
     /tmp/ccf9nQcB.s:34     .text:0000000000000024 .L0 
     /tmp/ccf9nQcB.s:36     .text:0000000000000028 .L0 
     /tmp/ccf9nQcB.s:42     .text:0000000000000028 _Znam
     /tmp/ccf9nQcB.s:45     .text:0000000000000028 .L0 
     /tmp/ccf9nQcB.s:47     .text:0000000000000028 .L0 
     /tmp/ccf9nQcB.s:48     .text:000000000000002c .L0 
     /tmp/ccf9nQcB.s:51     .text:0000000000000034 .L0 
     /tmp/ccf9nQcB.s:52     .text:0000000000000034 .L0 
     /tmp/ccf9nQcB.s:54     .text:0000000000000038 .L0 
     /tmp/ccf9nQcB.s:56     .text:0000000000000038 .L0 
     /tmp/ccf9nQcB.s:57     .text:0000000000000038 .L0 
     /tmp/ccf9nQcB.s:60     .text:0000000000000040 .L0 
     /tmp/ccf9nQcB.s:61     .text:0000000000000044 .L0 
     /tmp/ccf9nQcB.s:63     .text:0000000000000048 .L0 
     /tmp/ccf9nQcB.s:64     .text:0000000000000048 .L0 
     /tmp/ccf9nQcB.s:66     .text:000000000000004c .L0 
     /tmp/ccf9nQcB.s:68     .text:0000000000000050 .L0 
     /tmp/ccf9nQcB.s:74     .text:0000000000000050 _ZdlPv
     /tmp/ccf9nQcB.s:77     .text:0000000000000050 .L0 
     /tmp/ccf9nQcB.s:1023   .data.rel.local.DW.ref.__gxx_personality_v0:0000000000000000 DW.ref.__gxx_personality_v0
     /tmp/ccf9nQcB.s:81     .text:0000000000000050 .L0 
     /tmp/ccf9nQcB.s:82     .text:0000000000000054 .L0 
     /tmp/ccf9nQcB.s:85     .text:000000000000005c .L0 
     /tmp/ccf9nQcB.s:86     .text:000000000000005c .L0 
     /tmp/ccf9nQcB.s:88     .text:0000000000000060 .L0 
     /tmp/ccf9nQcB.s:90     .text:0000000000000060 .L0 
     /tmp/ccf9nQcB.s:91     .text:0000000000000060 .L0 
     /tmp/ccf9nQcB.s:94     .text:0000000000000068 .L0 
     /tmp/ccf9nQcB.s:95     .text:000000000000006c .L0 
     /tmp/ccf9nQcB.s:97     .text:0000000000000070 .L0 
     /tmp/ccf9nQcB.s:98     .text:0000000000000070 .L0 
     /tmp/ccf9nQcB.s:100    .text:0000000000000074 .L0 
     /tmp/ccf9nQcB.s:102    .text:0000000000000078 .L0 
     /tmp/ccf9nQcB.s:116    .text:0000000000000078 _ZdaPv
     /tmp/ccf9nQcB.s:119    .text:0000000000000078 .L0 
     /tmp/ccf9nQcB.s:123    .text:0000000000000078 .L0 
     /tmp/ccf9nQcB.s:124    .text:000000000000007c .L0 
     /tmp/ccf9nQcB.s:127    .text:0000000000000084 .L0 
     /tmp/ccf9nQcB.s:128    .text:0000000000000084 .L0 
     /tmp/ccf9nQcB.s:130    .text:0000000000000088 .L0 
     /tmp/ccf9nQcB.s:132    .text:0000000000000088 .L0 
     /tmp/ccf9nQcB.s:133    .text:0000000000000088 .L0 
GAS LISTING /tmp/ccf9nQcB.s 			page 5


     /tmp/ccf9nQcB.s:136    .text:0000000000000090 .L0 
     /tmp/ccf9nQcB.s:137    .text:0000000000000094 .L0 
     /tmp/ccf9nQcB.s:139    .text:0000000000000098 .L0 
     /tmp/ccf9nQcB.s:140    .text:0000000000000098 .L0 
     /tmp/ccf9nQcB.s:142    .text:000000000000009c .L0 
     /tmp/ccf9nQcB.s:144    .text:00000000000000a0 .L0 
     /tmp/ccf9nQcB.s:157    .text:00000000000000a0 .L0 
     /tmp/ccf9nQcB.s:484    .debug_abbrev:0000000000000000 .Ldebug_abbrev0
     /tmp/ccf9nQcB.s:955    .debug_str:000000000000006c .LASF31
     /tmp/ccf9nQcB.s:959    .debug_str:0000000000000124 .LASF32
     /tmp/ccf9nQcB.s:963    .debug_str:0000000000000144 .LASF33
     /tmp/ccf9nQcB.s:5      .text:0000000000000000 .Ltext0
     /tmp/ccf9nQcB.s:154    .text:00000000000000a0 .Letext0
     /tmp/ccf9nQcB.s:935    .debug_line:0000000000000000 .Ldebug_line0
     /tmp/ccf9nQcB.s:981    .debug_str:00000000000001f0 .LASF0
     /tmp/ccf9nQcB.s:973    .debug_str:00000000000001a6 .LASF1
     /tmp/ccf9nQcB.s:967    .debug_str:0000000000000180 .LASF2
     /tmp/ccf9nQcB.s:949    .debug_str:0000000000000044 .LASF4
     /tmp/ccf9nQcB.s:971    .debug_str:0000000000000194 .LASF3
     /tmp/ccf9nQcB.s:941    .debug_str:0000000000000023 .LASF5
     /tmp/ccf9nQcB.s:937    .debug_str:0000000000000000 .LASF6
     /tmp/ccf9nQcB.s:961    .debug_str:0000000000000131 .LASF7
     /tmp/ccf9nQcB.s:987    .debug_str:000000000000021c .LASF8
     /tmp/ccf9nQcB.s:947    .debug_str:0000000000000036 .LASF9
     /tmp/ccf9nQcB.s:1015   .debug_str:00000000000002e1 .LASF10
     /tmp/ccf9nQcB.s:985    .debug_str:000000000000020d .LASF11
     /tmp/ccf9nQcB.s:1001   .debug_str:0000000000000298 .LASF12
     /tmp/ccf9nQcB.s:991    .debug_str:0000000000000242 .LASF13
     /tmp/ccf9nQcB.s:975    .debug_str:00000000000001b9 .LASF14
     /tmp/ccf9nQcB.s:957    .debug_str:000000000000010e .LASF15
     /tmp/ccf9nQcB.s:989    .debug_str:000000000000022c .LASF16
     /tmp/ccf9nQcB.s:979    .debug_str:00000000000001e5 .LASF34
     /tmp/ccf9nQcB.s:1011   .debug_str:00000000000002d6 .LASF17
     /tmp/ccf9nQcB.s:943    .debug_str:000000000000002a .LASF18
     /tmp/ccf9nQcB.s:939    .debug_str:0000000000000013 .LASF35
     /tmp/ccf9nQcB.s:997    .debug_str:000000000000026e .LASF36
     /tmp/ccf9nQcB.s:977    .debug_str:00000000000001c5 .LASF37
     /tmp/ccf9nQcB.s:1007   .debug_str:00000000000002bc .LASF19
     /tmp/ccf9nQcB.s:999    .debug_str:0000000000000277 .LASF21
     /tmp/ccf9nQcB.s:993    .debug_str:0000000000000252 .LASF20
     /tmp/ccf9nQcB.s:965    .debug_str:000000000000015f .LASF22
     /tmp/ccf9nQcB.s:953    .debug_str:000000000000005c .LASF23
     /tmp/ccf9nQcB.s:951    .debug_str:000000000000004b .LASF24
     /tmp/ccf9nQcB.s:995    .debug_str:000000000000025b .LASF25
     /tmp/ccf9nQcB.s:945    .debug_str:000000000000002f .LASF27
     /tmp/ccf9nQcB.s:117    .text:0000000000000078 .LFB3
     /tmp/ccf9nQcB.s:145    .text:00000000000000a0 .LFE3
     /tmp/ccf9nQcB.s:866    .debug_loc:0000000000000000 .LLST3
     /tmp/ccf9nQcB.s:134    .text:0000000000000090 .LVL7
     /tmp/ccf9nQcB.s:983    .debug_str:00000000000001fd .LASF26
     /tmp/ccf9nQcB.s:1003   .debug_str:00000000000002a8 .LASF28
     /tmp/ccf9nQcB.s:75     .text:0000000000000050 .LFB2
     /tmp/ccf9nQcB.s:103    .text:0000000000000078 .LFE2
     /tmp/ccf9nQcB.s:880    .debug_loc:0000000000000039 .LLST2
     /tmp/ccf9nQcB.s:92     .text:0000000000000068 .LVL5
     /tmp/ccf9nQcB.s:1009   .debug_str:00000000000002c6 .LASF38
     /tmp/ccf9nQcB.s:969    .debug_str:000000000000018e .LASF39
GAS LISTING /tmp/ccf9nQcB.s 			page 6


     /tmp/ccf9nQcB.s:43     .text:0000000000000028 .LFB1
     /tmp/ccf9nQcB.s:69     .text:0000000000000050 .LFE1
     /tmp/ccf9nQcB.s:894    .debug_loc:0000000000000072 .LLST1
     /tmp/ccf9nQcB.s:58     .text:0000000000000040 .LVL3
     /tmp/ccf9nQcB.s:1005   .debug_str:00000000000002af .LASF29
     /tmp/ccf9nQcB.s:1013   .debug_str:00000000000002db .LASF30
     /tmp/ccf9nQcB.s:10     .text:0000000000000000 .LFB0
     /tmp/ccf9nQcB.s:37     .text:0000000000000028 .LFE0
     /tmp/ccf9nQcB.s:908    .debug_loc:00000000000000ab .LLST0
     /tmp/ccf9nQcB.s:26     .text:0000000000000018 .LVL1
     /tmp/ccf9nQcB.s:122    .text:0000000000000078 .LVL6
     /tmp/ccf9nQcB.s:80     .text:0000000000000050 .LVL4
     /tmp/ccf9nQcB.s:46     .text:0000000000000028 .LVL2
     /tmp/ccf9nQcB.s:14     .text:0000000000000000 .LVL0
     /tmp/ccf9nQcB.s:158    .debug_info:0000000000000000 .Ldebug_info0
     /tmp/ccf9nQcB.s:106    .gcc_except_table:0000000000000000 .LLSDA2
     /tmp/ccf9nQcB.s:147    .gcc_except_table:0000000000000004 .LLSDA3

UNDEFINED SYMBOLS
_ZN15MemoryAllocator9mem_allocEm
_ZN15MemoryAllocator8mem_freeEPv
__gxx_personality_v0
