GAS LISTING /tmp/ccOlQ4Wd.s 			page 1


   1              		.file	"main.cpp"
   2              		.option pic
   3              		.option norelax
   4              		.text
   5              	.Ltext0:
   6              		.section	.rodata.str1.8,"aMS",@progbits,1
   7              		.align	3
   8              	.LC0:
   9 0000 54687265 		.string	"ThreadA created\n"
   9      61644120 
   9      63726561 
   9      7465640A 
   9      00
  10 0011 00000000 		.align	3
  10      000000
  11              	.LC1:
  12 0018 54687265 		.string	"ThreadB created\n"
  12      61644220 
  12      63726561 
  12      7465640A 
  12      00
  13 0029 00000000 		.align	3
  13      000000
  14              	.LC2:
  15 0030 54687265 		.string	"ThreadC created\n"
  15      61644320 
  15      63726561 
  15      7465640A 
  15      00
  16 0041 00000000 		.align	3
  16      000000
  17              	.LC3:
  18 0048 54687265 		.string	"ThreadD created\n"
  18      61644420 
  18      63726561 
  18      7465640A 
  18      00
  19 0059 00000000 		.align	3
  19      000000
  20              	.LC4:
  21 0060 46696E69 		.string	"Finished\n"
  21      73686564 
  21      0A00
  22              		.text
  23              		.align	2
  24              		.globl	main
  26              	main:
  27              	.LFB22:
  28              		.file 1 "src/main.cpp"
   1:src/main.cpp  **** //
   2:src/main.cpp  **** // Created by os on 4/26/22.
   3:src/main.cpp  **** //
   4:src/main.cpp  **** 
   5:src/main.cpp  **** 
   6:src/main.cpp  **** #include "../h/workers.hpp"
   7:src/main.cpp  **** #include "../h/print.hpp"
   8:src/main.cpp  **** #include "../h/tcb.hpp"
GAS LISTING /tmp/ccOlQ4Wd.s 			page 2


   9:src/main.cpp  **** #include "../h/riscv.hpp"
  10:src/main.cpp  **** #include "../h/MemoryAllocator.hpp"
  11:src/main.cpp  **** 
  12:src/main.cpp  **** int main() {
  29              		.loc 1 12 12
  30              		.cfi_startproc
  31 0000 130101FB 		addi	sp,sp,-80
  32              		.cfi_def_cfa_offset 80
  33 0004 23341104 		sd	ra,72(sp)
  34 0008 23308104 		sd	s0,64(sp)
  35 000c 233C9102 		sd	s1,56(sp)
  36 0010 23382103 		sd	s2,48(sp)
  37              		.cfi_offset 1, -8
  38              		.cfi_offset 8, -16
  39              		.cfi_offset 9, -24
  40              		.cfi_offset 18, -32
  41 0014 13040105 		addi	s0,sp,80
  42              		.cfi_def_cfa 8, 0
  13:src/main.cpp  ****     MemoryAllocator::memAlloc();
  43              		.loc 1 13 5
  44              		.loc 1 13 30 is_stmt 0
  45 0018 97000000 		call	_ZN15MemoryAllocator8memAllocEv@plt
  45      E7800000 
  46              	.LVL0:
  14:src/main.cpp  ****     TCB *threads[5];
  47              		.loc 1 14 5 is_stmt 1
  15:src/main.cpp  ****     threads[0] = TCB::createThread(nullptr);
  48              		.loc 1 15 5
  49              		.loc 1 15 35 is_stmt 0
  50 0020 13050000 		li	a0,0
  51 0024 97000000 		call	_ZN3TCB12createThreadEPFvvE@plt
  51      E7800000 
  52              	.LVL1:
  53              		.loc 1 15 16
  54 002c 233CA4FA 		sd	a0,-72(s0)
  16:src/main.cpp  ****     TCB::running = threads[0];
  55              		.loc 1 16 5 is_stmt 1
  56              		.loc 1 16 18 is_stmt 0
  57 0030 97070000 		la	a5,_ZN3TCB7runningE
  57      83B70700 
  58 0038 23B0A700 		sd	a0,0(a5)
  17:src/main.cpp  ****     threads[1] = TCB::createThread(workerBodyA);
  59              		.loc 1 17 5 is_stmt 1
  60              		.loc 1 17 35 is_stmt 0
  61 003c 17050000 		la	a0,_Z11workerBodyAv
  61      03350500 
  62 0044 97000000 		call	_ZN3TCB12createThreadEPFvvE@plt
  62      E7800000 
  63              	.LVL2:
  64              		.loc 1 17 16
  65 004c 2330A4FC 		sd	a0,-64(s0)
  18:src/main.cpp  ****     printString("ThreadA created\n");
  66              		.loc 1 18 5 is_stmt 1
  67              		.loc 1 18 16 is_stmt 0
  68 0050 17050000 		lla	a0,.LC0
  68      13050500 
  69 0058 97000000 		call	_Z11printStringPKc@plt
GAS LISTING /tmp/ccOlQ4Wd.s 			page 3


  69      E7800000 
  70              	.LVL3:
  19:src/main.cpp  ****     threads[2] = TCB::createThread(workerBodyB);
  71              		.loc 1 19 5 is_stmt 1
  72              		.loc 1 19 35 is_stmt 0
  73 0060 17050000 		la	a0,_Z11workerBodyBv
  73      03350500 
  74 0068 97000000 		call	_ZN3TCB12createThreadEPFvvE@plt
  74      E7800000 
  75              	.LVL4:
  76              		.loc 1 19 16
  77 0070 2334A4FC 		sd	a0,-56(s0)
  20:src/main.cpp  ****     printString("ThreadB created\n");
  78              		.loc 1 20 5 is_stmt 1
  79              		.loc 1 20 16 is_stmt 0
  80 0074 17050000 		lla	a0,.LC1
  80      13050500 
  81 007c 97000000 		call	_Z11printStringPKc@plt
  81      E7800000 
  82              	.LVL5:
  21:src/main.cpp  ****     threads[3] = TCB::createThread(workerBodyC);
  83              		.loc 1 21 5 is_stmt 1
  84              		.loc 1 21 35 is_stmt 0
  85 0084 17050000 		la	a0,_Z11workerBodyCv
  85      03350500 
  86 008c 97000000 		call	_ZN3TCB12createThreadEPFvvE@plt
  86      E7800000 
  87              	.LVL6:
  88              		.loc 1 21 16
  89 0094 2338A4FC 		sd	a0,-48(s0)
  22:src/main.cpp  ****     printString("ThreadC created\n");
  90              		.loc 1 22 5 is_stmt 1
  91              		.loc 1 22 16 is_stmt 0
  92 0098 17050000 		lla	a0,.LC2
  92      13050500 
  93 00a0 97000000 		call	_Z11printStringPKc@plt
  93      E7800000 
  94              	.LVL7:
  23:src/main.cpp  ****     threads[4] = TCB::createThread(workerBodyD);
  95              		.loc 1 23 5 is_stmt 1
  96              		.loc 1 23 35 is_stmt 0
  97 00a8 17050000 		la	a0,_Z11workerBodyDv
  97      03350500 
  98 00b0 97000000 		call	_ZN3TCB12createThreadEPFvvE@plt
  98      E7800000 
  99              	.LVL8:
 100              		.loc 1 23 16
 101 00b8 233CA4FC 		sd	a0,-40(s0)
  24:src/main.cpp  ****     printString("ThreadD created\n");
 102              		.loc 1 24 5 is_stmt 1
 103              		.loc 1 24 16 is_stmt 0
 104 00bc 17050000 		lla	a0,.LC3
 104      13050500 
 105 00c4 97000000 		call	_Z11printStringPKc@plt
 105      E7800000 
 106              	.LVL9:
  25:src/main.cpp  **** 
GAS LISTING /tmp/ccOlQ4Wd.s 			page 4


  26:src/main.cpp  ****     Riscv::w_stvec((uint64) &Riscv::supervisorTrap);
 107              		.loc 1 26 5 is_stmt 1
 108              		.loc 1 26 19 is_stmt 0
 109 00cc 97070000 		la	a5,_ZN5Riscv14supervisorTrapEv
 109      83B70700 
 110              	.LVL10:
 111              	.LBB18:
 112              	.LBB19:
 113              		.file 2 "src/../h/riscv.hpp"
   1:src/../h/riscv.hpp **** //
   2:src/../h/riscv.hpp **** // Created by os on 4/26/22.
   3:src/../h/riscv.hpp **** //
   4:src/../h/riscv.hpp **** 
   5:src/../h/riscv.hpp **** #ifndef PROJECT_BASE_V1_0_RISCV_HPP
   6:src/../h/riscv.hpp **** #define PROJECT_BASE_V1_0_RISCV_HPP
   7:src/../h/riscv.hpp **** 
   8:src/../h/riscv.hpp **** #include "../lib/hw.h"
   9:src/../h/riscv.hpp **** 
  10:src/../h/riscv.hpp **** class Riscv{
  11:src/../h/riscv.hpp **** public:
  12:src/../h/riscv.hpp **** 
  13:src/../h/riscv.hpp ****     static void popSppSpie();
  14:src/../h/riscv.hpp **** 
  15:src/../h/riscv.hpp ****     //read
  16:src/../h/riscv.hpp ****     static uint64 r_scause();
  17:src/../h/riscv.hpp **** 
  18:src/../h/riscv.hpp ****     //write
  19:src/../h/riscv.hpp ****     static void w_scause(uint64 scause);
  20:src/../h/riscv.hpp **** 
  21:src/../h/riscv.hpp ****     static uint64 r_sepc();
  22:src/../h/riscv.hpp **** 
  23:src/../h/riscv.hpp ****     static void w_sepc(uint64 sepc);
  24:src/../h/riscv.hpp **** 
  25:src/../h/riscv.hpp ****     static uint64 r_stvec();
  26:src/../h/riscv.hpp **** 
  27:src/../h/riscv.hpp ****     static void w_stvec(uint64 stvec);
  28:src/../h/riscv.hpp **** 
  29:src/../h/riscv.hpp ****     static uint64 r_stval();
  30:src/../h/riscv.hpp **** 
  31:src/../h/riscv.hpp ****     static void w_stval(uint64 stval);
  32:src/../h/riscv.hpp **** 
  33:src/../h/riscv.hpp ****     enum BitMaskSip{
  34:src/../h/riscv.hpp ****         SIP_SSIP = (1 << 1),
  35:src/../h/riscv.hpp ****         SIP_STIP = (1 << 5),
  36:src/../h/riscv.hpp ****         SIP_SEIP = (1 << 9),
  37:src/../h/riscv.hpp ****     };
  38:src/../h/riscv.hpp ****     // mask set
  39:src/../h/riscv.hpp ****     static void ms_sip(uint64 mask);
  40:src/../h/riscv.hpp ****     // mask clear
  41:src/../h/riscv.hpp ****     static void mc_sip(uint64 mask);
  42:src/../h/riscv.hpp **** 
  43:src/../h/riscv.hpp ****     static uint64 r_sip();
  44:src/../h/riscv.hpp **** 
  45:src/../h/riscv.hpp ****     static void w_sip(uint64 sip);
  46:src/../h/riscv.hpp **** 
  47:src/../h/riscv.hpp ****     enum BitMaskSstatus{
  48:src/../h/riscv.hpp ****         SSTATUS_SIE = (1 << 1),
GAS LISTING /tmp/ccOlQ4Wd.s 			page 5


  49:src/../h/riscv.hpp ****         SSTATUS_SPIE = (1 << 5),
  50:src/../h/riscv.hpp ****         SSTATUS_SPP = (1 << 8),
  51:src/../h/riscv.hpp ****     };
  52:src/../h/riscv.hpp **** 
  53:src/../h/riscv.hpp ****     static void ms_sstatus(uint64 mask);
  54:src/../h/riscv.hpp **** 
  55:src/../h/riscv.hpp ****     static void mc_sstatus(uint64 mask);
  56:src/../h/riscv.hpp **** 
  57:src/../h/riscv.hpp ****     static uint64 r_sstatus();
  58:src/../h/riscv.hpp **** 
  59:src/../h/riscv.hpp ****     static void w_sstatus(uint64 sstatus);
  60:src/../h/riscv.hpp **** 
  61:src/../h/riscv.hpp ****     static void supervisorTrap();
  62:src/../h/riscv.hpp **** 
  63:src/../h/riscv.hpp **** private:
  64:src/../h/riscv.hpp ****     static void handleSupervisorTrap();
  65:src/../h/riscv.hpp **** };
  66:src/../h/riscv.hpp **** 
  67:src/../h/riscv.hpp **** inline uint64 Riscv::r_scause() {
  68:src/../h/riscv.hpp ****     uint64 volatile scause;
  69:src/../h/riscv.hpp ****     __asm__ volatile ("csrr %[scause], scause" : [scause] "=r"(scause));
  70:src/../h/riscv.hpp ****     return scause;
  71:src/../h/riscv.hpp **** }
  72:src/../h/riscv.hpp **** 
  73:src/../h/riscv.hpp **** inline void Riscv::w_scause(uint64 scause) {
  74:src/../h/riscv.hpp ****     __asm__ volatile ("csrw scause, %[scause]" : : [scause] "r"(scause));
  75:src/../h/riscv.hpp **** }
  76:src/../h/riscv.hpp **** 
  77:src/../h/riscv.hpp **** inline uint64 Riscv::r_sepc() {
  78:src/../h/riscv.hpp ****     uint64 volatile sepc;
  79:src/../h/riscv.hpp ****     __asm__ volatile ("csrr %[sepc], sepc" : [sepc] "=r"(sepc));
  80:src/../h/riscv.hpp ****     return sepc;
  81:src/../h/riscv.hpp **** }
  82:src/../h/riscv.hpp **** 
  83:src/../h/riscv.hpp **** inline void Riscv::w_sepc(uint64 sepc) {
  84:src/../h/riscv.hpp ****     __asm__ volatile ("csrw sepc, %[sepc]" : : [sepc] "r"(sepc));
  85:src/../h/riscv.hpp **** }
  86:src/../h/riscv.hpp **** 
  87:src/../h/riscv.hpp **** inline uint64 Riscv::r_stvec() {
  88:src/../h/riscv.hpp ****     uint64 volatile stvec;
  89:src/../h/riscv.hpp ****     __asm__ volatile ("csrr %[stvec], stvec" : [stvec] "=r"(stvec));
  90:src/../h/riscv.hpp ****     return stvec;
  91:src/../h/riscv.hpp **** }
  92:src/../h/riscv.hpp **** 
  93:src/../h/riscv.hpp **** inline void Riscv::w_stvec(uint64 stvec) {
  94:src/../h/riscv.hpp ****     __asm__ volatile ("csrw stvec, %[stvec]" : : [stvec] "r"(stvec));
 114              		.loc 2 94 5 is_stmt 1
 115              		.loc 2 94 69 is_stmt 0
 116              	#APP
 117              	# 94 "src/../h/riscv.hpp" 1
  95              	}
 118              		csrw stvec, a5
 119              	# 0 "" 2
 120              	.LVL11:
 121              	#NO_APP
 122              	.LBE19:
 123              	.LBE18:
GAS LISTING /tmp/ccOlQ4Wd.s 			page 6


  27:src/main.cpp  ****     Riscv::ms_sstatus(Riscv::SSTATUS_SIE);
 124              		.loc 1 27 5 is_stmt 1
 125              	.LBB20:
 126              	.LBB21:
  96:src/../h/riscv.hpp **** 
  97:src/../h/riscv.hpp **** inline uint64 Riscv::r_stval() {
  98:src/../h/riscv.hpp ****     uint64 volatile stval;
  99:src/../h/riscv.hpp ****     __asm__ volatile ("csrr %[stval], stval" : [stval] "=r"(stval));
 100:src/../h/riscv.hpp ****     return stval;
 101:src/../h/riscv.hpp **** }
 102:src/../h/riscv.hpp **** 
 103:src/../h/riscv.hpp **** inline void Riscv::w_stval(uint64 stval) {
 104:src/../h/riscv.hpp ****     __asm__ volatile ("csrw stval, %[stval]" : : [stval] "r"(stval));
 105:src/../h/riscv.hpp **** }
 106:src/../h/riscv.hpp **** 
 107:src/../h/riscv.hpp **** inline void Riscv::ms_sip(uint64 mask) {
 108:src/../h/riscv.hpp ****     __asm__ volatile ("csrs sip, %[mask]" : : [mask] "r"(mask));
 109:src/../h/riscv.hpp **** }
 110:src/../h/riscv.hpp **** 
 111:src/../h/riscv.hpp **** inline void Riscv::mc_sip(uint64 mask) {
 112:src/../h/riscv.hpp ****     __asm__ volatile ("csrc sip, %[mask]" : : [mask] "r"(mask));
 113:src/../h/riscv.hpp **** }
 114:src/../h/riscv.hpp **** 
 115:src/../h/riscv.hpp **** inline uint64 Riscv::r_sip() {
 116:src/../h/riscv.hpp ****     uint64 volatile sip;
 117:src/../h/riscv.hpp ****     __asm__ volatile ("csrr %[sip], sip" : [sip] "=r"(sip));
 118:src/../h/riscv.hpp ****     return sip;
 119:src/../h/riscv.hpp **** }
 120:src/../h/riscv.hpp **** 
 121:src/../h/riscv.hpp **** inline void Riscv::w_sip(uint64 sip) {
 122:src/../h/riscv.hpp ****     __asm__ volatile ("csrw sip, %[sip]" : : [sip] "r"(sip));
 123:src/../h/riscv.hpp **** }
 124:src/../h/riscv.hpp **** 
 125:src/../h/riscv.hpp **** inline void Riscv::ms_sstatus(uint64 mask) {
 126:src/../h/riscv.hpp ****     __asm__ volatile ("csrs sstatus, %[mask]" : : [mask] "r"(mask));
 127              		.loc 2 126 5
 128              		.loc 2 126 68 is_stmt 0
 129 00d8 93072000 		li	a5,2
 130              	#APP
 131              	# 126 "src/../h/riscv.hpp" 1
 127              	}
 132              		csrs sstatus, a5
 133              	# 0 "" 2
 134              		.loc 2 127 1
 135              	#NO_APP
 136 00e0 6F00C000 		j	.L4
 137              	.LVL12:
 138              	.L2:
 139              	.LBE21:
 140              	.LBE20:
  28:src/main.cpp  **** 
  29:src/main.cpp  ****     while (!(threads[1]->isFinished() && threads[2]->isFinished() &&
  30:src/main.cpp  ****              threads[3]->isFinished() && threads[4]->isFinished())) {
  31:src/main.cpp  ****         TCB::yield();
 141              		.loc 1 31 9 is_stmt 1 discriminator 7
 142              		.loc 1 31 19 is_stmt 0 discriminator 7
 143 00e4 97000000 		call	_ZN3TCB5yieldEv@plt
GAS LISTING /tmp/ccOlQ4Wd.s 			page 7


 143      E7800000 
 144              	.LVL13:
 145              	.L4:
  29:src/main.cpp  ****              threads[3]->isFinished() && threads[4]->isFinished())) {
 146              		.loc 1 29 5 is_stmt 1
  29:src/main.cpp  ****              threads[3]->isFinished() && threads[4]->isFinished())) {
 147              		.loc 1 29 12
  29:src/main.cpp  ****              threads[3]->isFinished() && threads[4]->isFinished())) {
 148              		.loc 1 29 23 is_stmt 0
 149 00ec 833704FC 		ld	a5,-64(s0)
 150              	.LVL14:
 151              	.LBB22:
 152              	.LBB23:
 153              		.file 3 "src/../h/tcb.hpp"
   1:src/../h/tcb.hpp **** //
   2:src/../h/tcb.hpp **** // Created by os on 4/26/22.
   3:src/../h/tcb.hpp **** //
   4:src/../h/tcb.hpp **** 
   5:src/../h/tcb.hpp **** #ifndef PROJECT_BASE_V1_0_TCB_HPP
   6:src/../h/tcb.hpp **** #define PROJECT_BASE_V1_0_TCB_HPP
   7:src/../h/tcb.hpp **** 
   8:src/../h/tcb.hpp **** #include "../lib/hw.h"
   9:src/../h/tcb.hpp **** 
  10:src/../h/tcb.hpp **** class TCB {
  11:src/../h/tcb.hpp ****         public:
  12:src/../h/tcb.hpp ****         ~TCB() { delete[] stack; }
  13:src/../h/tcb.hpp ****         bool isFinished() const { return finished; }
 154              		.loc 3 13 35 is_stmt 1
 155              		.loc 3 13 42 is_stmt 0
 156 00f0 83C78702 		lbu	a5,40(a5)
 157              	.LVL15:
 158              	.LBE23:
 159              	.LBE22:
  29:src/main.cpp  ****              threads[3]->isFinished() && threads[4]->isFinished())) {
 160              		.loc 1 29 12
 161 00f4 E38807FE 		beqz	a5,.L2
  29:src/main.cpp  ****              threads[3]->isFinished() && threads[4]->isFinished())) {
 162              		.loc 1 29 51 discriminator 2
 163 00f8 833784FC 		ld	a5,-56(s0)
 164              	.LVL16:
 165              	.LBB24:
 166              	.LBB25:
 167              		.loc 3 13 35 is_stmt 1 discriminator 2
 168              		.loc 3 13 42 is_stmt 0 discriminator 2
 169 00fc 83C78702 		lbu	a5,40(a5)
 170              	.LVL17:
 171              	.LBE25:
 172              	.LBE24:
  29:src/main.cpp  ****              threads[3]->isFinished() && threads[4]->isFinished())) {
 173              		.loc 1 29 39 discriminator 2
 174 0100 E38207FE 		beqz	a5,.L2
  30:src/main.cpp  ****         TCB::yield();
 175              		.loc 1 30 23 discriminator 4
 176 0104 833704FD 		ld	a5,-48(s0)
 177              	.LVL18:
 178              	.LBB26:
 179              	.LBB27:
GAS LISTING /tmp/ccOlQ4Wd.s 			page 8


 180              		.loc 3 13 35 is_stmt 1 discriminator 4
 181              		.loc 3 13 42 is_stmt 0 discriminator 4
 182 0108 83C78702 		lbu	a5,40(a5)
 183              	.LVL19:
 184              	.LBE27:
 185              	.LBE26:
  29:src/main.cpp  ****              threads[3]->isFinished() && threads[4]->isFinished())) {
 186              		.loc 1 29 67 discriminator 4
 187 010c E38C07FC 		beqz	a5,.L2
  30:src/main.cpp  ****         TCB::yield();
 188              		.loc 1 30 51 discriminator 6
 189 0110 833784FD 		ld	a5,-40(s0)
 190              	.LVL20:
 191              	.LBB28:
 192              	.LBB29:
 193              		.loc 3 13 35 is_stmt 1 discriminator 6
 194              		.loc 3 13 42 is_stmt 0 discriminator 6
 195 0114 83C78702 		lbu	a5,40(a5)
 196              	.LVL21:
 197              	.LBE29:
 198              	.LBE28:
  29:src/main.cpp  ****              threads[3]->isFinished() && threads[4]->isFinished())) {
 199              		.loc 1 29 12 discriminator 6
 200 0118 E38607FC 		beqz	a5,.L2
 201 011c 930484FB 		addi	s1,s0,-72
 202 0120 6F004001 		j	.L3
 203              	.LVL22:
 204              	.L7:
 205              	.LBB30:
  32:src/main.cpp  ****     }
  33:src/main.cpp  ****     for (auto &thread: threads) { delete thread; }
 206              		.loc 1 33 42
 207 0124 13050900 		mv	a0,s2
 208 0128 97000000 		call	_ZdlPv@plt
 208      E7800000 
 209              	.LVL23:
 210              	.L6:
 211              		.loc 1 33 5 is_stmt 1 discriminator 5
 212 0130 93848400 		addi	s1,s1,8
 213              	.LVL24:
 214              	.L3:
 215              		.loc 1 33 24 discriminator 6
 216 0134 930704FE 		addi	a5,s0,-32
 217 0138 6380F402 		beq	s1,a5,.L5
 218              	.LVL25:
 219              		.loc 1 33 35 discriminator 2
 220              		.loc 1 33 42 is_stmt 0 discriminator 2
 221 013c 03B90400 		ld	s2,0(s1)
 222              		.loc 1 33 48 discriminator 2
 223 0140 E30809FE 		beqz	s2,.L6
 224              	.LVL26:
 225              	.LBB31:
 226              	.LBB32:
  12:src/../h/tcb.hpp ****         bool isFinished() const { return finished; }
 227              		.loc 3 12 18 is_stmt 1
  12:src/../h/tcb.hpp ****         bool isFinished() const { return finished; }
 228              		.loc 3 12 27 is_stmt 0
GAS LISTING /tmp/ccOlQ4Wd.s 			page 9


 229 0144 03358900 		ld	a0,8(s2)
  12:src/../h/tcb.hpp ****         bool isFinished() const { return finished; }
 230              		.loc 3 12 32
 231 0148 E30E05FC 		beqz	a0,.L7
  12:src/../h/tcb.hpp ****         bool isFinished() const { return finished; }
 232              		.loc 3 12 27
 233 014c 97000000 		call	_ZdaPv@plt
 233      E7800000 
 234              	.LVL27:
 235 0154 6FF01FFD 		j	.L7
 236              	.LVL28:
 237              	.L5:
 238              	.LBE32:
 239              	.LBE31:
 240              	.LBE30:
  34:src/main.cpp  ****     printString("Finished\n");
 241              		.loc 1 34 5 is_stmt 1
 242              		.loc 1 34 16 is_stmt 0
 243 0158 17050000 		lla	a0,.LC4
 243      13050500 
 244 0160 97000000 		call	_Z11printStringPKc@plt
 244      E7800000 
 245              	.LVL29:
  35:src/main.cpp  ****     return 0;
 246              		.loc 1 35 5 is_stmt 1
  36:src/main.cpp  **** }
 247              		.loc 1 36 1 is_stmt 0
 248 0168 13050000 		li	a0,0
 249 016c 83308104 		ld	ra,72(sp)
 250              		.cfi_restore 1
 251 0170 03340104 		ld	s0,64(sp)
 252              		.cfi_restore 8
 253              		.cfi_def_cfa 2, 80
 254 0174 83348103 		ld	s1,56(sp)
 255              		.cfi_restore 9
 256              	.LVL30:
 257 0178 03390103 		ld	s2,48(sp)
 258              		.cfi_restore 18
 259 017c 13010105 		addi	sp,sp,80
 260              		.cfi_def_cfa_offset 0
 261 0180 67800000 		jr	ra
 262              		.cfi_endproc
 263              	.LFE22:
 265              	.Letext0:
 266              		.file 4 "src/../h/../lib/hw.h"
 267              		.file 5 "src/../h/MemoryAllocator.hpp"
 268              		.file 6 "src/../h/print.hpp"
GAS LISTING /tmp/ccOlQ4Wd.s 			page 10


DEFINED SYMBOLS
                            *ABS*:0000000000000000 main.cpp
     /tmp/ccOlQ4Wd.s:26     .text:0000000000000000 main
     /tmp/ccOlQ4Wd.s:30     .text:0000000000000000 .L0 
     /tmp/ccOlQ4Wd.s:31     .text:0000000000000000 .L0 
     /tmp/ccOlQ4Wd.s:32     .text:0000000000000004 .L0 
     /tmp/ccOlQ4Wd.s:37     .text:0000000000000014 .L0 
     /tmp/ccOlQ4Wd.s:38     .text:0000000000000014 .L0 
     /tmp/ccOlQ4Wd.s:39     .text:0000000000000014 .L0 
     /tmp/ccOlQ4Wd.s:40     .text:0000000000000014 .L0 
     /tmp/ccOlQ4Wd.s:42     .text:0000000000000018 .L0 
     /tmp/ccOlQ4Wd.s:44     .text:0000000000000018 .L0 
     /tmp/ccOlQ4Wd.s:45     .text:0000000000000018 .L0 
     /tmp/ccOlQ4Wd.s:48     .text:0000000000000020 .L0 
     /tmp/ccOlQ4Wd.s:49     .text:0000000000000020 .L0 
     /tmp/ccOlQ4Wd.s:50     .text:0000000000000020 .L0 
     /tmp/ccOlQ4Wd.s:54     .text:000000000000002c .L0 
     /tmp/ccOlQ4Wd.s:56     .text:0000000000000030 .L0 
     /tmp/ccOlQ4Wd.s:57     .text:0000000000000030 .L0 
     /tmp/ccOlQ4Wd.s:60     .text:000000000000003c .L0 
     /tmp/ccOlQ4Wd.s:61     .text:000000000000003c .L0 
     /tmp/ccOlQ4Wd.s:65     .text:000000000000004c .L0 
     /tmp/ccOlQ4Wd.s:67     .text:0000000000000050 .L0 
     /tmp/ccOlQ4Wd.s:68     .text:0000000000000050 .L0 
     /tmp/ccOlQ4Wd.s:72     .text:0000000000000060 .L0 
     /tmp/ccOlQ4Wd.s:73     .text:0000000000000060 .L0 
     /tmp/ccOlQ4Wd.s:77     .text:0000000000000070 .L0 
     /tmp/ccOlQ4Wd.s:79     .text:0000000000000074 .L0 
     /tmp/ccOlQ4Wd.s:80     .text:0000000000000074 .L0 
     /tmp/ccOlQ4Wd.s:84     .text:0000000000000084 .L0 
     /tmp/ccOlQ4Wd.s:85     .text:0000000000000084 .L0 
     /tmp/ccOlQ4Wd.s:89     .text:0000000000000094 .L0 
     /tmp/ccOlQ4Wd.s:91     .text:0000000000000098 .L0 
     /tmp/ccOlQ4Wd.s:92     .text:0000000000000098 .L0 
     /tmp/ccOlQ4Wd.s:96     .text:00000000000000a8 .L0 
     /tmp/ccOlQ4Wd.s:97     .text:00000000000000a8 .L0 
     /tmp/ccOlQ4Wd.s:101    .text:00000000000000b8 .L0 
     /tmp/ccOlQ4Wd.s:103    .text:00000000000000bc .L0 
     /tmp/ccOlQ4Wd.s:104    .text:00000000000000bc .L0 
     /tmp/ccOlQ4Wd.s:108    .text:00000000000000cc .L0 
     /tmp/ccOlQ4Wd.s:109    .text:00000000000000cc .L0 
     /tmp/ccOlQ4Wd.s:115    .text:00000000000000d4 .L0 
  src/../h/riscv.hpp:94     .text:00000000000000d4 .L0 
     /tmp/ccOlQ4Wd.s:127    .text:00000000000000d8 .L0 
     /tmp/ccOlQ4Wd.s:128    .text:00000000000000d8 .L0 
     /tmp/ccOlQ4Wd.s:129    .text:00000000000000d8 .L0 
     /tmp/ccOlQ4Wd.s:136    .text:00000000000000e0 .L0 
     /tmp/ccOlQ4Wd.s:142    .text:00000000000000e4 .L0 
     /tmp/ccOlQ4Wd.s:143    .text:00000000000000e4 .L0 
     /tmp/ccOlQ4Wd.s:147    .text:00000000000000ec .L0 
     /tmp/ccOlQ4Wd.s:148    .text:00000000000000ec .L0 
     /tmp/ccOlQ4Wd.s:149    .text:00000000000000ec .L0 
     /tmp/ccOlQ4Wd.s:155    .text:00000000000000f0 .L0 
     /tmp/ccOlQ4Wd.s:156    .text:00000000000000f0 .L0 
     /tmp/ccOlQ4Wd.s:161    .text:00000000000000f4 .L0 
     /tmp/ccOlQ4Wd.s:163    .text:00000000000000f8 .L0 
     /tmp/ccOlQ4Wd.s:168    .text:00000000000000fc .L0 
GAS LISTING /tmp/ccOlQ4Wd.s 			page 11


     /tmp/ccOlQ4Wd.s:169    .text:00000000000000fc .L0 
     /tmp/ccOlQ4Wd.s:174    .text:0000000000000100 .L0 
     /tmp/ccOlQ4Wd.s:176    .text:0000000000000104 .L0 
     /tmp/ccOlQ4Wd.s:181    .text:0000000000000108 .L0 
     /tmp/ccOlQ4Wd.s:182    .text:0000000000000108 .L0 
     /tmp/ccOlQ4Wd.s:187    .text:000000000000010c .L0 
     /tmp/ccOlQ4Wd.s:189    .text:0000000000000110 .L0 
     /tmp/ccOlQ4Wd.s:194    .text:0000000000000114 .L0 
     /tmp/ccOlQ4Wd.s:195    .text:0000000000000114 .L0 
     /tmp/ccOlQ4Wd.s:200    .text:0000000000000118 .L0 
     /tmp/ccOlQ4Wd.s:207    .text:0000000000000124 .L0 
     /tmp/ccOlQ4Wd.s:212    .text:0000000000000130 .L0 
     /tmp/ccOlQ4Wd.s:216    .text:0000000000000134 .L0 
     /tmp/ccOlQ4Wd.s:220    .text:000000000000013c .L0 
     /tmp/ccOlQ4Wd.s:221    .text:000000000000013c .L0 
     /tmp/ccOlQ4Wd.s:223    .text:0000000000000140 .L0 
     /tmp/ccOlQ4Wd.s:228    .text:0000000000000144 .L0 
     /tmp/ccOlQ4Wd.s:229    .text:0000000000000144 .L0 
     /tmp/ccOlQ4Wd.s:231    .text:0000000000000148 .L0 
     /tmp/ccOlQ4Wd.s:233    .text:000000000000014c .L0 
     /tmp/ccOlQ4Wd.s:242    .text:0000000000000158 .L0 
     /tmp/ccOlQ4Wd.s:243    .text:0000000000000158 .L0 
     /tmp/ccOlQ4Wd.s:247    .text:0000000000000168 .L0 
     /tmp/ccOlQ4Wd.s:248    .text:0000000000000168 .L0 
     /tmp/ccOlQ4Wd.s:250    .text:0000000000000170 .L0 
     /tmp/ccOlQ4Wd.s:252    .text:0000000000000174 .L0 
     /tmp/ccOlQ4Wd.s:253    .text:0000000000000174 .L0 
     /tmp/ccOlQ4Wd.s:255    .text:0000000000000178 .L0 
     /tmp/ccOlQ4Wd.s:258    .text:000000000000017c .L0 
     /tmp/ccOlQ4Wd.s:260    .text:0000000000000180 .L0 
     /tmp/ccOlQ4Wd.s:262    .text:0000000000000184 .L0 
     /tmp/ccOlQ4Wd.s:269    .text:0000000000000184 .L0 
     /tmp/ccOlQ4Wd.s:57     .text:0000000000000030 .L0 
     /tmp/ccOlQ4Wd.s:61     .text:000000000000003c .L0 
     /tmp/ccOlQ4Wd.s:8      .rodata.str1.8:0000000000000000 .LC0
     /tmp/ccOlQ4Wd.s:68     .text:0000000000000050 .L0 
     /tmp/ccOlQ4Wd.s:73     .text:0000000000000060 .L0 
     /tmp/ccOlQ4Wd.s:11     .rodata.str1.8:0000000000000018 .LC1
     /tmp/ccOlQ4Wd.s:80     .text:0000000000000074 .L0 
     /tmp/ccOlQ4Wd.s:85     .text:0000000000000084 .L0 
     /tmp/ccOlQ4Wd.s:14     .rodata.str1.8:0000000000000030 .LC2
     /tmp/ccOlQ4Wd.s:92     .text:0000000000000098 .L0 
     /tmp/ccOlQ4Wd.s:97     .text:00000000000000a8 .L0 
     /tmp/ccOlQ4Wd.s:17     .rodata.str1.8:0000000000000048 .LC3
     /tmp/ccOlQ4Wd.s:104    .text:00000000000000bc .L0 
     /tmp/ccOlQ4Wd.s:109    .text:00000000000000cc .L0 
     /tmp/ccOlQ4Wd.s:20     .rodata.str1.8:0000000000000060 .LC4
     /tmp/ccOlQ4Wd.s:243    .text:0000000000000158 .L0 
     /tmp/ccOlQ4Wd.s:145    .text:00000000000000ec .L4
     /tmp/ccOlQ4Wd.s:138    .text:00000000000000e4 .L2
     /tmp/ccOlQ4Wd.s:214    .text:0000000000000134 .L3
     /tmp/ccOlQ4Wd.s:237    .text:0000000000000158 .L5
     /tmp/ccOlQ4Wd.s:210    .text:0000000000000130 .L6
     /tmp/ccOlQ4Wd.s:204    .text:0000000000000124 .L7
     /tmp/ccOlQ4Wd.s:1224   .debug_abbrev:0000000000000000 .Ldebug_abbrev0
     /tmp/ccOlQ4Wd.s:2417   .debug_str:0000000000000636 .LASF110
     /tmp/ccOlQ4Wd.s:2293   .debug_str:00000000000002c9 .LASF111
GAS LISTING /tmp/ccOlQ4Wd.s 			page 12


     /tmp/ccOlQ4Wd.s:2387   .debug_str:0000000000000534 .LASF112
     /tmp/ccOlQ4Wd.s:5      .text:0000000000000000 .Ltext0
     /tmp/ccOlQ4Wd.s:265    .text:0000000000000184 .Letext0
     /tmp/ccOlQ4Wd.s:2191   .debug_line:0000000000000000 .Ldebug_line0
     /tmp/ccOlQ4Wd.s:2325   .debug_str:000000000000039b .LASF0
     /tmp/ccOlQ4Wd.s:2339   .debug_str:00000000000003d5 .LASF1
     /tmp/ccOlQ4Wd.s:2307   .debug_str:0000000000000329 .LASF2
     /tmp/ccOlQ4Wd.s:2277   .debug_str:0000000000000260 .LASF4
     /tmp/ccOlQ4Wd.s:2379   .debug_str:00000000000004f6 .LASF3
     /tmp/ccOlQ4Wd.s:2211   .debug_str:0000000000000065 .LASF5
     /tmp/ccOlQ4Wd.s:2341   .debug_str:00000000000003e8 .LASF6
     /tmp/ccOlQ4Wd.s:2323   .debug_str:0000000000000388 .LASF7
     /tmp/ccOlQ4Wd.s:2407   .debug_str:00000000000005d8 .LASF8
     /tmp/ccOlQ4Wd.s:2265   .debug_str:00000000000001d9 .LASF9
     /tmp/ccOlQ4Wd.s:2353   .debug_str:0000000000000453 .LASF10
     /tmp/ccOlQ4Wd.s:2403   .debug_str:00000000000005be .LASF11
     /tmp/ccOlQ4Wd.s:2215   .debug_str:0000000000000078 .LASF12
     /tmp/ccOlQ4Wd.s:2195   .debug_str:0000000000000008 .LASF13
     /tmp/ccOlQ4Wd.s:2223   .debug_str:00000000000000c2 .LASF14
     /tmp/ccOlQ4Wd.s:2371   .debug_str:00000000000004bb .LASF15
     /tmp/ccOlQ4Wd.s:2231   .debug_str:00000000000000f4 .LASF16
     /tmp/ccOlQ4Wd.s:2201   .debug_str:000000000000002d .LASF83
     /tmp/ccOlQ4Wd.s:2241   .debug_str:000000000000014f .LASF17
     /tmp/ccOlQ4Wd.s:2363   .debug_str:000000000000049a .LASF19
     /tmp/ccOlQ4Wd.s:2343   .debug_str:00000000000003fb .LASF21
     /tmp/ccOlQ4Wd.s:2263   .debug_str:00000000000001c2 .LASF23
     /tmp/ccOlQ4Wd.s:2309   .debug_str:0000000000000337 .LASF18
     /tmp/ccOlQ4Wd.s:2273   .debug_str:0000000000000221 .LASF20
     /tmp/ccOlQ4Wd.s:2301   .debug_str:0000000000000307 .LASF22
     /tmp/ccOlQ4Wd.s:2209   .debug_str:000000000000004c .LASF24
     /tmp/ccOlQ4Wd.s:2291   .debug_str:00000000000002bc .LASF25
     /tmp/ccOlQ4Wd.s:2299   .debug_str:00000000000002eb .LASF26
     /tmp/ccOlQ4Wd.s:2365   .debug_str:00000000000004a6 .LASF113
     /tmp/ccOlQ4Wd.s:2373   .debug_str:00000000000004d1 .LASF43
     /tmp/ccOlQ4Wd.s:2317   .debug_str:0000000000000362 .LASF45
     /tmp/ccOlQ4Wd.s:2245   .debug_str:000000000000015d .LASF114
     /tmp/ccOlQ4Wd.s:2389   .debug_str:000000000000054f .LASF115
     /tmp/ccOlQ4Wd.s:2285   .debug_str:00000000000002a4 .LASF27
     /tmp/ccOlQ4Wd.s:2331   .debug_str:00000000000003b8 .LASF28
     /tmp/ccOlQ4Wd.s:2289   .debug_str:00000000000002b4 .LASF29
     /tmp/ccOlQ4Wd.s:2333   .debug_str:00000000000003be .LASF30
     /tmp/ccOlQ4Wd.s:2283   .debug_str:000000000000029b .LASF31
     /tmp/ccOlQ4Wd.s:2303   .debug_str:0000000000000314 .LASF32
     /tmp/ccOlQ4Wd.s:2269   .debug_str:00000000000001fd .LASF34
     /tmp/ccOlQ4Wd.s:2415   .debug_str:0000000000000628 .LASF116
     /tmp/ccOlQ4Wd.s:2275   .debug_str:0000000000000238 .LASF117
     /tmp/ccOlQ4Wd.s:2329   .debug_str:00000000000003af .LASF33
     /tmp/ccOlQ4Wd.s:2251   .debug_str:0000000000000181 .LASF35
     /tmp/ccOlQ4Wd.s:2381   .debug_str:0000000000000508 .LASF94
     /tmp/ccOlQ4Wd.s:2297   .debug_str:00000000000002e0 .LASF36
     /tmp/ccOlQ4Wd.s:2271   .debug_str:0000000000000216 .LASF37
     /tmp/ccOlQ4Wd.s:2253   .debug_str:0000000000000194 .LASF38
     /tmp/ccOlQ4Wd.s:2335   .debug_str:00000000000003c8 .LASF39
     /tmp/ccOlQ4Wd.s:2235   .debug_str:000000000000011e .LASF118
     /tmp/ccOlQ4Wd.s:2227   .debug_str:00000000000000e3 .LASF40
     /tmp/ccOlQ4Wd.s:2421   .debug_str:00000000000006e4 .LASF41
     /tmp/ccOlQ4Wd.s:2213   .debug_str:000000000000006c .LASF42
GAS LISTING /tmp/ccOlQ4Wd.s 			page 13


     /tmp/ccOlQ4Wd.s:2369   .debug_str:00000000000004b0 .LASF44
     /tmp/ccOlQ4Wd.s:2429   .debug_str:0000000000000735 .LASF46
     /tmp/ccOlQ4Wd.s:2197   .debug_str:0000000000000018 .LASF48
     /tmp/ccOlQ4Wd.s:2391   .debug_str:0000000000000560 .LASF50
     /tmp/ccOlQ4Wd.s:2243   .debug_str:0000000000000154 .LASF47
     /tmp/ccOlQ4Wd.s:2225   .debug_str:00000000000000ce .LASF53
     /tmp/ccOlQ4Wd.s:2383   .debug_str:0000000000000519 .LASF49
     /tmp/ccOlQ4Wd.s:2361   .debug_str:0000000000000487 .LASF51
     /tmp/ccOlQ4Wd.s:2399   .debug_str:00000000000005b2 .LASF52
     /tmp/ccOlQ4Wd.s:2395   .debug_str:000000000000058d .LASF54
     /tmp/ccOlQ4Wd.s:2257   .debug_str:00000000000001ac .LASF55
     /tmp/ccOlQ4Wd.s:2233   .debug_str:000000000000010a .LASF56
     /tmp/ccOlQ4Wd.s:2193   .debug_str:0000000000000000 .LASF57
     /tmp/ccOlQ4Wd.s:2385   .debug_str:0000000000000520 .LASF58
     /tmp/ccOlQ4Wd.s:2247   .debug_str:0000000000000165 .LASF59
     /tmp/ccOlQ4Wd.s:2217   .debug_str:0000000000000088 .LASF60
     /tmp/ccOlQ4Wd.s:2433   .debug_str:0000000000000758 .LASF61
     /tmp/ccOlQ4Wd.s:2249   .debug_str:000000000000016d .LASF62
     /tmp/ccOlQ4Wd.s:2327   .debug_str:00000000000003a8 .LASF63
     /tmp/ccOlQ4Wd.s:2423   .debug_str:00000000000006f1 .LASF64
     /tmp/ccOlQ4Wd.s:2207   .debug_str:0000000000000045 .LASF65
     /tmp/ccOlQ4Wd.s:2255   .debug_str:0000000000000199 .LASF66
     /tmp/ccOlQ4Wd.s:2261   .debug_str:00000000000001bc .LASF67
     /tmp/ccOlQ4Wd.s:2397   .debug_str:00000000000005a0 .LASF68
     /tmp/ccOlQ4Wd.s:2205   .debug_str:000000000000003f .LASF69
     /tmp/ccOlQ4Wd.s:2437   .debug_str:0000000000000765 .LASF70
     /tmp/ccOlQ4Wd.s:2431   .debug_str:000000000000074d .LASF71
     /tmp/ccOlQ4Wd.s:2375   .debug_str:00000000000004d7 .LASF72
     /tmp/ccOlQ4Wd.s:2287   .debug_str:00000000000002a9 .LASF73
     /tmp/ccOlQ4Wd.s:2393   .debug_str:0000000000000575 .LASF74
     /tmp/ccOlQ4Wd.s:2221   .debug_str:00000000000000b8 .LASF75
     /tmp/ccOlQ4Wd.s:2351   .debug_str:000000000000043d .LASF76
     /tmp/ccOlQ4Wd.s:2315   .debug_str:0000000000000358 .LASF77
     /tmp/ccOlQ4Wd.s:2267   .debug_str:00000000000001e7 .LASF78
     /tmp/ccOlQ4Wd.s:2237   .debug_str:000000000000012d .LASF79
     /tmp/ccOlQ4Wd.s:2219   .debug_str:000000000000009c .LASF80
     /tmp/ccOlQ4Wd.s:2411   .debug_str:00000000000005f2 .LASF81
     /tmp/ccOlQ4Wd.s:2345   .debug_str:0000000000000406 .LASF82
     /tmp/ccOlQ4Wd.s:2405   .debug_str:00000000000005cd .LASF84
     /tmp/ccOlQ4Wd.s:2367   .debug_str:00000000000004ab .LASF85
     /tmp/ccOlQ4Wd.s:2401   .debug_str:00000000000005b9 .LASF86
     /tmp/ccOlQ4Wd.s:2319   .debug_str:0000000000000372 .LASF87
     /tmp/ccOlQ4Wd.s:2313   .debug_str:000000000000034f .LASF88
     /tmp/ccOlQ4Wd.s:2425   .debug_str:0000000000000704 .LASF89
     /tmp/ccOlQ4Wd.s:2409   .debug_str:00000000000005e8 .LASF90
     /tmp/ccOlQ4Wd.s:2413   .debug_str:0000000000000607 .LASF91
     /tmp/ccOlQ4Wd.s:2357   .debug_str:000000000000046e .LASF92
     /tmp/ccOlQ4Wd.s:2279   .debug_str:0000000000000267 .LASF93
     /tmp/ccOlQ4Wd.s:2347   .debug_str:0000000000000428 .LASF95
     /tmp/ccOlQ4Wd.s:2427   .debug_str:0000000000000724 .LASF96
     /tmp/ccOlQ4Wd.s:2349   .debug_str:0000000000000438 .LASF97
     /tmp/ccOlQ4Wd.s:27     .text:0000000000000000 .LFB22
     /tmp/ccOlQ4Wd.s:263    .text:0000000000000184 .LFE22
     /tmp/ccOlQ4Wd.s:2259   .debug_str:00000000000001b4 .LASF98
     /tmp/ccOlQ4Wd.s:205    .text:0000000000000124 .LBB30
     /tmp/ccOlQ4Wd.s:240    .text:0000000000000158 .LBE30
     /tmp/ccOlQ4Wd.s:2337   .debug_str:00000000000003ce .LASF99
GAS LISTING /tmp/ccOlQ4Wd.s 			page 14


     /tmp/ccOlQ4Wd.s:2117   .debug_loc:0000000000000000 .LLST5
     /tmp/ccOlQ4Wd.s:2419   .debug_str:00000000000006d8 .LASF100
     /tmp/ccOlQ4Wd.s:2355   .debug_str:0000000000000462 .LASF119
     /tmp/ccOlQ4Wd.s:2128   .debug_loc:0000000000000036 .LLST6
     /tmp/ccOlQ4Wd.s:2295   .debug_str:00000000000002d6 .LASF101
     /tmp/ccOlQ4Wd.s:225    .text:0000000000000144 .LBB31
     /tmp/ccOlQ4Wd.s:239    .text:0000000000000158 .LBE31
     /tmp/ccOlQ4Wd.s:2135   .debug_loc:0000000000000059 .LLST7
     /tmp/ccOlQ4Wd.s:234    .text:0000000000000154 .LVL27
     /tmp/ccOlQ4Wd.s:209    .text:0000000000000130 .LVL23
     /tmp/ccOlQ4Wd.s:111    .text:00000000000000d4 .LBB18
     /tmp/ccOlQ4Wd.s:123    .text:00000000000000d8 .LBE18
     /tmp/ccOlQ4Wd.s:125    .text:00000000000000d8 .LBB20
     /tmp/ccOlQ4Wd.s:140    .text:00000000000000e4 .LBE20
     /tmp/ccOlQ4Wd.s:2142   .debug_loc:000000000000007c .LLST0
     /tmp/ccOlQ4Wd.s:151    .text:00000000000000f0 .LBB22
     /tmp/ccOlQ4Wd.s:159    .text:00000000000000f4 .LBE22
     /tmp/ccOlQ4Wd.s:2150   .debug_loc:00000000000000a0 .LLST1
     /tmp/ccOlQ4Wd.s:165    .text:00000000000000fc .LBB24
     /tmp/ccOlQ4Wd.s:172    .text:0000000000000100 .LBE24
     /tmp/ccOlQ4Wd.s:2157   .debug_loc:00000000000000c3 .LLST2
     /tmp/ccOlQ4Wd.s:178    .text:0000000000000108 .LBB26
     /tmp/ccOlQ4Wd.s:185    .text:000000000000010c .LBE26
     /tmp/ccOlQ4Wd.s:2164   .debug_loc:00000000000000e6 .LLST3
     /tmp/ccOlQ4Wd.s:191    .text:0000000000000114 .LBB28
     /tmp/ccOlQ4Wd.s:198    .text:0000000000000118 .LBE28
     /tmp/ccOlQ4Wd.s:2171   .debug_loc:0000000000000109 .LLST4
     /tmp/ccOlQ4Wd.s:46     .text:0000000000000020 .LVL0
     /tmp/ccOlQ4Wd.s:52     .text:000000000000002c .LVL1
     /tmp/ccOlQ4Wd.s:63     .text:000000000000004c .LVL2
     /tmp/ccOlQ4Wd.s:70     .text:0000000000000060 .LVL3
     /tmp/ccOlQ4Wd.s:75     .text:0000000000000070 .LVL4
     /tmp/ccOlQ4Wd.s:82     .text:0000000000000084 .LVL5
     /tmp/ccOlQ4Wd.s:87     .text:0000000000000094 .LVL6
     /tmp/ccOlQ4Wd.s:94     .text:00000000000000a8 .LVL7
     /tmp/ccOlQ4Wd.s:99     .text:00000000000000b8 .LVL8
     /tmp/ccOlQ4Wd.s:106    .text:00000000000000cc .LVL9
     /tmp/ccOlQ4Wd.s:144    .text:00000000000000ec .LVL13
     /tmp/ccOlQ4Wd.s:245    .text:0000000000000168 .LVL29
     /tmp/ccOlQ4Wd.s:2435   .debug_str:0000000000000760 .LASF102
     /tmp/ccOlQ4Wd.s:2321   .debug_str:0000000000000382 .LASF103
     /tmp/ccOlQ4Wd.s:2229   .debug_str:00000000000000ef .LASF104
     /tmp/ccOlQ4Wd.s:2203   .debug_str:0000000000000035 .LASF105
     /tmp/ccOlQ4Wd.s:2311   .debug_str:0000000000000343 .LASF120
     /tmp/ccOlQ4Wd.s:2377   .debug_str:00000000000004ef .LASF106
     /tmp/ccOlQ4Wd.s:2281   .debug_str:0000000000000288 .LASF108
     /tmp/ccOlQ4Wd.s:2305   .debug_str:0000000000000322 .LASF107
     /tmp/ccOlQ4Wd.s:2359   .debug_str:0000000000000477 .LASF109
     /tmp/ccOlQ4Wd.s:2239   .debug_str:000000000000013c .LASF121
     /tmp/ccOlQ4Wd.s:2199   .debug_str:0000000000000021 .LASF122
     /tmp/ccOlQ4Wd.s:203    .text:0000000000000124 .LVL22
     /tmp/ccOlQ4Wd.s:213    .text:0000000000000134 .LVL24
     /tmp/ccOlQ4Wd.s:218    .text:000000000000013c .LVL25
     /tmp/ccOlQ4Wd.s:236    .text:0000000000000158 .LVL28
     /tmp/ccOlQ4Wd.s:256    .text:0000000000000178 .LVL30
     /tmp/ccOlQ4Wd.s:224    .text:0000000000000144 .LVL26
     /tmp/ccOlQ4Wd.s:120    .text:00000000000000d8 .LVL11
GAS LISTING /tmp/ccOlQ4Wd.s 			page 15


     /tmp/ccOlQ4Wd.s:137    .text:00000000000000e4 .LVL12
     /tmp/ccOlQ4Wd.s:150    .text:00000000000000f0 .LVL14
     /tmp/ccOlQ4Wd.s:157    .text:00000000000000f4 .LVL15
     /tmp/ccOlQ4Wd.s:164    .text:00000000000000fc .LVL16
     /tmp/ccOlQ4Wd.s:170    .text:0000000000000100 .LVL17
     /tmp/ccOlQ4Wd.s:177    .text:0000000000000108 .LVL18
     /tmp/ccOlQ4Wd.s:183    .text:000000000000010c .LVL19
     /tmp/ccOlQ4Wd.s:190    .text:0000000000000114 .LVL20
     /tmp/ccOlQ4Wd.s:196    .text:0000000000000118 .LVL21
     /tmp/ccOlQ4Wd.s:270    .debug_info:0000000000000000 .Ldebug_info0

UNDEFINED SYMBOLS
_ZN15MemoryAllocator8memAllocEv
_ZN3TCB12createThreadEPFvvE
_ZN3TCB7runningE
_Z11workerBodyAv
_Z11printStringPKc
_Z11workerBodyBv
_Z11workerBodyCv
_Z11workerBodyDv
_ZN5Riscv14supervisorTrapEv
_ZN3TCB5yieldEv
_ZdlPv
_ZdaPv
