GAS LISTING /tmp/ccvolr1Z.s 			page 1


   1              		.file	"main.cpp"
   2              		.option pic
   3              		.option norelax
   4              		.text
   5              	.Ltext0:
   6              		.section	.rodata.str1.8,"aMS",@progbits,1
   7              		.align	3
   8              	.LC0:
   9 0000 54687265 		.string	"ThreadA created\n"
   9      61644120 
   9      63726561 
   9      7465640A 
   9      00
  10 0011 00000000 		.align	3
  10      000000
  11              	.LC1:
  12 0018 54687265 		.string	"ThreadB created\n"
  12      61644220 
  12      63726561 
  12      7465640A 
  12      00
  13 0029 00000000 		.align	3
  13      000000
  14              	.LC2:
  15 0030 54687265 		.string	"ThreadC created\n"
  15      61644320 
  15      63726561 
  15      7465640A 
  15      00
  16 0041 00000000 		.align	3
  16      000000
  17              	.LC3:
  18 0048 54687265 		.string	"ThreadD created\n"
  18      61644420 
  18      63726561 
  18      7465640A 
  18      00
  19 0059 00000000 		.align	3
  19      000000
  20              	.LC4:
  21 0060 46696E69 		.string	"Finished\n"
  21      73686564 
  21      0A00
  22              		.text
  23              		.align	2
  24              		.globl	main
  26              	main:
  27              	.LFB22:
  28              		.file 1 "src/main.cpp"
   1:src/main.cpp  **** //
   2:src/main.cpp  **** // Created by os on 4/26/22.
   3:src/main.cpp  **** //
   4:src/main.cpp  **** 
   5:src/main.cpp  **** 
   6:src/main.cpp  **** #include "../h/workers.hpp"
   7:src/main.cpp  **** #include "../h/print.hpp"
   8:src/main.cpp  **** #include "../h/tcb.hpp"
GAS LISTING /tmp/ccvolr1Z.s 			page 2


   9:src/main.cpp  **** #include "../h/riscv.hpp"
  10:src/main.cpp  **** #include "../h/MemoryAllocator.hpp"
  11:src/main.cpp  **** #include "../h/syscall_c.hpp"
  12:src/main.cpp  **** 
  13:src/main.cpp  **** int main() {
  29              		.loc 1 13 12
  30              		.cfi_startproc
  31 0000 130101FB 		addi	sp,sp,-80
  32              		.cfi_def_cfa_offset 80
  33 0004 23341104 		sd	ra,72(sp)
  34 0008 23308104 		sd	s0,64(sp)
  35 000c 233C9102 		sd	s1,56(sp)
  36 0010 23382103 		sd	s2,48(sp)
  37              		.cfi_offset 1, -8
  38              		.cfi_offset 8, -16
  39              		.cfi_offset 9, -24
  40              		.cfi_offset 18, -32
  41 0014 13040105 		addi	s0,sp,80
  42              		.cfi_def_cfa 8, 0
  14:src/main.cpp  ****     MemoryAllocator::memAlloc();
  43              		.loc 1 14 5
  44              		.loc 1 14 30 is_stmt 0
  45 0018 97000000 		call	_ZN15MemoryAllocator8memAllocEv@plt
  45      E7800000 
  46              	.LVL0:
  15:src/main.cpp  ****     TCB *threads[5];
  47              		.loc 1 15 5 is_stmt 1
  16:src/main.cpp  **** 
  17:src/main.cpp  ****     Riscv::w_stvec((uint64) &Riscv::supervisorTrap);
  48              		.loc 1 17 5
  49              		.loc 1 17 19 is_stmt 0
  50 0020 97070000 		la	a5,_ZN5Riscv14supervisorTrapEv
  50      83B70700 
  51              	.LVL1:
  52              	.LBB18:
  53              	.LBB19:
  54              		.file 2 "src/../h/riscv.hpp"
   1:src/../h/riscv.hpp **** //
   2:src/../h/riscv.hpp **** // Created by os on 4/26/22.
   3:src/../h/riscv.hpp **** //
   4:src/../h/riscv.hpp **** 
   5:src/../h/riscv.hpp **** #ifndef PROJECT_BASE_V1_0_RISCV_HPP
   6:src/../h/riscv.hpp **** #define PROJECT_BASE_V1_0_RISCV_HPP
   7:src/../h/riscv.hpp **** 
   8:src/../h/riscv.hpp **** #include "../lib/hw.h"
   9:src/../h/riscv.hpp **** 
  10:src/../h/riscv.hpp **** class Riscv{
  11:src/../h/riscv.hpp **** public:
  12:src/../h/riscv.hpp **** 
  13:src/../h/riscv.hpp ****     static void popSppSpie();
  14:src/../h/riscv.hpp **** 
  15:src/../h/riscv.hpp ****     //read
  16:src/../h/riscv.hpp ****     static uint64 r_scause();
  17:src/../h/riscv.hpp **** 
  18:src/../h/riscv.hpp ****     //write
  19:src/../h/riscv.hpp ****     static void w_scause(uint64 scause);
  20:src/../h/riscv.hpp **** 
GAS LISTING /tmp/ccvolr1Z.s 			page 3


  21:src/../h/riscv.hpp ****     static uint64 r_sepc();
  22:src/../h/riscv.hpp **** 
  23:src/../h/riscv.hpp ****     static void w_sepc(uint64 sepc);
  24:src/../h/riscv.hpp **** 
  25:src/../h/riscv.hpp ****     static uint64 r_stvec();
  26:src/../h/riscv.hpp **** 
  27:src/../h/riscv.hpp ****     static void w_stvec(uint64 stvec);
  28:src/../h/riscv.hpp **** 
  29:src/../h/riscv.hpp ****     static uint64 r_stval();
  30:src/../h/riscv.hpp **** 
  31:src/../h/riscv.hpp ****     static void w_stval(uint64 stval);
  32:src/../h/riscv.hpp **** 
  33:src/../h/riscv.hpp ****     enum BitMaskSip{
  34:src/../h/riscv.hpp ****         SIP_SSIP = (1 << 1),
  35:src/../h/riscv.hpp ****         SIP_STIP = (1 << 5),
  36:src/../h/riscv.hpp ****         SIP_SEIP = (1 << 9),
  37:src/../h/riscv.hpp ****     };
  38:src/../h/riscv.hpp ****     // mask set
  39:src/../h/riscv.hpp ****     static void ms_sip(uint64 mask);
  40:src/../h/riscv.hpp ****     // mask clear
  41:src/../h/riscv.hpp ****     static void mc_sip(uint64 mask);
  42:src/../h/riscv.hpp **** 
  43:src/../h/riscv.hpp ****     static uint64 r_sip();
  44:src/../h/riscv.hpp **** 
  45:src/../h/riscv.hpp ****     static void w_sip(uint64 sip);
  46:src/../h/riscv.hpp **** 
  47:src/../h/riscv.hpp ****     enum BitMaskSstatus{
  48:src/../h/riscv.hpp ****         SSTATUS_SIE = (1 << 1),
  49:src/../h/riscv.hpp ****         SSTATUS_SPIE = (1 << 5),
  50:src/../h/riscv.hpp ****         SSTATUS_SPP = (1 << 8),
  51:src/../h/riscv.hpp ****     };
  52:src/../h/riscv.hpp **** 
  53:src/../h/riscv.hpp ****     static void ms_sstatus(uint64 mask);
  54:src/../h/riscv.hpp **** 
  55:src/../h/riscv.hpp ****     static void mc_sstatus(uint64 mask);
  56:src/../h/riscv.hpp **** 
  57:src/../h/riscv.hpp ****     static uint64 r_sstatus();
  58:src/../h/riscv.hpp **** 
  59:src/../h/riscv.hpp ****     static void w_sstatus(uint64 sstatus);
  60:src/../h/riscv.hpp **** 
  61:src/../h/riscv.hpp ****     static void supervisorTrap();
  62:src/../h/riscv.hpp **** 
  63:src/../h/riscv.hpp **** private:
  64:src/../h/riscv.hpp ****     static void handleSupervisorTrap();
  65:src/../h/riscv.hpp **** };
  66:src/../h/riscv.hpp **** 
  67:src/../h/riscv.hpp **** inline uint64 Riscv::r_scause() {
  68:src/../h/riscv.hpp ****     uint64 volatile scause;
  69:src/../h/riscv.hpp ****     __asm__ volatile ("csrr %[scause], scause" : [scause] "=r"(scause));
  70:src/../h/riscv.hpp ****     return scause;
  71:src/../h/riscv.hpp **** }
  72:src/../h/riscv.hpp **** 
  73:src/../h/riscv.hpp **** inline void Riscv::w_scause(uint64 scause) {
  74:src/../h/riscv.hpp ****     __asm__ volatile ("csrw scause, %[scause]" : : [scause] "r"(scause));
  75:src/../h/riscv.hpp **** }
  76:src/../h/riscv.hpp **** 
  77:src/../h/riscv.hpp **** inline uint64 Riscv::r_sepc() {
GAS LISTING /tmp/ccvolr1Z.s 			page 4


  78:src/../h/riscv.hpp ****     uint64 volatile sepc;
  79:src/../h/riscv.hpp ****     __asm__ volatile ("csrr %[sepc], sepc" : [sepc] "=r"(sepc));
  80:src/../h/riscv.hpp ****     return sepc;
  81:src/../h/riscv.hpp **** }
  82:src/../h/riscv.hpp **** 
  83:src/../h/riscv.hpp **** inline void Riscv::w_sepc(uint64 sepc) {
  84:src/../h/riscv.hpp ****     __asm__ volatile ("csrw sepc, %[sepc]" : : [sepc] "r"(sepc));
  85:src/../h/riscv.hpp **** }
  86:src/../h/riscv.hpp **** 
  87:src/../h/riscv.hpp **** inline uint64 Riscv::r_stvec() {
  88:src/../h/riscv.hpp ****     uint64 volatile stvec;
  89:src/../h/riscv.hpp ****     __asm__ volatile ("csrr %[stvec], stvec" : [stvec] "=r"(stvec));
  90:src/../h/riscv.hpp ****     return stvec;
  91:src/../h/riscv.hpp **** }
  92:src/../h/riscv.hpp **** 
  93:src/../h/riscv.hpp **** inline void Riscv::w_stvec(uint64 stvec) {
  94:src/../h/riscv.hpp ****     __asm__ volatile ("csrw stvec, %[stvec]" : : [stvec] "r"(stvec));
  55              		.loc 2 94 5 is_stmt 1
  56              		.loc 2 94 69 is_stmt 0
  57              	#APP
  58              	# 94 "src/../h/riscv.hpp" 1
  95              	}
  59              		csrw stvec, a5
  60              	# 0 "" 2
  61              	.LVL2:
  62              	#NO_APP
  63              	.LBE19:
  64              	.LBE18:
  18:src/main.cpp  **** 
  19:src/main.cpp  ****     thread_create(&threads[0], nullptr, nullptr);
  65              		.loc 1 19 5 is_stmt 1
  66              		.loc 1 19 18 is_stmt 0
  67 002c 13060000 		li	a2,0
  68 0030 93050000 		li	a1,0
  69 0034 130584FB 		addi	a0,s0,-72
  70 0038 97000000 		call	_Z13thread_createPP3TCBPFvPvES2_@plt
  70      E7800000 
  71              	.LVL3:
  20:src/main.cpp  ****     TCB::running = threads[0];
  72              		.loc 1 20 5 is_stmt 1
  73              		.loc 1 20 18 is_stmt 0
  74 0040 033784FB 		ld	a4,-72(s0)
  75 0044 97070000 		la	a5,_ZN3TCB7runningE
  75      83B70700 
  76 004c 23B0E700 		sd	a4,0(a5)
  21:src/main.cpp  ****     thread_create(&threads[1], workerBodyA, nullptr);
  77              		.loc 1 21 5 is_stmt 1
  78              		.loc 1 21 18 is_stmt 0
  79 0050 13060000 		li	a2,0
  80 0054 97050000 		la	a1,_Z11workerBodyAPv
  80      83B50500 
  81 005c 130504FC 		addi	a0,s0,-64
  82 0060 97000000 		call	_Z13thread_createPP3TCBPFvPvES2_@plt
  82      E7800000 
  83              	.LVL4:
  22:src/main.cpp  ****     printString("ThreadA created\n");
  84              		.loc 1 22 5 is_stmt 1
GAS LISTING /tmp/ccvolr1Z.s 			page 5


  85              		.loc 1 22 16 is_stmt 0
  86 0068 17050000 		lla	a0,.LC0
  86      13050500 
  87 0070 97000000 		call	_Z11printStringPKc@plt
  87      E7800000 
  88              	.LVL5:
  23:src/main.cpp  ****     thread_create(&threads[2], workerBodyB, nullptr);
  89              		.loc 1 23 5 is_stmt 1
  90              		.loc 1 23 18 is_stmt 0
  91 0078 13060000 		li	a2,0
  92 007c 97050000 		la	a1,_Z11workerBodyBPv
  92      83B50500 
  93 0084 130584FC 		addi	a0,s0,-56
  94 0088 97000000 		call	_Z13thread_createPP3TCBPFvPvES2_@plt
  94      E7800000 
  95              	.LVL6:
  24:src/main.cpp  ****     printString("ThreadB created\n");
  96              		.loc 1 24 5 is_stmt 1
  97              		.loc 1 24 16 is_stmt 0
  98 0090 17050000 		lla	a0,.LC1
  98      13050500 
  99 0098 97000000 		call	_Z11printStringPKc@plt
  99      E7800000 
 100              	.LVL7:
  25:src/main.cpp  ****     thread_create(&threads[3], workerBodyC, nullptr);
 101              		.loc 1 25 5 is_stmt 1
 102              		.loc 1 25 18 is_stmt 0
 103 00a0 13060000 		li	a2,0
 104 00a4 97050000 		la	a1,_Z11workerBodyCPv
 104      83B50500 
 105 00ac 130504FD 		addi	a0,s0,-48
 106 00b0 97000000 		call	_Z13thread_createPP3TCBPFvPvES2_@plt
 106      E7800000 
 107              	.LVL8:
  26:src/main.cpp  ****     printString("ThreadC created\n");
 108              		.loc 1 26 5 is_stmt 1
 109              		.loc 1 26 16 is_stmt 0
 110 00b8 17050000 		lla	a0,.LC2
 110      13050500 
 111 00c0 97000000 		call	_Z11printStringPKc@plt
 111      E7800000 
 112              	.LVL9:
  27:src/main.cpp  ****     thread_create(&threads[4], workerBodyD, nullptr);
 113              		.loc 1 27 5 is_stmt 1
 114              		.loc 1 27 18 is_stmt 0
 115 00c8 13060000 		li	a2,0
 116 00cc 97050000 		la	a1,_Z11workerBodyDPv
 116      83B50500 
 117 00d4 130584FD 		addi	a0,s0,-40
 118 00d8 97000000 		call	_Z13thread_createPP3TCBPFvPvES2_@plt
 118      E7800000 
 119              	.LVL10:
  28:src/main.cpp  ****     printString("ThreadD created\n");
 120              		.loc 1 28 5 is_stmt 1
 121              		.loc 1 28 16 is_stmt 0
 122 00e0 17050000 		lla	a0,.LC3
 122      13050500 
GAS LISTING /tmp/ccvolr1Z.s 			page 6


 123 00e8 97000000 		call	_Z11printStringPKc@plt
 123      E7800000 
 124              	.LVL11:
  29:src/main.cpp  **** 
  30:src/main.cpp  ****     Riscv::ms_sstatus(Riscv::SSTATUS_SIE);
 125              		.loc 1 30 5 is_stmt 1
 126              	.LBB20:
 127              	.LBB21:
  96:src/../h/riscv.hpp **** 
  97:src/../h/riscv.hpp **** inline uint64 Riscv::r_stval() {
  98:src/../h/riscv.hpp ****     uint64 volatile stval;
  99:src/../h/riscv.hpp ****     __asm__ volatile ("csrr %[stval], stval" : [stval] "=r"(stval));
 100:src/../h/riscv.hpp ****     return stval;
 101:src/../h/riscv.hpp **** }
 102:src/../h/riscv.hpp **** 
 103:src/../h/riscv.hpp **** inline void Riscv::w_stval(uint64 stval) {
 104:src/../h/riscv.hpp ****     __asm__ volatile ("csrw stval, %[stval]" : : [stval] "r"(stval));
 105:src/../h/riscv.hpp **** }
 106:src/../h/riscv.hpp **** 
 107:src/../h/riscv.hpp **** inline void Riscv::ms_sip(uint64 mask) {
 108:src/../h/riscv.hpp ****     __asm__ volatile ("csrs sip, %[mask]" : : [mask] "r"(mask));
 109:src/../h/riscv.hpp **** }
 110:src/../h/riscv.hpp **** 
 111:src/../h/riscv.hpp **** inline void Riscv::mc_sip(uint64 mask) {
 112:src/../h/riscv.hpp ****     __asm__ volatile ("csrc sip, %[mask]" : : [mask] "r"(mask));
 113:src/../h/riscv.hpp **** }
 114:src/../h/riscv.hpp **** 
 115:src/../h/riscv.hpp **** inline uint64 Riscv::r_sip() {
 116:src/../h/riscv.hpp ****     uint64 volatile sip;
 117:src/../h/riscv.hpp ****     __asm__ volatile ("csrr %[sip], sip" : [sip] "=r"(sip));
 118:src/../h/riscv.hpp ****     return sip;
 119:src/../h/riscv.hpp **** }
 120:src/../h/riscv.hpp **** 
 121:src/../h/riscv.hpp **** inline void Riscv::w_sip(uint64 sip) {
 122:src/../h/riscv.hpp ****     __asm__ volatile ("csrw sip, %[sip]" : : [sip] "r"(sip));
 123:src/../h/riscv.hpp **** }
 124:src/../h/riscv.hpp **** 
 125:src/../h/riscv.hpp **** inline void Riscv::ms_sstatus(uint64 mask) {
 126:src/../h/riscv.hpp ****     __asm__ volatile ("csrs sstatus, %[mask]" : : [mask] "r"(mask));
 128              		.loc 2 126 5
 129              		.loc 2 126 68 is_stmt 0
 130 00f0 93072000 		li	a5,2
 131              	#APP
 132              	# 126 "src/../h/riscv.hpp" 1
 127              	}
 133              		csrs sstatus, a5
 134              	# 0 "" 2
 135              		.loc 2 127 1
 136              	#NO_APP
 137 00f8 6F00C000 		j	.L4
 138              	.LVL12:
 139              	.L2:
 140              	.LBE21:
 141              	.LBE20:
  31:src/main.cpp  **** 
  32:src/main.cpp  ****     while (!(threads[1]->isFinished() && threads[2]->isFinished() &&
  33:src/main.cpp  ****              threads[3]->isFinished() && threads[4]->isFinished())) {
GAS LISTING /tmp/ccvolr1Z.s 			page 7


  34:src/main.cpp  ****         TCB::yield();
 142              		.loc 1 34 9 is_stmt 1 discriminator 7
 143              		.loc 1 34 19 is_stmt 0 discriminator 7
 144 00fc 97000000 		call	_ZN3TCB5yieldEv@plt
 144      E7800000 
 145              	.LVL13:
 146              	.L4:
  32:src/main.cpp  ****              threads[3]->isFinished() && threads[4]->isFinished())) {
 147              		.loc 1 32 5 is_stmt 1
  32:src/main.cpp  ****              threads[3]->isFinished() && threads[4]->isFinished())) {
 148              		.loc 1 32 12
  32:src/main.cpp  ****              threads[3]->isFinished() && threads[4]->isFinished())) {
 149              		.loc 1 32 23 is_stmt 0
 150 0104 833704FC 		ld	a5,-64(s0)
 151              	.LVL14:
 152              	.LBB22:
 153              	.LBB23:
 154              		.file 3 "src/../h/tcb.hpp"
   1:src/../h/tcb.hpp **** //
   2:src/../h/tcb.hpp **** // Created by os on 4/26/22.
   3:src/../h/tcb.hpp **** //
   4:src/../h/tcb.hpp **** 
   5:src/../h/tcb.hpp **** #ifndef PROJECT_BASE_V1_0_TCB_HPP
   6:src/../h/tcb.hpp **** #define PROJECT_BASE_V1_0_TCB_HPP
   7:src/../h/tcb.hpp **** 
   8:src/../h/tcb.hpp **** #include "../lib/hw.h"
   9:src/../h/tcb.hpp **** 
  10:src/../h/tcb.hpp **** class TCB {
  11:src/../h/tcb.hpp ****         public:
  12:src/../h/tcb.hpp ****         ~TCB() { delete[] stack; }
  13:src/../h/tcb.hpp ****         bool isFinished() const { return finished; }
 155              		.loc 3 13 35 is_stmt 1
 156              		.loc 3 13 42 is_stmt 0
 157 0108 83C78702 		lbu	a5,40(a5)
 158              	.LVL15:
 159              	.LBE23:
 160              	.LBE22:
  32:src/main.cpp  ****              threads[3]->isFinished() && threads[4]->isFinished())) {
 161              		.loc 1 32 12
 162 010c E38807FE 		beqz	a5,.L2
  32:src/main.cpp  ****              threads[3]->isFinished() && threads[4]->isFinished())) {
 163              		.loc 1 32 51 discriminator 2
 164 0110 833784FC 		ld	a5,-56(s0)
 165              	.LVL16:
 166              	.LBB24:
 167              	.LBB25:
 168              		.loc 3 13 35 is_stmt 1 discriminator 2
 169              		.loc 3 13 42 is_stmt 0 discriminator 2
 170 0114 83C78702 		lbu	a5,40(a5)
 171              	.LVL17:
 172              	.LBE25:
 173              	.LBE24:
  32:src/main.cpp  ****              threads[3]->isFinished() && threads[4]->isFinished())) {
 174              		.loc 1 32 39 discriminator 2
 175 0118 E38207FE 		beqz	a5,.L2
  33:src/main.cpp  ****         TCB::yield();
 176              		.loc 1 33 23 discriminator 4
GAS LISTING /tmp/ccvolr1Z.s 			page 8


 177 011c 833704FD 		ld	a5,-48(s0)
 178              	.LVL18:
 179              	.LBB26:
 180              	.LBB27:
 181              		.loc 3 13 35 is_stmt 1 discriminator 4
 182              		.loc 3 13 42 is_stmt 0 discriminator 4
 183 0120 83C78702 		lbu	a5,40(a5)
 184              	.LVL19:
 185              	.LBE27:
 186              	.LBE26:
  32:src/main.cpp  ****              threads[3]->isFinished() && threads[4]->isFinished())) {
 187              		.loc 1 32 67 discriminator 4
 188 0124 E38C07FC 		beqz	a5,.L2
  33:src/main.cpp  ****         TCB::yield();
 189              		.loc 1 33 51 discriminator 6
 190 0128 833784FD 		ld	a5,-40(s0)
 191              	.LVL20:
 192              	.LBB28:
 193              	.LBB29:
 194              		.loc 3 13 35 is_stmt 1 discriminator 6
 195              		.loc 3 13 42 is_stmt 0 discriminator 6
 196 012c 83C78702 		lbu	a5,40(a5)
 197              	.LVL21:
 198              	.LBE29:
 199              	.LBE28:
  32:src/main.cpp  ****              threads[3]->isFinished() && threads[4]->isFinished())) {
 200              		.loc 1 32 12 discriminator 6
 201 0130 E38607FC 		beqz	a5,.L2
 202 0134 930484FB 		addi	s1,s0,-72
 203 0138 6F004001 		j	.L3
 204              	.LVL22:
 205              	.L7:
 206              	.LBB30:
  35:src/main.cpp  ****     }
  36:src/main.cpp  ****     for (auto &thread: threads) { delete thread; }
 207              		.loc 1 36 42
 208 013c 13050900 		mv	a0,s2
 209 0140 97000000 		call	_ZdlPv@plt
 209      E7800000 
 210              	.LVL23:
 211              	.L6:
 212              		.loc 1 36 5 is_stmt 1 discriminator 5
 213 0148 93848400 		addi	s1,s1,8
 214              	.LVL24:
 215              	.L3:
 216              		.loc 1 36 24 discriminator 6
 217 014c 930704FE 		addi	a5,s0,-32
 218 0150 6380F402 		beq	s1,a5,.L5
 219              	.LVL25:
 220              		.loc 1 36 35 discriminator 2
 221              		.loc 1 36 42 is_stmt 0 discriminator 2
 222 0154 03B90400 		ld	s2,0(s1)
 223              		.loc 1 36 48 discriminator 2
 224 0158 E30809FE 		beqz	s2,.L6
 225              	.LVL26:
 226              	.LBB31:
 227              	.LBB32:
GAS LISTING /tmp/ccvolr1Z.s 			page 9


  12:src/../h/tcb.hpp ****         bool isFinished() const { return finished; }
 228              		.loc 3 12 18 is_stmt 1
  12:src/../h/tcb.hpp ****         bool isFinished() const { return finished; }
 229              		.loc 3 12 27 is_stmt 0
 230 015c 03358900 		ld	a0,8(s2)
  12:src/../h/tcb.hpp ****         bool isFinished() const { return finished; }
 231              		.loc 3 12 32
 232 0160 E30E05FC 		beqz	a0,.L7
  12:src/../h/tcb.hpp ****         bool isFinished() const { return finished; }
 233              		.loc 3 12 27
 234 0164 97000000 		call	_ZdaPv@plt
 234      E7800000 
 235              	.LVL27:
 236 016c 6FF01FFD 		j	.L7
 237              	.LVL28:
 238              	.L5:
 239              	.LBE32:
 240              	.LBE31:
 241              	.LBE30:
  37:src/main.cpp  ****     printString("Finished\n");
 242              		.loc 1 37 5 is_stmt 1
 243              		.loc 1 37 16 is_stmt 0
 244 0170 17050000 		lla	a0,.LC4
 244      13050500 
 245 0178 97000000 		call	_Z11printStringPKc@plt
 245      E7800000 
 246              	.LVL29:
  38:src/main.cpp  ****     return 0;
 247              		.loc 1 38 5 is_stmt 1
  39:src/main.cpp  **** }
 248              		.loc 1 39 1 is_stmt 0
 249 0180 13050000 		li	a0,0
 250 0184 83308104 		ld	ra,72(sp)
 251              		.cfi_restore 1
 252 0188 03340104 		ld	s0,64(sp)
 253              		.cfi_restore 8
 254              		.cfi_def_cfa 2, 80
 255 018c 83348103 		ld	s1,56(sp)
 256              		.cfi_restore 9
 257              	.LVL30:
 258 0190 03390103 		ld	s2,48(sp)
 259              		.cfi_restore 18
 260 0194 13010105 		addi	sp,sp,80
 261              		.cfi_def_cfa_offset 0
 262 0198 67800000 		jr	ra
 263              		.cfi_endproc
 264              	.LFE22:
 266              	.Letext0:
 267              		.file 4 "src/../h/../lib/hw.h"
 268              		.file 5 "src/../h/MemoryAllocator.hpp"
 269              		.file 6 "src/../h/syscall_c.hpp"
 270              		.file 7 "src/../h/print.hpp"
GAS LISTING /tmp/ccvolr1Z.s 			page 10


DEFINED SYMBOLS
                            *ABS*:0000000000000000 main.cpp
     /tmp/ccvolr1Z.s:26     .text:0000000000000000 main
     /tmp/ccvolr1Z.s:30     .text:0000000000000000 .L0 
     /tmp/ccvolr1Z.s:31     .text:0000000000000000 .L0 
     /tmp/ccvolr1Z.s:32     .text:0000000000000004 .L0 
     /tmp/ccvolr1Z.s:37     .text:0000000000000014 .L0 
     /tmp/ccvolr1Z.s:38     .text:0000000000000014 .L0 
     /tmp/ccvolr1Z.s:39     .text:0000000000000014 .L0 
     /tmp/ccvolr1Z.s:40     .text:0000000000000014 .L0 
     /tmp/ccvolr1Z.s:42     .text:0000000000000018 .L0 
     /tmp/ccvolr1Z.s:44     .text:0000000000000018 .L0 
     /tmp/ccvolr1Z.s:45     .text:0000000000000018 .L0 
     /tmp/ccvolr1Z.s:48     .text:0000000000000020 .L0 
     /tmp/ccvolr1Z.s:49     .text:0000000000000020 .L0 
     /tmp/ccvolr1Z.s:50     .text:0000000000000020 .L0 
     /tmp/ccvolr1Z.s:56     .text:0000000000000028 .L0 
  src/../h/riscv.hpp:94     .text:0000000000000028 .L0 
     /tmp/ccvolr1Z.s:66     .text:000000000000002c .L0 
     /tmp/ccvolr1Z.s:67     .text:000000000000002c .L0 
     /tmp/ccvolr1Z.s:73     .text:0000000000000040 .L0 
     /tmp/ccvolr1Z.s:74     .text:0000000000000040 .L0 
     /tmp/ccvolr1Z.s:78     .text:0000000000000050 .L0 
     /tmp/ccvolr1Z.s:79     .text:0000000000000050 .L0 
     /tmp/ccvolr1Z.s:85     .text:0000000000000068 .L0 
     /tmp/ccvolr1Z.s:86     .text:0000000000000068 .L0 
     /tmp/ccvolr1Z.s:90     .text:0000000000000078 .L0 
     /tmp/ccvolr1Z.s:91     .text:0000000000000078 .L0 
     /tmp/ccvolr1Z.s:97     .text:0000000000000090 .L0 
     /tmp/ccvolr1Z.s:98     .text:0000000000000090 .L0 
     /tmp/ccvolr1Z.s:102    .text:00000000000000a0 .L0 
     /tmp/ccvolr1Z.s:103    .text:00000000000000a0 .L0 
     /tmp/ccvolr1Z.s:109    .text:00000000000000b8 .L0 
     /tmp/ccvolr1Z.s:110    .text:00000000000000b8 .L0 
     /tmp/ccvolr1Z.s:114    .text:00000000000000c8 .L0 
     /tmp/ccvolr1Z.s:115    .text:00000000000000c8 .L0 
     /tmp/ccvolr1Z.s:121    .text:00000000000000e0 .L0 
     /tmp/ccvolr1Z.s:122    .text:00000000000000e0 .L0 
     /tmp/ccvolr1Z.s:128    .text:00000000000000f0 .L0 
     /tmp/ccvolr1Z.s:129    .text:00000000000000f0 .L0 
     /tmp/ccvolr1Z.s:130    .text:00000000000000f0 .L0 
     /tmp/ccvolr1Z.s:137    .text:00000000000000f8 .L0 
     /tmp/ccvolr1Z.s:143    .text:00000000000000fc .L0 
     /tmp/ccvolr1Z.s:144    .text:00000000000000fc .L0 
     /tmp/ccvolr1Z.s:148    .text:0000000000000104 .L0 
     /tmp/ccvolr1Z.s:149    .text:0000000000000104 .L0 
     /tmp/ccvolr1Z.s:150    .text:0000000000000104 .L0 
     /tmp/ccvolr1Z.s:156    .text:0000000000000108 .L0 
     /tmp/ccvolr1Z.s:157    .text:0000000000000108 .L0 
     /tmp/ccvolr1Z.s:162    .text:000000000000010c .L0 
     /tmp/ccvolr1Z.s:164    .text:0000000000000110 .L0 
     /tmp/ccvolr1Z.s:169    .text:0000000000000114 .L0 
     /tmp/ccvolr1Z.s:170    .text:0000000000000114 .L0 
     /tmp/ccvolr1Z.s:175    .text:0000000000000118 .L0 
     /tmp/ccvolr1Z.s:177    .text:000000000000011c .L0 
     /tmp/ccvolr1Z.s:182    .text:0000000000000120 .L0 
     /tmp/ccvolr1Z.s:183    .text:0000000000000120 .L0 
GAS LISTING /tmp/ccvolr1Z.s 			page 11


     /tmp/ccvolr1Z.s:188    .text:0000000000000124 .L0 
     /tmp/ccvolr1Z.s:190    .text:0000000000000128 .L0 
     /tmp/ccvolr1Z.s:195    .text:000000000000012c .L0 
     /tmp/ccvolr1Z.s:196    .text:000000000000012c .L0 
     /tmp/ccvolr1Z.s:201    .text:0000000000000130 .L0 
     /tmp/ccvolr1Z.s:208    .text:000000000000013c .L0 
     /tmp/ccvolr1Z.s:213    .text:0000000000000148 .L0 
     /tmp/ccvolr1Z.s:217    .text:000000000000014c .L0 
     /tmp/ccvolr1Z.s:221    .text:0000000000000154 .L0 
     /tmp/ccvolr1Z.s:222    .text:0000000000000154 .L0 
     /tmp/ccvolr1Z.s:224    .text:0000000000000158 .L0 
     /tmp/ccvolr1Z.s:229    .text:000000000000015c .L0 
     /tmp/ccvolr1Z.s:230    .text:000000000000015c .L0 
     /tmp/ccvolr1Z.s:232    .text:0000000000000160 .L0 
     /tmp/ccvolr1Z.s:234    .text:0000000000000164 .L0 
     /tmp/ccvolr1Z.s:243    .text:0000000000000170 .L0 
     /tmp/ccvolr1Z.s:244    .text:0000000000000170 .L0 
     /tmp/ccvolr1Z.s:248    .text:0000000000000180 .L0 
     /tmp/ccvolr1Z.s:249    .text:0000000000000180 .L0 
     /tmp/ccvolr1Z.s:251    .text:0000000000000188 .L0 
     /tmp/ccvolr1Z.s:253    .text:000000000000018c .L0 
     /tmp/ccvolr1Z.s:254    .text:000000000000018c .L0 
     /tmp/ccvolr1Z.s:256    .text:0000000000000190 .L0 
     /tmp/ccvolr1Z.s:259    .text:0000000000000194 .L0 
     /tmp/ccvolr1Z.s:261    .text:0000000000000198 .L0 
     /tmp/ccvolr1Z.s:263    .text:000000000000019c .L0 
     /tmp/ccvolr1Z.s:271    .text:000000000000019c .L0 
     /tmp/ccvolr1Z.s:50     .text:0000000000000020 .L0 
     /tmp/ccvolr1Z.s:75     .text:0000000000000044 .L0 
     /tmp/ccvolr1Z.s:80     .text:0000000000000054 .L0 
     /tmp/ccvolr1Z.s:8      .rodata.str1.8:0000000000000000 .LC0
     /tmp/ccvolr1Z.s:86     .text:0000000000000068 .L0 
     /tmp/ccvolr1Z.s:92     .text:000000000000007c .L0 
     /tmp/ccvolr1Z.s:11     .rodata.str1.8:0000000000000018 .LC1
     /tmp/ccvolr1Z.s:98     .text:0000000000000090 .L0 
     /tmp/ccvolr1Z.s:104    .text:00000000000000a4 .L0 
     /tmp/ccvolr1Z.s:14     .rodata.str1.8:0000000000000030 .LC2
     /tmp/ccvolr1Z.s:110    .text:00000000000000b8 .L0 
     /tmp/ccvolr1Z.s:116    .text:00000000000000cc .L0 
     /tmp/ccvolr1Z.s:17     .rodata.str1.8:0000000000000048 .LC3
     /tmp/ccvolr1Z.s:122    .text:00000000000000e0 .L0 
     /tmp/ccvolr1Z.s:20     .rodata.str1.8:0000000000000060 .LC4
     /tmp/ccvolr1Z.s:244    .text:0000000000000170 .L0 
     /tmp/ccvolr1Z.s:146    .text:0000000000000104 .L4
     /tmp/ccvolr1Z.s:139    .text:00000000000000fc .L2
     /tmp/ccvolr1Z.s:215    .text:000000000000014c .L3
     /tmp/ccvolr1Z.s:238    .text:0000000000000170 .L5
     /tmp/ccvolr1Z.s:211    .text:0000000000000148 .L6
     /tmp/ccvolr1Z.s:205    .text:000000000000013c .L7
     /tmp/ccvolr1Z.s:1302   .debug_abbrev:0000000000000000 .Ldebug_abbrev0
     /tmp/ccvolr1Z.s:2516   .debug_str:0000000000000665 .LASF114
     /tmp/ccvolr1Z.s:2390   .debug_str:00000000000002d7 .LASF115
     /tmp/ccvolr1Z.s:2486   .debug_str:0000000000000563 .LASF116
     /tmp/ccvolr1Z.s:5      .text:0000000000000000 .Ltext0
     /tmp/ccvolr1Z.s:266    .text:000000000000019c .Letext0
     /tmp/ccvolr1Z.s:2286   .debug_line:0000000000000000 .Ldebug_line0
     /tmp/ccvolr1Z.s:2422   .debug_str:00000000000003a9 .LASF0
GAS LISTING /tmp/ccvolr1Z.s 			page 12


     /tmp/ccvolr1Z.s:2436   .debug_str:00000000000003e3 .LASF1
     /tmp/ccvolr1Z.s:2404   .debug_str:0000000000000337 .LASF2
     /tmp/ccvolr1Z.s:2374   .debug_str:000000000000026e .LASF4
     /tmp/ccvolr1Z.s:2478   .debug_str:0000000000000525 .LASF3
     /tmp/ccvolr1Z.s:2306   .debug_str:0000000000000065 .LASF5
     /tmp/ccvolr1Z.s:2440   .debug_str:0000000000000417 .LASF6
     /tmp/ccvolr1Z.s:2420   .debug_str:0000000000000396 .LASF7
     /tmp/ccvolr1Z.s:2506   .debug_str:0000000000000607 .LASF8
     /tmp/ccvolr1Z.s:2362   .debug_str:00000000000001e7 .LASF9
     /tmp/ccvolr1Z.s:2452   .debug_str:0000000000000482 .LASF10
     /tmp/ccvolr1Z.s:2502   .debug_str:00000000000005ed .LASF11
     /tmp/ccvolr1Z.s:2310   .debug_str:0000000000000078 .LASF12
     /tmp/ccvolr1Z.s:2290   .debug_str:0000000000000008 .LASF13
     /tmp/ccvolr1Z.s:2318   .debug_str:00000000000000c2 .LASF14
     /tmp/ccvolr1Z.s:2470   .debug_str:00000000000004ea .LASF15
     /tmp/ccvolr1Z.s:2326   .debug_str:00000000000000f4 .LASF16
     /tmp/ccvolr1Z.s:2296   .debug_str:000000000000002d .LASF83
     /tmp/ccvolr1Z.s:2338   .debug_str:000000000000015d .LASF17
     /tmp/ccvolr1Z.s:2462   .debug_str:00000000000004c9 .LASF19
     /tmp/ccvolr1Z.s:2442   .debug_str:000000000000042a .LASF21
     /tmp/ccvolr1Z.s:2360   .debug_str:00000000000001d0 .LASF23
     /tmp/ccvolr1Z.s:2406   .debug_str:0000000000000345 .LASF18
     /tmp/ccvolr1Z.s:2370   .debug_str:000000000000022f .LASF20
     /tmp/ccvolr1Z.s:2398   .debug_str:0000000000000315 .LASF22
     /tmp/ccvolr1Z.s:2304   .debug_str:000000000000004c .LASF24
     /tmp/ccvolr1Z.s:2388   .debug_str:00000000000002ca .LASF25
     /tmp/ccvolr1Z.s:2396   .debug_str:00000000000002f9 .LASF26
     /tmp/ccvolr1Z.s:2464   .debug_str:00000000000004d5 .LASF117
     /tmp/ccvolr1Z.s:2472   .debug_str:0000000000000500 .LASF43
     /tmp/ccvolr1Z.s:2414   .debug_str:0000000000000370 .LASF45
     /tmp/ccvolr1Z.s:2342   .debug_str:000000000000016b .LASF118
     /tmp/ccvolr1Z.s:2488   .debug_str:000000000000057e .LASF119
     /tmp/ccvolr1Z.s:2382   .debug_str:00000000000002b2 .LASF27
     /tmp/ccvolr1Z.s:2428   .debug_str:00000000000003c6 .LASF28
     /tmp/ccvolr1Z.s:2386   .debug_str:00000000000002c2 .LASF29
     /tmp/ccvolr1Z.s:2430   .debug_str:00000000000003cc .LASF30
     /tmp/ccvolr1Z.s:2380   .debug_str:00000000000002a9 .LASF31
     /tmp/ccvolr1Z.s:2400   .debug_str:0000000000000322 .LASF32
     /tmp/ccvolr1Z.s:2366   .debug_str:000000000000020b .LASF34
     /tmp/ccvolr1Z.s:2514   .debug_str:0000000000000657 .LASF120
     /tmp/ccvolr1Z.s:2372   .debug_str:0000000000000246 .LASF121
     /tmp/ccvolr1Z.s:2426   .debug_str:00000000000003bd .LASF33
     /tmp/ccvolr1Z.s:2348   .debug_str:000000000000018f .LASF35
     /tmp/ccvolr1Z.s:2480   .debug_str:0000000000000537 .LASF94
     /tmp/ccvolr1Z.s:2394   .debug_str:00000000000002ee .LASF36
     /tmp/ccvolr1Z.s:2368   .debug_str:0000000000000224 .LASF37
     /tmp/ccvolr1Z.s:2350   .debug_str:00000000000001a2 .LASF38
     /tmp/ccvolr1Z.s:2432   .debug_str:00000000000003d6 .LASF39
     /tmp/ccvolr1Z.s:2330   .debug_str:000000000000011e .LASF122
     /tmp/ccvolr1Z.s:2322   .debug_str:00000000000000e3 .LASF40
     /tmp/ccvolr1Z.s:2520   .debug_str:0000000000000713 .LASF41
     /tmp/ccvolr1Z.s:2308   .debug_str:000000000000006c .LASF42
     /tmp/ccvolr1Z.s:2468   .debug_str:00000000000004df .LASF44
     /tmp/ccvolr1Z.s:2528   .debug_str:0000000000000764 .LASF46
     /tmp/ccvolr1Z.s:2292   .debug_str:0000000000000018 .LASF48
     /tmp/ccvolr1Z.s:2490   .debug_str:000000000000058f .LASF50
     /tmp/ccvolr1Z.s:2340   .debug_str:0000000000000162 .LASF47
GAS LISTING /tmp/ccvolr1Z.s 			page 13


     /tmp/ccvolr1Z.s:2320   .debug_str:00000000000000ce .LASF53
     /tmp/ccvolr1Z.s:2482   .debug_str:0000000000000548 .LASF49
     /tmp/ccvolr1Z.s:2460   .debug_str:00000000000004b6 .LASF51
     /tmp/ccvolr1Z.s:2498   .debug_str:00000000000005e1 .LASF52
     /tmp/ccvolr1Z.s:2494   .debug_str:00000000000005bc .LASF54
     /tmp/ccvolr1Z.s:2354   .debug_str:00000000000001ba .LASF55
     /tmp/ccvolr1Z.s:2328   .debug_str:000000000000010a .LASF56
     /tmp/ccvolr1Z.s:2288   .debug_str:0000000000000000 .LASF57
     /tmp/ccvolr1Z.s:2484   .debug_str:000000000000054f .LASF58
     /tmp/ccvolr1Z.s:2344   .debug_str:0000000000000173 .LASF59
     /tmp/ccvolr1Z.s:2312   .debug_str:0000000000000088 .LASF60
     /tmp/ccvolr1Z.s:2532   .debug_str:0000000000000787 .LASF61
     /tmp/ccvolr1Z.s:2346   .debug_str:000000000000017b .LASF62
     /tmp/ccvolr1Z.s:2424   .debug_str:00000000000003b6 .LASF63
     /tmp/ccvolr1Z.s:2522   .debug_str:0000000000000720 .LASF64
     /tmp/ccvolr1Z.s:2302   .debug_str:0000000000000045 .LASF65
     /tmp/ccvolr1Z.s:2352   .debug_str:00000000000001a7 .LASF66
     /tmp/ccvolr1Z.s:2358   .debug_str:00000000000001ca .LASF67
     /tmp/ccvolr1Z.s:2496   .debug_str:00000000000005cf .LASF68
     /tmp/ccvolr1Z.s:2300   .debug_str:000000000000003f .LASF69
     /tmp/ccvolr1Z.s:2536   .debug_str:0000000000000794 .LASF70
     /tmp/ccvolr1Z.s:2530   .debug_str:000000000000077c .LASF71
     /tmp/ccvolr1Z.s:2474   .debug_str:0000000000000506 .LASF72
     /tmp/ccvolr1Z.s:2384   .debug_str:00000000000002b7 .LASF73
     /tmp/ccvolr1Z.s:2492   .debug_str:00000000000005a4 .LASF74
     /tmp/ccvolr1Z.s:2316   .debug_str:00000000000000b8 .LASF75
     /tmp/ccvolr1Z.s:2450   .debug_str:000000000000046c .LASF76
     /tmp/ccvolr1Z.s:2412   .debug_str:0000000000000366 .LASF77
     /tmp/ccvolr1Z.s:2364   .debug_str:00000000000001f5 .LASF78
     /tmp/ccvolr1Z.s:2332   .debug_str:000000000000012d .LASF79
     /tmp/ccvolr1Z.s:2314   .debug_str:000000000000009c .LASF80
     /tmp/ccvolr1Z.s:2510   .debug_str:0000000000000621 .LASF81
     /tmp/ccvolr1Z.s:2444   .debug_str:0000000000000435 .LASF82
     /tmp/ccvolr1Z.s:2504   .debug_str:00000000000005fc .LASF84
     /tmp/ccvolr1Z.s:2466   .debug_str:00000000000004da .LASF85
     /tmp/ccvolr1Z.s:2500   .debug_str:00000000000005e8 .LASF86
     /tmp/ccvolr1Z.s:2416   .debug_str:0000000000000380 .LASF87
     /tmp/ccvolr1Z.s:2410   .debug_str:000000000000035d .LASF88
     /tmp/ccvolr1Z.s:2524   .debug_str:0000000000000733 .LASF89
     /tmp/ccvolr1Z.s:2508   .debug_str:0000000000000617 .LASF90
     /tmp/ccvolr1Z.s:2512   .debug_str:0000000000000636 .LASF91
     /tmp/ccvolr1Z.s:2456   .debug_str:000000000000049d .LASF92
     /tmp/ccvolr1Z.s:2376   .debug_str:0000000000000275 .LASF93
     /tmp/ccvolr1Z.s:2446   .debug_str:0000000000000457 .LASF95
     /tmp/ccvolr1Z.s:2526   .debug_str:0000000000000753 .LASF96
     /tmp/ccvolr1Z.s:2448   .debug_str:0000000000000467 .LASF97
     /tmp/ccvolr1Z.s:27     .text:0000000000000000 .LFB22
     /tmp/ccvolr1Z.s:264    .text:000000000000019c .LFE22
     /tmp/ccvolr1Z.s:2356   .debug_str:00000000000001c2 .LASF98
     /tmp/ccvolr1Z.s:206    .text:000000000000013c .LBB30
     /tmp/ccvolr1Z.s:241    .text:0000000000000170 .LBE30
     /tmp/ccvolr1Z.s:2434   .debug_str:00000000000003dc .LASF99
     /tmp/ccvolr1Z.s:2212   .debug_loc:0000000000000000 .LLST5
     /tmp/ccvolr1Z.s:2518   .debug_str:0000000000000707 .LASF100
     /tmp/ccvolr1Z.s:2454   .debug_str:0000000000000491 .LASF123
     /tmp/ccvolr1Z.s:2223   .debug_loc:0000000000000036 .LLST6
     /tmp/ccvolr1Z.s:2392   .debug_str:00000000000002e4 .LASF101
GAS LISTING /tmp/ccvolr1Z.s 			page 14


     /tmp/ccvolr1Z.s:226    .text:000000000000015c .LBB31
     /tmp/ccvolr1Z.s:240    .text:0000000000000170 .LBE31
     /tmp/ccvolr1Z.s:2230   .debug_loc:0000000000000059 .LLST7
     /tmp/ccvolr1Z.s:235    .text:000000000000016c .LVL27
     /tmp/ccvolr1Z.s:210    .text:0000000000000148 .LVL23
     /tmp/ccvolr1Z.s:52     .text:0000000000000028 .LBB18
     /tmp/ccvolr1Z.s:64     .text:000000000000002c .LBE18
     /tmp/ccvolr1Z.s:126    .text:00000000000000f0 .LBB20
     /tmp/ccvolr1Z.s:141    .text:00000000000000fc .LBE20
     /tmp/ccvolr1Z.s:2237   .debug_loc:000000000000007c .LLST0
     /tmp/ccvolr1Z.s:152    .text:0000000000000108 .LBB22
     /tmp/ccvolr1Z.s:160    .text:000000000000010c .LBE22
     /tmp/ccvolr1Z.s:2245   .debug_loc:00000000000000a0 .LLST1
     /tmp/ccvolr1Z.s:166    .text:0000000000000114 .LBB24
     /tmp/ccvolr1Z.s:173    .text:0000000000000118 .LBE24
     /tmp/ccvolr1Z.s:2252   .debug_loc:00000000000000c3 .LLST2
     /tmp/ccvolr1Z.s:179    .text:0000000000000120 .LBB26
     /tmp/ccvolr1Z.s:186    .text:0000000000000124 .LBE26
     /tmp/ccvolr1Z.s:2259   .debug_loc:00000000000000e6 .LLST3
     /tmp/ccvolr1Z.s:192    .text:000000000000012c .LBB28
     /tmp/ccvolr1Z.s:199    .text:0000000000000130 .LBE28
     /tmp/ccvolr1Z.s:2266   .debug_loc:0000000000000109 .LLST4
     /tmp/ccvolr1Z.s:46     .text:0000000000000020 .LVL0
     /tmp/ccvolr1Z.s:71     .text:0000000000000040 .LVL3
     /tmp/ccvolr1Z.s:83     .text:0000000000000068 .LVL4
     /tmp/ccvolr1Z.s:88     .text:0000000000000078 .LVL5
     /tmp/ccvolr1Z.s:95     .text:0000000000000090 .LVL6
     /tmp/ccvolr1Z.s:100    .text:00000000000000a0 .LVL7
     /tmp/ccvolr1Z.s:107    .text:00000000000000b8 .LVL8
     /tmp/ccvolr1Z.s:112    .text:00000000000000c8 .LVL9
     /tmp/ccvolr1Z.s:119    .text:00000000000000e0 .LVL10
     /tmp/ccvolr1Z.s:124    .text:00000000000000f0 .LVL11
     /tmp/ccvolr1Z.s:145    .text:0000000000000104 .LVL13
     /tmp/ccvolr1Z.s:246    .text:0000000000000180 .LVL29
     /tmp/ccvolr1Z.s:2534   .debug_str:000000000000078f .LASF102
     /tmp/ccvolr1Z.s:2418   .debug_str:0000000000000390 .LASF103
     /tmp/ccvolr1Z.s:2324   .debug_str:00000000000000ef .LASF104
     /tmp/ccvolr1Z.s:2298   .debug_str:0000000000000035 .LASF105
     /tmp/ccvolr1Z.s:2408   .debug_str:0000000000000351 .LASF124
     /tmp/ccvolr1Z.s:2476   .debug_str:000000000000051e .LASF106
     /tmp/ccvolr1Z.s:2378   .debug_str:0000000000000296 .LASF108
     /tmp/ccvolr1Z.s:2402   .debug_str:0000000000000330 .LASF107
     /tmp/ccvolr1Z.s:2458   .debug_str:00000000000004a6 .LASF109
     /tmp/ccvolr1Z.s:2438   .debug_str:00000000000003f6 .LASF110
     /tmp/ccvolr1Z.s:2336   .debug_str:000000000000014f .LASF112
     /tmp/ccvolr1Z.s:2334   .debug_str:000000000000013c .LASF111
     /tmp/ccvolr1Z.s:2294   .debug_str:0000000000000021 .LASF113
     /tmp/ccvolr1Z.s:204    .text:000000000000013c .LVL22
     /tmp/ccvolr1Z.s:214    .text:000000000000014c .LVL24
     /tmp/ccvolr1Z.s:219    .text:0000000000000154 .LVL25
     /tmp/ccvolr1Z.s:237    .text:0000000000000170 .LVL28
     /tmp/ccvolr1Z.s:257    .text:0000000000000190 .LVL30
     /tmp/ccvolr1Z.s:225    .text:000000000000015c .LVL26
     /tmp/ccvolr1Z.s:138    .text:00000000000000fc .LVL12
     /tmp/ccvolr1Z.s:151    .text:0000000000000108 .LVL14
     /tmp/ccvolr1Z.s:158    .text:000000000000010c .LVL15
     /tmp/ccvolr1Z.s:165    .text:0000000000000114 .LVL16
GAS LISTING /tmp/ccvolr1Z.s 			page 15


     /tmp/ccvolr1Z.s:171    .text:0000000000000118 .LVL17
     /tmp/ccvolr1Z.s:178    .text:0000000000000120 .LVL18
     /tmp/ccvolr1Z.s:184    .text:0000000000000124 .LVL19
     /tmp/ccvolr1Z.s:191    .text:000000000000012c .LVL20
     /tmp/ccvolr1Z.s:197    .text:0000000000000130 .LVL21
     /tmp/ccvolr1Z.s:272    .debug_info:0000000000000000 .Ldebug_info0

UNDEFINED SYMBOLS
_ZN15MemoryAllocator8memAllocEv
_ZN5Riscv14supervisorTrapEv
_Z13thread_createPP3TCBPFvPvES2_
_ZN3TCB7runningE
_Z11workerBodyAPv
_Z11printStringPKc
_Z11workerBodyBPv
_Z11workerBodyCPv
_Z11workerBodyDPv
_ZN3TCB5yieldEv
_ZdlPv
_ZdaPv
