GAS LISTING /tmp/cc17T8u2.s 			page 1


   1              		.file	"print.cpp"
   2              		.option pic
   3              		.option norelax
   4              		.text
   5              	.Ltext0:
   6              		.align	2
   7              		.globl	_Z11printStringPKc
   9              	_Z11printStringPKc:
  10              	.LFB16:
  11              		.file 1 "src/print.cpp"
   1:src/print.cpp **** //
   2:src/print.cpp **** // Created by os on 4/26/22.
   3:src/print.cpp **** //
   4:src/print.cpp **** 
   5:src/print.cpp **** #include "../h/print.hpp"
   6:src/print.cpp **** #include "../lib/console.h"
   7:src/print.cpp **** #include "../h/riscv.hpp"
   8:src/print.cpp **** 
   9:src/print.cpp **** 
  10:src/print.cpp **** void printString(char const *string)
  11:src/print.cpp **** {
  12              		.loc 1 11 1
  13              		.cfi_startproc
  14              	.LVL0:
  15 0000 130101FD 		addi	sp,sp,-48
  16              		.cfi_def_cfa_offset 48
  17 0004 23341102 		sd	ra,40(sp)
  18 0008 23308102 		sd	s0,32(sp)
  19 000c 233C9100 		sd	s1,24(sp)
  20 0010 23382101 		sd	s2,16(sp)
  21              		.cfi_offset 1, -8
  22              		.cfi_offset 8, -16
  23              		.cfi_offset 9, -24
  24              		.cfi_offset 18, -32
  25 0014 13040103 		addi	s0,sp,48
  26              		.cfi_def_cfa 8, 0
  27 0018 93040500 		mv	s1,a0
  12:src/print.cpp ****     uint64 sstatus = Riscv::r_sstatus();
  28              		.loc 1 12 5
  29              	.LBB8:
  30              	.LBB9:
  31              		.file 2 "src/../h/riscv.hpp"
   1:src/../h/riscv.hpp **** //
   2:src/../h/riscv.hpp **** // Created by os on 4/26/22.
   3:src/../h/riscv.hpp **** //
   4:src/../h/riscv.hpp **** 
   5:src/../h/riscv.hpp **** #ifndef PROJECT_BASE_V1_0_RISCV_HPP
   6:src/../h/riscv.hpp **** #define PROJECT_BASE_V1_0_RISCV_HPP
   7:src/../h/riscv.hpp **** 
   8:src/../h/riscv.hpp **** #include "../lib/hw.h"
   9:src/../h/riscv.hpp **** 
  10:src/../h/riscv.hpp **** class Riscv{
  11:src/../h/riscv.hpp **** public:
  12:src/../h/riscv.hpp **** 
  13:src/../h/riscv.hpp ****     static void popSppSpie();
  14:src/../h/riscv.hpp **** 
  15:src/../h/riscv.hpp ****     //read
GAS LISTING /tmp/cc17T8u2.s 			page 2


  16:src/../h/riscv.hpp ****     static uint64 r_scause();
  17:src/../h/riscv.hpp **** 
  18:src/../h/riscv.hpp ****     //write
  19:src/../h/riscv.hpp ****     static void w_scause(uint64 scause);
  20:src/../h/riscv.hpp **** 
  21:src/../h/riscv.hpp ****     static uint64 r_sepc();
  22:src/../h/riscv.hpp **** 
  23:src/../h/riscv.hpp ****     static void w_sepc(uint64 sepc);
  24:src/../h/riscv.hpp **** 
  25:src/../h/riscv.hpp ****     static uint64 r_stvec();
  26:src/../h/riscv.hpp **** 
  27:src/../h/riscv.hpp ****     static void w_stvec(uint64 stvec);
  28:src/../h/riscv.hpp **** 
  29:src/../h/riscv.hpp ****     static uint64 r_stval();
  30:src/../h/riscv.hpp **** 
  31:src/../h/riscv.hpp ****     static void w_stval(uint64 stval);
  32:src/../h/riscv.hpp **** 
  33:src/../h/riscv.hpp ****     enum BitMaskSip{
  34:src/../h/riscv.hpp ****         SIP_SSIP = (1 << 1),
  35:src/../h/riscv.hpp ****         SIP_STIP = (1 << 5),
  36:src/../h/riscv.hpp ****         SIP_SEIP = (1 << 9),
  37:src/../h/riscv.hpp ****     };
  38:src/../h/riscv.hpp ****     // mask set
  39:src/../h/riscv.hpp ****     static void ms_sip(uint64 mask);
  40:src/../h/riscv.hpp ****     // mask clear
  41:src/../h/riscv.hpp ****     static void mc_sip(uint64 mask);
  42:src/../h/riscv.hpp **** 
  43:src/../h/riscv.hpp ****     static uint64 r_sip();
  44:src/../h/riscv.hpp **** 
  45:src/../h/riscv.hpp ****     static void w_sip(uint64 sip);
  46:src/../h/riscv.hpp **** 
  47:src/../h/riscv.hpp ****     enum BitMaskSstatus{
  48:src/../h/riscv.hpp ****         SSTATUS_SIE = (1 << 1),
  49:src/../h/riscv.hpp ****         SSTATUS_SPIE = (1 << 5),
  50:src/../h/riscv.hpp ****         SSTATUS_SPP = (1 << 8),
  51:src/../h/riscv.hpp ****     };
  52:src/../h/riscv.hpp **** 
  53:src/../h/riscv.hpp ****     static void ms_sstatus(uint64 mask);
  54:src/../h/riscv.hpp **** 
  55:src/../h/riscv.hpp ****     static void mc_sstatus(uint64 mask);
  56:src/../h/riscv.hpp **** 
  57:src/../h/riscv.hpp ****     static uint64 r_sstatus();
  58:src/../h/riscv.hpp **** 
  59:src/../h/riscv.hpp ****     static void w_sstatus(uint64 sstatus);
  60:src/../h/riscv.hpp **** 
  61:src/../h/riscv.hpp ****     static void supervisorTrap();
  62:src/../h/riscv.hpp **** 
  63:src/../h/riscv.hpp **** private:
  64:src/../h/riscv.hpp ****     static void handleSupervisorTrap();
  65:src/../h/riscv.hpp **** };
  66:src/../h/riscv.hpp **** 
  67:src/../h/riscv.hpp **** inline uint64 Riscv::r_scause() {
  68:src/../h/riscv.hpp ****     uint64 volatile scause;
  69:src/../h/riscv.hpp ****     __asm__ volatile ("csrr %[scause], scause" : [scause] "=r"(scause));
  70:src/../h/riscv.hpp ****     return scause;
  71:src/../h/riscv.hpp **** }
  72:src/../h/riscv.hpp **** 
GAS LISTING /tmp/cc17T8u2.s 			page 3


  73:src/../h/riscv.hpp **** inline void Riscv::w_scause(uint64 scause) {
  74:src/../h/riscv.hpp ****     __asm__ volatile ("csrw scause, %[scause]" : : [scause] "r"(scause));
  75:src/../h/riscv.hpp **** }
  76:src/../h/riscv.hpp **** 
  77:src/../h/riscv.hpp **** inline uint64 Riscv::r_sepc() {
  78:src/../h/riscv.hpp ****     uint64 volatile sepc;
  79:src/../h/riscv.hpp ****     __asm__ volatile ("csrr %[sepc], sepc" : [sepc] "=r"(sepc));
  80:src/../h/riscv.hpp ****     return sepc;
  81:src/../h/riscv.hpp **** }
  82:src/../h/riscv.hpp **** 
  83:src/../h/riscv.hpp **** inline void Riscv::w_sepc(uint64 sepc) {
  84:src/../h/riscv.hpp ****     __asm__ volatile ("csrw sepc, %[sepc]" : : [sepc] "r"(sepc));
  85:src/../h/riscv.hpp **** }
  86:src/../h/riscv.hpp **** 
  87:src/../h/riscv.hpp **** inline uint64 Riscv::r_stvec() {
  88:src/../h/riscv.hpp ****     uint64 volatile stvec;
  89:src/../h/riscv.hpp ****     __asm__ volatile ("csrr %[stvec], stvec" : [stvec] "=r"(stvec));
  90:src/../h/riscv.hpp ****     return stvec;
  91:src/../h/riscv.hpp **** }
  92:src/../h/riscv.hpp **** 
  93:src/../h/riscv.hpp **** inline void Riscv::w_stvec(uint64 stvec) {
  94:src/../h/riscv.hpp ****     __asm__ volatile ("csrw stvec, %[stvec]" : : [stvec] "r"(stvec));
  95:src/../h/riscv.hpp **** }
  96:src/../h/riscv.hpp **** 
  97:src/../h/riscv.hpp **** inline uint64 Riscv::r_stval() {
  98:src/../h/riscv.hpp ****     uint64 volatile stval;
  99:src/../h/riscv.hpp ****     __asm__ volatile ("csrr %[stval], stval" : [stval] "=r"(stval));
 100:src/../h/riscv.hpp ****     return stval;
 101:src/../h/riscv.hpp **** }
 102:src/../h/riscv.hpp **** 
 103:src/../h/riscv.hpp **** inline void Riscv::w_stval(uint64 stval) {
 104:src/../h/riscv.hpp ****     __asm__ volatile ("csrw stval, %[stval]" : : [stval] "r"(stval));
 105:src/../h/riscv.hpp **** }
 106:src/../h/riscv.hpp **** 
 107:src/../h/riscv.hpp **** inline void Riscv::ms_sip(uint64 mask) {
 108:src/../h/riscv.hpp ****     __asm__ volatile ("csrs sip, %[mask]" : : [mask] "r"(mask));
 109:src/../h/riscv.hpp **** }
 110:src/../h/riscv.hpp **** 
 111:src/../h/riscv.hpp **** inline void Riscv::mc_sip(uint64 mask) {
 112:src/../h/riscv.hpp ****     __asm__ volatile ("csrc sip, %[mask]" : : [mask] "r"(mask));
 113:src/../h/riscv.hpp **** }
 114:src/../h/riscv.hpp **** 
 115:src/../h/riscv.hpp **** inline uint64 Riscv::r_sip() {
 116:src/../h/riscv.hpp ****     uint64 volatile sip;
 117:src/../h/riscv.hpp ****     __asm__ volatile ("csrr %[sip], sip" : [sip] "=r"(sip));
 118:src/../h/riscv.hpp ****     return sip;
 119:src/../h/riscv.hpp **** }
 120:src/../h/riscv.hpp **** 
 121:src/../h/riscv.hpp **** inline void Riscv::w_sip(uint64 sip) {
 122:src/../h/riscv.hpp ****     __asm__ volatile ("csrw sip, %[sip]" : : [sip] "r"(sip));
 123:src/../h/riscv.hpp **** }
 124:src/../h/riscv.hpp **** 
 125:src/../h/riscv.hpp **** inline void Riscv::ms_sstatus(uint64 mask) {
 126:src/../h/riscv.hpp ****     __asm__ volatile ("csrs sstatus, %[mask]" : : [mask] "r"(mask));
 127:src/../h/riscv.hpp **** }
 128:src/../h/riscv.hpp **** 
 129:src/../h/riscv.hpp **** inline void Riscv::mc_sstatus(uint64 mask) {
GAS LISTING /tmp/cc17T8u2.s 			page 4


 130:src/../h/riscv.hpp ****     __asm__ volatile ("csrc sstatus, %[mask]" : : [mask] "r"(mask));
 131:src/../h/riscv.hpp **** }
 132:src/../h/riscv.hpp **** 
 133:src/../h/riscv.hpp **** inline uint64 Riscv::r_sstatus() {
 134:src/../h/riscv.hpp ****     uint64 volatile sstatus;
  32              		.loc 2 134 5
 135:src/../h/riscv.hpp ****     __asm__ volatile ("csrr %[sstatus], sstatus" : [sstatus] "=r"(sstatus));
  33              		.loc 2 135 5
  34              		.loc 2 135 76 is_stmt 0
  35              	#APP
  36              	# 135 "src/../h/riscv.hpp" 1
 136              	    return sstatus;
  37              		csrr a5, sstatus
  38              	# 0 "" 2
  39              	#NO_APP
  40 0020 233CF4FC 		sd	a5,-40(s0)
  41              		.loc 2 136 5 is_stmt 1
  42              		.loc 2 136 12 is_stmt 0
  43 0024 033984FD 		ld	s2,-40(s0)
  44              	.LVL1:
  45              	.LBE9:
  46              	.LBE8:
  13:src/print.cpp ****     Riscv::mc_sstatus(Riscv::SSTATUS_SIE);
  47              		.loc 1 13 5 is_stmt 1
  48              	.LBB10:
  49              	.LBB11:
 130:src/../h/riscv.hpp **** }
  50              		.loc 2 130 5
 130:src/../h/riscv.hpp **** }
  51              		.loc 2 130 68 is_stmt 0
  52 0028 93072000 		li	a5,2
  53              	#APP
  54              	# 130 "src/../h/riscv.hpp" 1
  55              		csrc sstatus, a5
  56              	# 0 "" 2
  57              	.LVL2:
  58              	#NO_APP
  59              	.L3:
  60              	.LBE11:
  61              	.LBE10:
  14:src/print.cpp ****     while (*string != '\0')
  62              		.loc 1 14 5 is_stmt 1
  63              		.loc 1 14 20
  64              		.loc 1 14 12 is_stmt 0
  65 0030 03C50400 		lbu	a0,0(s1)
  66              		.loc 1 14 20
  67 0034 630A0500 		beqz	a0,.L2
  15:src/print.cpp ****     {
  16:src/print.cpp ****         __putc(*string);
  68              		.loc 1 16 9 is_stmt 1
  69              		.loc 1 16 15 is_stmt 0
  70 0038 97000000 		call	__putc@plt
  70      E7800000 
  71              	.LVL3:
  17:src/print.cpp ****         string++;
  72              		.loc 1 17 9 is_stmt 1
  73              		.loc 1 17 15 is_stmt 0
GAS LISTING /tmp/cc17T8u2.s 			page 5


  74 0040 93841400 		addi	s1,s1,1
  75              	.LVL4:
  14:src/print.cpp ****     while (*string != '\0')
  76              		.loc 1 14 5
  77 0044 6FF0DFFE 		j	.L3
  78              	.L2:
  18:src/print.cpp ****     }
  19:src/print.cpp ****     Riscv::ms_sstatus(sstatus & Riscv::SSTATUS_SIE ? Riscv::SSTATUS_SIE : 0);
  79              		.loc 1 19 5 is_stmt 1
  80              		.loc 1 19 52 is_stmt 0
  81 0048 1B090900 		sext.w	s2,s2
  82              	.LVL5:
  83              		.loc 1 19 22
  84 004c 13792900 		andi	s2,s2,2
  85 0050 1B090900 		sext.w	s2,s2
  86              	.LVL6:
  87              	.LBB12:
  88              	.LBB13:
 126:src/../h/riscv.hpp **** }
  89              		.loc 2 126 5 is_stmt 1
 126:src/../h/riscv.hpp **** }
  90              		.loc 2 126 68 is_stmt 0
  91              	#APP
  92              	# 126 "src/../h/riscv.hpp" 1
  93              		csrs sstatus, s2
  94              	# 0 "" 2
  95              	.LVL7:
  96              	#NO_APP
  97              	.LBE13:
  98              	.LBE12:
  20:src/print.cpp **** }
  99              		.loc 1 20 1
 100 0058 83308102 		ld	ra,40(sp)
 101              		.cfi_restore 1
 102 005c 03340102 		ld	s0,32(sp)
 103              		.cfi_restore 8
 104              		.cfi_def_cfa 2, 48
 105 0060 83348101 		ld	s1,24(sp)
 106              		.cfi_restore 9
 107              	.LVL8:
 108 0064 03390101 		ld	s2,16(sp)
 109              		.cfi_restore 18
 110 0068 13010103 		addi	sp,sp,48
 111              		.cfi_def_cfa_offset 0
 112 006c 67800000 		jr	ra
 113              		.cfi_endproc
 114              	.LFE16:
 116              		.align	2
 117              		.globl	_Z12printIntegerm
 119              	_Z12printIntegerm:
 120              	.LFB17:
  21:src/print.cpp **** 
  22:src/print.cpp **** 
  23:src/print.cpp **** void printInteger(uint64 integer){
 121              		.loc 1 23 34 is_stmt 1
 122              		.cfi_startproc
 123              	.LVL9:
GAS LISTING /tmp/cc17T8u2.s 			page 6


 124 0070 130101FD 		addi	sp,sp,-48
 125              		.cfi_def_cfa_offset 48
 126 0074 23341102 		sd	ra,40(sp)
 127 0078 23308102 		sd	s0,32(sp)
 128 007c 233C9100 		sd	s1,24(sp)
 129              		.cfi_offset 1, -8
 130              		.cfi_offset 8, -16
 131              		.cfi_offset 9, -24
 132 0080 13040103 		addi	s0,sp,48
 133              		.cfi_def_cfa 8, 0
  24:src/print.cpp ****     static char digits[] = "0123456789";
 134              		.loc 1 24 5
  25:src/print.cpp ****     char buf[16];
 135              		.loc 1 25 5
  26:src/print.cpp ****     int i, neg;
 136              		.loc 1 26 5
  27:src/print.cpp ****     uint x;
 137              		.loc 1 27 5
  28:src/print.cpp **** 
  29:src/print.cpp ****     neg = 0;
 138              		.loc 1 29 5
 139              	.LVL10:
  30:src/print.cpp ****     if(integer < 0){
 140              		.loc 1 30 5
  31:src/print.cpp ****         neg = 1;
  32:src/print.cpp ****         x = -integer;
  33:src/print.cpp ****     }else{
  34:src/print.cpp ****         x = integer;
 141              		.loc 1 34 9
 142              		.loc 1 34 11 is_stmt 0
 143 0084 1B050500 		sext.w	a0,a0
 144              	.LVL11:
  35:src/print.cpp ****     }
  36:src/print.cpp **** 
  37:src/print.cpp ****     i = 0;
 145              		.loc 1 37 5 is_stmt 1
 146              		.loc 1 37 7 is_stmt 0
 147 0088 93040000 		li	s1,0
 148              	.LVL12:
 149              	.L6:
  38:src/print.cpp ****     do{
 150              		.loc 1 38 5 is_stmt 1
  39:src/print.cpp ****         buf[i++] = digits[x%10];
 151              		.loc 1 39 9
 152              		.loc 1 39 28 is_stmt 0
 153 008c 1306A000 		li	a2,10
 154 0090 3B77C502 		remuw	a4,a0,a2
 155              	.LVL13:
 156              		.loc 1 39 31
 157 0094 93160702 		slli	a3,a4,32
 158 0098 93D60602 		srli	a3,a3,32
 159 009c 17070000 		lla	a4,.LANCHOR0
 159      13070700 
 160 00a4 3307D700 		add	a4,a4,a3
 161 00a8 03470700 		lbu	a4,0(a4)
 162              		.loc 1 39 18
 163 00ac 930604FE 		addi	a3,s0,-32
GAS LISTING /tmp/cc17T8u2.s 			page 7


 164 00b0 B3879600 		add	a5,a3,s1
 165 00b4 9B841400 		addiw	s1,s1,1
 166              	.LVL14:
 167 00b8 2388E7FE 		sb	a4,-16(a5)
  40:src/print.cpp ****     }while((x /= 10) != 0);
 168              		.loc 1 40 22 is_stmt 1
 169 00bc 1B070500 		sext.w	a4,a0
 170              		.loc 1 40 15 is_stmt 0
 171 00c0 3B55C502 		divuw	a0,a0,a2
 172              	.LVL15:
 173              		.loc 1 40 22
 174 00c4 93079000 		li	a5,9
 175 00c8 E3E2E7FC 		bgtu	a4,a5,.L6
 176              	.LVL16:
 177              	.L8:
  41:src/print.cpp ****     if(neg){
  42:src/print.cpp ****         buf[i++] = '-';
  43:src/print.cpp ****     }
  44:src/print.cpp ****     while(--i >= 0)
 178              		.loc 1 44 5 is_stmt 1
 179              		.loc 1 44 15
 180 00cc 9B84F4FF 		addiw	s1,s1,-1
 181              	.LVL17:
 182 00d0 63CE0400 		bltz	s1,.L5
  45:src/print.cpp ****         __putc(buf[i]);
 183              		.loc 1 45 9
 184              		.loc 1 45 15 is_stmt 0
 185 00d4 930704FE 		addi	a5,s0,-32
 186 00d8 B3879700 		add	a5,a5,s1
 187 00dc 03C507FF 		lbu	a0,-16(a5)
 188 00e0 97000000 		call	__putc@plt
 188      E7800000 
 189              	.LVL18:
 190 00e8 6FF05FFE 		j	.L8
 191              	.L5:
  46:src/print.cpp **** }...
 192              		.loc 1 46 1
 193 00ec 83308102 		ld	ra,40(sp)
 194              		.cfi_restore 1
 195 00f0 03340102 		ld	s0,32(sp)
 196              		.cfi_restore 8
 197              		.cfi_def_cfa 2, 48
 198 00f4 83348101 		ld	s1,24(sp)
 199              		.cfi_restore 9
 200 00f8 13010103 		addi	sp,sp,48
 201              		.cfi_def_cfa_offset 0
 202 00fc 67800000 		jr	ra
 203              		.cfi_endproc
 204              	.LFE17:
 206              		.section	.rodata
 207              		.align	3
 208              		.set	.LANCHOR0,. + 0
 211              	_ZZ12printIntegermE6digits:
 212 0000 30313233 		.string	"0123456789"
 212      34353637 
 212      383900
 213              		.text
GAS LISTING /tmp/cc17T8u2.s 			page 8


 214              	.Letext0:
 215              		.file 3 "src/../h/../lib/hw.h"
 216              		.file 4 "src/../lib/console.h"
GAS LISTING /tmp/cc17T8u2.s 			page 9


DEFINED SYMBOLS
                            *ABS*:0000000000000000 print.cpp
     /tmp/cc17T8u2.s:9      .text:0000000000000000 _Z11printStringPKc
     /tmp/cc17T8u2.s:13     .text:0000000000000000 .L0 
     /tmp/cc17T8u2.s:15     .text:0000000000000000 .L0 
     /tmp/cc17T8u2.s:16     .text:0000000000000004 .L0 
     /tmp/cc17T8u2.s:21     .text:0000000000000014 .L0 
     /tmp/cc17T8u2.s:22     .text:0000000000000014 .L0 
     /tmp/cc17T8u2.s:23     .text:0000000000000014 .L0 
     /tmp/cc17T8u2.s:24     .text:0000000000000014 .L0 
     /tmp/cc17T8u2.s:26     .text:0000000000000018 .L0 
     /tmp/cc17T8u2.s:32     .text:000000000000001c .L0 
     /tmp/cc17T8u2.s:33     .text:000000000000001c .L0 
     /tmp/cc17T8u2.s:34     .text:000000000000001c .L0 
  src/../h/riscv.hpp:135    .text:000000000000001c .L0 
     /tmp/cc17T8u2.s:42     .text:0000000000000024 .L0 
     /tmp/cc17T8u2.s:43     .text:0000000000000024 .L0 
     /tmp/cc17T8u2.s:50     .text:0000000000000028 .L0 
     /tmp/cc17T8u2.s:51     .text:0000000000000028 .L0 
     /tmp/cc17T8u2.s:52     .text:0000000000000028 .L0 
     /tmp/cc17T8u2.s:63     .text:0000000000000030 .L0 
     /tmp/cc17T8u2.s:64     .text:0000000000000030 .L0 
     /tmp/cc17T8u2.s:65     .text:0000000000000030 .L0 
     /tmp/cc17T8u2.s:67     .text:0000000000000034 .L0 
     /tmp/cc17T8u2.s:69     .text:0000000000000038 .L0 
     /tmp/cc17T8u2.s:70     .text:0000000000000038 .L0 
     /tmp/cc17T8u2.s:73     .text:0000000000000040 .L0 
     /tmp/cc17T8u2.s:74     .text:0000000000000040 .L0 
     /tmp/cc17T8u2.s:77     .text:0000000000000044 .L0 
     /tmp/cc17T8u2.s:80     .text:0000000000000048 .L0 
     /tmp/cc17T8u2.s:81     .text:0000000000000048 .L0 
     /tmp/cc17T8u2.s:84     .text:000000000000004c .L0 
     /tmp/cc17T8u2.s:90     .text:0000000000000054 .L0 
  src/../h/riscv.hpp:126    .text:0000000000000054 .L0 
     /tmp/cc17T8u2.s:100    .text:0000000000000058 .L0 
     /tmp/cc17T8u2.s:101    .text:000000000000005c .L0 
     /tmp/cc17T8u2.s:103    .text:0000000000000060 .L0 
     /tmp/cc17T8u2.s:104    .text:0000000000000060 .L0 
     /tmp/cc17T8u2.s:106    .text:0000000000000064 .L0 
     /tmp/cc17T8u2.s:109    .text:0000000000000068 .L0 
     /tmp/cc17T8u2.s:111    .text:000000000000006c .L0 
     /tmp/cc17T8u2.s:113    .text:0000000000000070 .L0 
     /tmp/cc17T8u2.s:119    .text:0000000000000070 _Z12printIntegerm
     /tmp/cc17T8u2.s:122    .text:0000000000000070 .L0 
     /tmp/cc17T8u2.s:124    .text:0000000000000070 .L0 
     /tmp/cc17T8u2.s:125    .text:0000000000000074 .L0 
     /tmp/cc17T8u2.s:129    .text:0000000000000080 .L0 
     /tmp/cc17T8u2.s:130    .text:0000000000000080 .L0 
     /tmp/cc17T8u2.s:131    .text:0000000000000080 .L0 
     /tmp/cc17T8u2.s:133    .text:0000000000000084 .L0 
     /tmp/cc17T8u2.s:135    .text:0000000000000084 .L0 
     /tmp/cc17T8u2.s:136    .text:0000000000000084 .L0 
     /tmp/cc17T8u2.s:137    .text:0000000000000084 .L0 
     /tmp/cc17T8u2.s:138    .text:0000000000000084 .L0 
     /tmp/cc17T8u2.s:140    .text:0000000000000084 .L0 
     /tmp/cc17T8u2.s:141    .text:0000000000000084 .L0 
     /tmp/cc17T8u2.s:142    .text:0000000000000084 .L0 
GAS LISTING /tmp/cc17T8u2.s 			page 10


     /tmp/cc17T8u2.s:143    .text:0000000000000084 .L0 
     /tmp/cc17T8u2.s:146    .text:0000000000000088 .L0 
     /tmp/cc17T8u2.s:147    .text:0000000000000088 .L0 
     /tmp/cc17T8u2.s:151    .text:000000000000008c .L0 
     /tmp/cc17T8u2.s:152    .text:000000000000008c .L0 
     /tmp/cc17T8u2.s:153    .text:000000000000008c .L0 
     /tmp/cc17T8u2.s:157    .text:0000000000000094 .L0 
     /tmp/cc17T8u2.s:163    .text:00000000000000ac .L0 
     /tmp/cc17T8u2.s:169    .text:00000000000000bc .L0 
     /tmp/cc17T8u2.s:171    .text:00000000000000c0 .L0 
     /tmp/cc17T8u2.s:174    .text:00000000000000c4 .L0 
     /tmp/cc17T8u2.s:179    .text:00000000000000cc .L0 
     /tmp/cc17T8u2.s:180    .text:00000000000000cc .L0 
     /tmp/cc17T8u2.s:184    .text:00000000000000d4 .L0 
     /tmp/cc17T8u2.s:185    .text:00000000000000d4 .L0 
     /tmp/cc17T8u2.s:193    .text:00000000000000ec .L0 
     /tmp/cc17T8u2.s:194    .text:00000000000000f0 .L0 
     /tmp/cc17T8u2.s:196    .text:00000000000000f4 .L0 
     /tmp/cc17T8u2.s:197    .text:00000000000000f4 .L0 
     /tmp/cc17T8u2.s:199    .text:00000000000000f8 .L0 
     /tmp/cc17T8u2.s:201    .text:00000000000000fc .L0 
     /tmp/cc17T8u2.s:203    .text:0000000000000100 .L0 
     /tmp/cc17T8u2.s:208    .rodata:0000000000000000 .LANCHOR0
     /tmp/cc17T8u2.s:211    .rodata:0000000000000000 _ZZ12printIntegermE6digits
     /tmp/cc17T8u2.s:217    .text:0000000000000100 .L0 
     /tmp/cc17T8u2.s:159    .text:000000000000009c .L0 
     /tmp/cc17T8u2.s:78     .text:0000000000000048 .L2
     /tmp/cc17T8u2.s:59     .text:0000000000000030 .L3
     /tmp/cc17T8u2.s:149    .text:000000000000008c .L6
     /tmp/cc17T8u2.s:191    .text:00000000000000ec .L5
     /tmp/cc17T8u2.s:177    .text:00000000000000cc .L8
     /tmp/cc17T8u2.s:770    .debug_abbrev:0000000000000000 .Ldebug_abbrev0
     /tmp/cc17T8u2.s:1513   .debug_str:00000000000001d0 .LASF67
     /tmp/cc17T8u2.s:1477   .debug_str:00000000000000d5 .LASF68
     /tmp/cc17T8u2.s:1487   .debug_str:0000000000000117 .LASF69
     /tmp/cc17T8u2.s:5      .text:0000000000000000 .Ltext0
     /tmp/cc17T8u2.s:214    .text:0000000000000100 .Letext0
     /tmp/cc17T8u2.s:1441   .debug_line:0000000000000000 .Ldebug_line0
     /tmp/cc17T8u2.s:1527   .debug_str:00000000000002e9 .LASF0
     /tmp/cc17T8u2.s:1521   .debug_str:00000000000002b0 .LASF3
     /tmp/cc17T8u2.s:1501   .debug_str:000000000000018a .LASF1
     /tmp/cc17T8u2.s:1491   .debug_str:0000000000000147 .LASF2
     /tmp/cc17T8u2.s:1465   .debug_str:0000000000000085 .LASF4
     /tmp/cc17T8u2.s:1497   .debug_str:0000000000000170 .LASF5
     /tmp/cc17T8u2.s:1451   .debug_str:0000000000000035 .LASF6
     /tmp/cc17T8u2.s:1447   .debug_str:000000000000001b .LASF7
     /tmp/cc17T8u2.s:1483   .debug_str:00000000000000f1 .LASF8
     /tmp/cc17T8u2.s:1541   .debug_str:0000000000000338 .LASF9
     /tmp/cc17T8u2.s:1461   .debug_str:0000000000000072 .LASF10
     /tmp/cc17T8u2.s:1591   .debug_str:00000000000004e1 .LASF11
     /tmp/cc17T8u2.s:1537   .debug_str:000000000000031d .LASF12
     /tmp/cc17T8u2.s:1577   .debug_str:000000000000047b .LASF13
     /tmp/cc17T8u2.s:1555   .debug_str:00000000000003c6 .LASF14
     /tmp/cc17T8u2.s:1503   .debug_str:000000000000019d .LASF15
     /tmp/cc17T8u2.s:1473   .debug_str:00000000000000b9 .LASF16
     /tmp/cc17T8u2.s:1547   .debug_str:000000000000036e .LASF17
     /tmp/cc17T8u2.s:1475   .debug_str:00000000000000cf .LASF70
GAS LISTING /tmp/cc17T8u2.s 			page 11


     /tmp/cc17T8u2.s:1579   .debug_str:000000000000048b .LASF71
     /tmp/cc17T8u2.s:1539   .debug_str:000000000000032c .LASF18
     /tmp/cc17T8u2.s:1507   .debug_str:00000000000001b1 .LASF19
     /tmp/cc17T8u2.s:1563   .debug_str:0000000000000422 .LASF20
     /tmp/cc17T8u2.s:1509   .debug_str:00000000000001be .LASF53
     /tmp/cc17T8u2.s:1567   .debug_str:0000000000000439 .LASF55
     /tmp/cc17T8u2.s:1515   .debug_str:0000000000000294 .LASF21
     /tmp/cc17T8u2.s:1453   .debug_str:000000000000003c .LASF23
     /tmp/cc17T8u2.s:1517   .debug_str:000000000000029d .LASF25
     /tmp/cc17T8u2.s:1467   .debug_str:000000000000008c .LASF27
     /tmp/cc17T8u2.s:1531   .debug_str:00000000000002fe .LASF22
     /tmp/cc17T8u2.s:1495   .debug_str:000000000000015d .LASF24
     /tmp/cc17T8u2.s:1481   .debug_str:00000000000000ea .LASF26
     /tmp/cc17T8u2.s:1485   .debug_str:0000000000000104 .LASF28
     /tmp/cc17T8u2.s:1529   .debug_str:00000000000002f6 .LASF29
     /tmp/cc17T8u2.s:1561   .debug_str:000000000000040e .LASF30
     /tmp/cc17T8u2.s:1499   .debug_str:0000000000000182 .LASF31
     /tmp/cc17T8u2.s:1545   .debug_str:000000000000035a .LASF32
     /tmp/cc17T8u2.s:1569   .debug_str:0000000000000451 .LASF33
     /tmp/cc17T8u2.s:1457   .debug_str:0000000000000058 .LASF34
     /tmp/cc17T8u2.s:1493   .debug_str:0000000000000155 .LASF35
     /tmp/cc17T8u2.s:1553   .debug_str:00000000000003b2 .LASF36
     /tmp/cc17T8u2.s:1585   .debug_str:00000000000004bf .LASF37
     /tmp/cc17T8u2.s:1443   .debug_str:0000000000000000 .LASF38
     /tmp/cc17T8u2.s:1455   .debug_str:0000000000000051 .LASF39
     /tmp/cc17T8u2.s:1535   .debug_str:000000000000030a .LASF40
     /tmp/cc17T8u2.s:1575   .debug_str:0000000000000475 .LASF41
     /tmp/cc17T8u2.s:1543   .debug_str:0000000000000348 .LASF42
     /tmp/cc17T8u2.s:1459   .debug_str:000000000000006c .LASF43
     /tmp/cc17T8u2.s:1573   .debug_str:0000000000000463 .LASF44
     /tmp/cc17T8u2.s:1565   .debug_str:000000000000042e .LASF45
     /tmp/cc17T8u2.s:1523   .debug_str:00000000000002b5 .LASF46
     /tmp/cc17T8u2.s:1469   .debug_str:00000000000000a1 .LASF47
     /tmp/cc17T8u2.s:1549   .debug_str:0000000000000384 .LASF48
     /tmp/cc17T8u2.s:1519   .debug_str:00000000000002a6 .LASF49
     /tmp/cc17T8u2.s:1551   .debug_str:000000000000039c .LASF50
     /tmp/cc17T8u2.s:1571   .debug_str:0000000000000459 .LASF51
     /tmp/cc17T8u2.s:1559   .debug_str:00000000000003f8 .LASF52
     /tmp/cc17T8u2.s:1587   .debug_str:00000000000004c6 .LASF54
     /tmp/cc17T8u2.s:1525   .debug_str:00000000000002cd .LASF56
     /tmp/cc17T8u2.s:1489   .debug_str:0000000000000132 .LASF72
     /tmp/cc17T8u2.s:1557   .debug_str:00000000000003d6 .LASF73
     /tmp/cc17T8u2.s:1471   .debug_str:00000000000000ac .LASF59
     /tmp/cc17T8u2.s:1583   .debug_str:00000000000004ad .LASF61
     /tmp/cc17T8u2.s:120    .text:0000000000000070 .LFB17
     /tmp/cc17T8u2.s:204    .text:0000000000000100 .LFE17
     /tmp/cc17T8u2.s:1505   .debug_str:00000000000001a9 .LASF63
     /tmp/cc17T8u2.s:1337   .debug_loc:0000000000000000 .LLST4
     /tmp/cc17T8u2.s:1449   .debug_str:000000000000002e .LASF57
     /tmp/cc17T8u2.s:1351   .debug_loc:0000000000000039 .LLST5
     /tmp/cc17T8u2.s:1373   .debug_loc:0000000000000098 .LLST6
     /tmp/cc17T8u2.s:189    .text:00000000000000e8 .LVL18
     /tmp/cc17T8u2.s:1533   .debug_str:0000000000000305 .LASF58
     /tmp/cc17T8u2.s:1589   .debug_str:00000000000004d5 .LASF60
     /tmp/cc17T8u2.s:1581   .debug_str:000000000000049a .LASF62
     /tmp/cc17T8u2.s:10     .text:0000000000000000 .LFB16
     /tmp/cc17T8u2.s:114    .text:0000000000000070 .LFE16
GAS LISTING /tmp/cc17T8u2.s 			page 12


     /tmp/cc17T8u2.s:1479   .debug_str:00000000000000e3 .LASF64
     /tmp/cc17T8u2.s:1395   .debug_loc:00000000000000d9 .LLST0
     /tmp/cc17T8u2.s:1445   .debug_str:0000000000000013 .LASF65
     /tmp/cc17T8u2.s:1406   .debug_loc:000000000000010f .LLST1
     /tmp/cc17T8u2.s:29     .text:000000000000001c .LBB8
     /tmp/cc17T8u2.s:46     .text:0000000000000028 .LBE8
     /tmp/cc17T8u2.s:48     .text:0000000000000028 .LBB10
     /tmp/cc17T8u2.s:61     .text:0000000000000030 .LBE10
     /tmp/cc17T8u2.s:1413   .debug_loc:0000000000000132 .LLST2
     /tmp/cc17T8u2.s:87     .text:0000000000000054 .LBB12
     /tmp/cc17T8u2.s:98     .text:0000000000000058 .LBE12
     /tmp/cc17T8u2.s:1421   .debug_loc:0000000000000156 .LLST3
     /tmp/cc17T8u2.s:71     .text:0000000000000040 .LVL3
     /tmp/cc17T8u2.s:1463   .debug_str:0000000000000080 .LASF66
     /tmp/cc17T8u2.s:1511   .debug_str:00000000000001c9 .LASF74
     /tmp/cc17T8u2.s:123    .text:0000000000000070 .LVL9
     /tmp/cc17T8u2.s:144    .text:0000000000000088 .LVL11
     /tmp/cc17T8u2.s:148    .text:000000000000008c .LVL12
     /tmp/cc17T8u2.s:155    .text:0000000000000094 .LVL13
     /tmp/cc17T8u2.s:166    .text:00000000000000b8 .LVL14
     /tmp/cc17T8u2.s:176    .text:00000000000000cc .LVL16
     /tmp/cc17T8u2.s:181    .text:00000000000000d0 .LVL17
     /tmp/cc17T8u2.s:172    .text:00000000000000c4 .LVL15
     /tmp/cc17T8u2.s:14     .text:0000000000000000 .LVL0
     /tmp/cc17T8u2.s:57     .text:0000000000000030 .LVL2
     /tmp/cc17T8u2.s:107    .text:0000000000000064 .LVL8
     /tmp/cc17T8u2.s:44     .text:0000000000000028 .LVL1
     /tmp/cc17T8u2.s:82     .text:000000000000004c .LVL5
     /tmp/cc17T8u2.s:86     .text:0000000000000054 .LVL6
     /tmp/cc17T8u2.s:95     .text:0000000000000058 .LVL7
     /tmp/cc17T8u2.s:218    .debug_info:0000000000000000 .Ldebug_info0

UNDEFINED SYMBOLS
__putc
