GAS LISTING /tmp/ccy16gSJ.s 			page 1


   1              		.file	"riscv.cpp"
   2              		.option pic
   3              		.option norelax
   4              		.text
   5              	.Ltext0:
   6              		.align	2
   7              		.globl	_ZN5Riscv10popSppSpieEv
   9              	_ZN5Riscv10popSppSpieEv:
  10              	.LFB22:
  11              		.file 1 "src/riscv.cpp"
   1:src/riscv.cpp **** //
   2:src/riscv.cpp **** // Created by os on 4/26/22.
   3:src/riscv.cpp **** //
   4:src/riscv.cpp **** #include "../h/riscv.hpp"
   5:src/riscv.cpp **** #include "../h/tcb.hpp"
   6:src/riscv.cpp **** #include "../lib/console.h"
   7:src/riscv.cpp **** #include "../h/MemoryAllocator.hpp"
   8:src/riscv.cpp **** 
   9:src/riscv.cpp **** void Riscv::popSppSpie() {
  12              		.loc 1 9 26
  13              		.cfi_startproc
  14 0000 130101FF 		addi	sp,sp,-16
  15              		.cfi_def_cfa_offset 16
  16 0004 23348100 		sd	s0,8(sp)
  17              		.cfi_offset 8, -8
  18 0008 13040101 		addi	s0,sp,16
  19              		.cfi_def_cfa 8, 0
  10:src/riscv.cpp ****     __asm__ volatile ("csrw sepc, ra");
  20              		.loc 1 10 5
  21              		.loc 1 10 39 is_stmt 0
  22              	#APP
  23              	# 10 "src/riscv.cpp" 1
  11              	    __asm__ volatile ("sret");
  24              		csrw sepc, ra
  25              	# 0 "" 2
  26              		.loc 1 11 5 is_stmt 1
  27              		.loc 1 11 30 is_stmt 0
  28              	# 11 "src/riscv.cpp" 1
  12              	}
  29              		sret
  30              	# 0 "" 2
  31              		.loc 1 12 1
  32              	#NO_APP
  33 0014 03348100 		ld	s0,8(sp)
  34              		.cfi_restore 8
  35              		.cfi_def_cfa 2, 16
  36 0018 13010101 		addi	sp,sp,16
  37              		.cfi_def_cfa_offset 0
  38 001c 67800000 		jr	ra
  39              		.cfi_endproc
  40              	.LFE22:
  42              		.align	2
  43              		.globl	_ZN5Riscv20handleSupervisorTrapEv
  45              	_ZN5Riscv20handleSupervisorTrapEv:
  46              	.LFB23:
  13:src/riscv.cpp **** 
  14:src/riscv.cpp **** void Riscv::handleSupervisorTrap() {
GAS LISTING /tmp/ccy16gSJ.s 			page 2


  47              		.loc 1 14 36 is_stmt 1
  48              		.cfi_startproc
  49 0020 130101F9 		addi	sp,sp,-112
  50              		.cfi_def_cfa_offset 112
  51 0024 23341106 		sd	ra,104(sp)
  52 0028 23308106 		sd	s0,96(sp)
  53 002c 233C9104 		sd	s1,88(sp)
  54 0030 23382105 		sd	s2,80(sp)
  55 0034 23343105 		sd	s3,72(sp)
  56              		.cfi_offset 1, -8
  57              		.cfi_offset 8, -16
  58              		.cfi_offset 9, -24
  59              		.cfi_offset 18, -32
  60              		.cfi_offset 19, -40
  61 0038 13040107 		addi	s0,sp,112
  62              		.cfi_def_cfa 8, 0
  15:src/riscv.cpp ****     uint64 scause = r_scause();
  63              		.loc 1 15 5
  64              	.LBB44:
  65              	.LBB45:
  66              		.file 2 "src/../h/riscv.hpp"
   1:src/../h/riscv.hpp **** //
   2:src/../h/riscv.hpp **** // Created by os on 4/26/22.
   3:src/../h/riscv.hpp **** //
   4:src/../h/riscv.hpp **** 
   5:src/../h/riscv.hpp **** #ifndef PROJECT_BASE_V1_0_RISCV_HPP
   6:src/../h/riscv.hpp **** #define PROJECT_BASE_V1_0_RISCV_HPP
   7:src/../h/riscv.hpp **** 
   8:src/../h/riscv.hpp **** #include "../lib/hw.h"
   9:src/../h/riscv.hpp **** 
  10:src/../h/riscv.hpp **** class Riscv{
  11:src/../h/riscv.hpp **** public:
  12:src/../h/riscv.hpp **** 
  13:src/../h/riscv.hpp ****     static void popSppSpie();
  14:src/../h/riscv.hpp **** 
  15:src/../h/riscv.hpp ****     //read
  16:src/../h/riscv.hpp ****     static uint64 r_scause();
  17:src/../h/riscv.hpp **** 
  18:src/../h/riscv.hpp ****     //write
  19:src/../h/riscv.hpp ****     static void w_scause(uint64 scause);
  20:src/../h/riscv.hpp **** 
  21:src/../h/riscv.hpp ****     static uint64 r_sepc();
  22:src/../h/riscv.hpp **** 
  23:src/../h/riscv.hpp ****     static void w_sepc(uint64 sepc);
  24:src/../h/riscv.hpp **** 
  25:src/../h/riscv.hpp ****     static uint64 r_stvec();
  26:src/../h/riscv.hpp **** 
  27:src/../h/riscv.hpp ****     static void w_stvec(uint64 stvec);
  28:src/../h/riscv.hpp **** 
  29:src/../h/riscv.hpp ****     static uint64 r_stval();
  30:src/../h/riscv.hpp **** 
  31:src/../h/riscv.hpp ****     static void w_stval(uint64 stval);
  32:src/../h/riscv.hpp **** 
  33:src/../h/riscv.hpp ****     enum BitMaskSip{
  34:src/../h/riscv.hpp ****         SIP_SSIP = (1 << 1),
  35:src/../h/riscv.hpp ****         SIP_STIP = (1 << 5),
  36:src/../h/riscv.hpp ****         SIP_SEIP = (1 << 9),
GAS LISTING /tmp/ccy16gSJ.s 			page 3


  37:src/../h/riscv.hpp ****     };
  38:src/../h/riscv.hpp ****     // mask set
  39:src/../h/riscv.hpp ****     static void ms_sip(uint64 mask);
  40:src/../h/riscv.hpp ****     // mask clear
  41:src/../h/riscv.hpp ****     static void mc_sip(uint64 mask);
  42:src/../h/riscv.hpp **** 
  43:src/../h/riscv.hpp ****     static uint64 r_sip();
  44:src/../h/riscv.hpp **** 
  45:src/../h/riscv.hpp ****     static void w_sip(uint64 sip);
  46:src/../h/riscv.hpp **** 
  47:src/../h/riscv.hpp ****     enum BitMaskSstatus{
  48:src/../h/riscv.hpp ****         SSTATUS_SIE = (1 << 1),
  49:src/../h/riscv.hpp ****         SSTATUS_SPIE = (1 << 5),
  50:src/../h/riscv.hpp ****         SSTATUS_SPP = (1 << 8),
  51:src/../h/riscv.hpp ****     };
  52:src/../h/riscv.hpp **** 
  53:src/../h/riscv.hpp ****     static void ms_sstatus(uint64 mask);
  54:src/../h/riscv.hpp **** 
  55:src/../h/riscv.hpp ****     static void mc_sstatus(uint64 mask);
  56:src/../h/riscv.hpp **** 
  57:src/../h/riscv.hpp ****     static uint64 r_sstatus();
  58:src/../h/riscv.hpp **** 
  59:src/../h/riscv.hpp ****     static void w_sstatus(uint64 sstatus);
  60:src/../h/riscv.hpp **** 
  61:src/../h/riscv.hpp ****     static void supervisorTrap();
  62:src/../h/riscv.hpp **** 
  63:src/../h/riscv.hpp **** private:
  64:src/../h/riscv.hpp ****     static void handleSupervisorTrap();
  65:src/../h/riscv.hpp **** };
  66:src/../h/riscv.hpp **** 
  67:src/../h/riscv.hpp **** inline uint64 Riscv::r_scause() {
  68:src/../h/riscv.hpp ****     uint64 volatile scause;
  67              		.loc 2 68 5
  69:src/../h/riscv.hpp ****     __asm__ volatile ("csrr %[scause], scause" : [scause] "=r"(scause));
  68              		.loc 2 69 5
  69              		.loc 2 69 72 is_stmt 0
  70              	#APP
  71              	# 69 "src/../h/riscv.hpp" 1
  70              	    return scause;
  72              		csrr a5, scause
  73              	# 0 "" 2
  74              	#NO_APP
  75 0040 233CF4F8 		sd	a5,-104(s0)
  76              		.loc 2 70 5 is_stmt 1
  77              		.loc 2 70 12 is_stmt 0
  78 0044 033784F9 		ld	a4,-104(s0)
  79              	.LVL0:
  80              	.LBE45:
  81              	.LBE44:
  16:src/riscv.cpp **** 
  17:src/riscv.cpp ****     // velicina gde cu da mu obavestim koji je poziv
  18:src/riscv.cpp ****     size_t argument0;
  82              		.loc 1 18 5 is_stmt 1
  19:src/riscv.cpp ****     __asm__ volatile("mv %0, a0" : "=r" (argument0));
  83              		.loc 1 19 5
  84              		.loc 1 19 53 is_stmt 0
  85              	#APP
GAS LISTING /tmp/ccy16gSJ.s 			page 4


  86              	# 19 "src/riscv.cpp" 1
  20              	
  87              		mv s1, a0
  88              	# 0 "" 2
  89              	.LVL1:
  21:src/riscv.cpp ****     if(argument0 != 0 && scause == 0x0000000000000009UL){
  90              		.loc 1 21 5 is_stmt 1
  91              	#NO_APP
  92              	.LBB46:
  93 004c 63860400 		beqz	s1,.L4
  94              		.loc 1 21 23 is_stmt 0 discriminator 1
  95 0050 93079000 		li	a5,9
  96 0054 6304F704 		beq	a4,a5,.L12
  97              	.L4:
  98              	.LBE46:
  22:src/riscv.cpp ****         // prekopirano od mickovog koda
  23:src/riscv.cpp ****         uint64 sepc = r_sepc(); uint64 sstatus = r_sstatus();
  24:src/riscv.cpp **** 
  25:src/riscv.cpp ****         // syscall za mem_alloc, argument je 1
  26:src/riscv.cpp ****         if(argument0 == 1){
  27:src/riscv.cpp ****             // potrebni argumenti za mem_alloc
  28:src/riscv.cpp ****             size_t argument_sizet;
  29:src/riscv.cpp ****             void* argument_ret_void;
  30:src/riscv.cpp **** 
  31:src/riscv.cpp ****             __asm__ volatile("mv %0, a1" : "=r" (argument_sizet));
  32:src/riscv.cpp ****             argument_ret_void = MemoryAllocator::mem_alloc(argument_sizet);
  33:src/riscv.cpp ****             __asm__ volatile("mv a0, %0" : : "r" (argument_ret_void));
  34:src/riscv.cpp ****         }
  35:src/riscv.cpp **** 
  36:src/riscv.cpp ****         // syscall za mem_free, argument je 1
  37:src/riscv.cpp ****         if(argument0 == 2){
  38:src/riscv.cpp ****             // potrebni argumenti za mem_free
  39:src/riscv.cpp ****             void* argument_void;
  40:src/riscv.cpp **** 
  41:src/riscv.cpp ****             __asm__ volatile("mv %0, a1" : "=r" (argument_void));
  42:src/riscv.cpp ****             MemoryAllocator::mem_free(argument_void);
  43:src/riscv.cpp ****         }
  44:src/riscv.cpp **** 
  45:src/riscv.cpp ****         w_sstatus(sstatus); w_sepc(sepc);
  46:src/riscv.cpp ****     }
  47:src/riscv.cpp ****     else if (scause == 0x0000000000000009UL) {
  99              		.loc 1 47 10 is_stmt 1
 100              	.LBB92:
 101              	.LBB47:
 102 0058 93079000 		li	a5,9
 103 005c 630CF708 		beq	a4,a5,.L13
 104              	.LBE47:
 105              	.LBE92:
  48:src/riscv.cpp ****         // interrupt: no; cause code: environment call from S-mode(9)
  49:src/riscv.cpp ****         uint64 sepc = r_sepc() + 4; uint64 sstatus = r_sstatus();
  50:src/riscv.cpp ****         TCB::timeSliceCounter = 0;
  51:src/riscv.cpp ****         TCB::dispatch();
  52:src/riscv.cpp ****         w_sstatus(sstatus); w_sepc(sepc);
  53:src/riscv.cpp ****     } else if (scause == 0x8000000000000001UL) {
 106              		.loc 1 53 12
 107              	.LBB93:
 108              	.LBB75:
GAS LISTING /tmp/ccy16gSJ.s 			page 5


 109              	.LBB48:
 110 0060 9307F0FF 		li	a5,-1
 111 0064 9397F703 		slli	a5,a5,63
 112 0068 93871700 		addi	a5,a5,1
 113 006c 6302F70C 		beq	a4,a5,.L14
  54:src/riscv.cpp ****         // interrupt: yes; cause code: supervisor software interrupt (CLINT; machine timer interrup
  55:src/riscv.cpp ****         TCB::timeSliceCounter++;
  56:src/riscv.cpp ****         if (TCB::timeSliceCounter >= TCB::running->getTimeSlice()) {
  57:src/riscv.cpp ****             uint64 sepc = r_sepc(); uint64 sstatus = r_sstatus();
  58:src/riscv.cpp ****             TCB::timeSliceCounter = 0;
  59:src/riscv.cpp ****             TCB::dispatch();
  60:src/riscv.cpp ****             w_sstatus(sstatus); w_sepc(sepc);
  61:src/riscv.cpp ****         }
  62:src/riscv.cpp ****         mc_sip(SIP_SSIP);
  63:src/riscv.cpp ****     } else if (scause == 0x8000000000000009UL) {
 114              		.loc 1 63 12
 115 0070 9307F0FF 		li	a5,-1
 116 0074 9397F703 		slli	a5,a5,63
 117 0078 93879700 		addi	a5,a5,9
 118 007c 6300F712 		beq	a4,a5,.L15
 119              	.LVL2:
 120              	.L3:
 121              	.LBE48:
 122              	.LBE75:
 123              	.LBE93:
  64:src/riscv.cpp ****         // interrupt: yes; cause code: supervisor external interrupt (PLIC; could be keyboard)
  65:src/riscv.cpp ****         console_handler();
  66:src/riscv.cpp ****     } else {
  67:src/riscv.cpp ****         // unexpected trap cause
  68:src/riscv.cpp ****     }
  69:src/riscv.cpp **** }
 124              		.loc 1 69 1 is_stmt 0
 125 0080 83308106 		ld	ra,104(sp)
 126              		.cfi_remember_state
 127              		.cfi_restore 1
 128 0084 03340106 		ld	s0,96(sp)
 129              		.cfi_restore 8
 130              		.cfi_def_cfa 2, 112
 131 0088 83348105 		ld	s1,88(sp)
 132              		.cfi_restore 9
 133 008c 03390105 		ld	s2,80(sp)
 134              		.cfi_restore 18
 135 0090 83398104 		ld	s3,72(sp)
 136              		.cfi_restore 19
 137 0094 13010107 		addi	sp,sp,112
 138              		.cfi_def_cfa_offset 0
 139 0098 67800000 		jr	ra
 140              	.LVL3:
 141              	.L12:
 142              		.cfi_restore_state
 143              	.LBB94:
 144              	.LBB76:
  23:src/riscv.cpp **** 
 145              		.loc 1 23 9 is_stmt 1
 146              	.LBB77:
 147              	.LBB78:
  71:src/../h/riscv.hpp **** }
GAS LISTING /tmp/ccy16gSJ.s 			page 6


  72:src/../h/riscv.hpp **** 
  73:src/../h/riscv.hpp **** inline void Riscv::w_scause(uint64 scause) {
  74:src/../h/riscv.hpp ****     __asm__ volatile ("csrw scause, %[scause]" : : [scause] "r"(scause));
  75:src/../h/riscv.hpp **** }
  76:src/../h/riscv.hpp **** 
  77:src/../h/riscv.hpp **** inline uint64 Riscv::r_sepc() {
  78:src/../h/riscv.hpp ****     uint64 volatile sepc;
 148              		.loc 2 78 5
  79:src/../h/riscv.hpp ****     __asm__ volatile ("csrr %[sepc], sepc" : [sepc] "=r"(sepc));
 149              		.loc 2 79 5
 150              		.loc 2 79 64 is_stmt 0
 151              	#APP
 152              	# 79 "src/../h/riscv.hpp" 1
  80              	    return sepc;
 153              		csrr a5, sepc
 154              	# 0 "" 2
 155              	#NO_APP
 156 00a0 2334F4FA 		sd	a5,-88(s0)
 157              		.loc 2 80 5 is_stmt 1
 158              		.loc 2 80 12 is_stmt 0
 159 00a4 033984FA 		ld	s2,-88(s0)
 160              	.LVL4:
 161              	.LBE78:
 162              	.LBE77:
  23:src/riscv.cpp **** 
 163              		.loc 1 23 33 is_stmt 1
 164              	.LBB79:
 165              	.LBB80:
  81:src/../h/riscv.hpp **** }
  82:src/../h/riscv.hpp **** 
  83:src/../h/riscv.hpp **** inline void Riscv::w_sepc(uint64 sepc) {
  84:src/../h/riscv.hpp ****     __asm__ volatile ("csrw sepc, %[sepc]" : : [sepc] "r"(sepc));
  85:src/../h/riscv.hpp **** }
  86:src/../h/riscv.hpp **** 
  87:src/../h/riscv.hpp **** inline uint64 Riscv::r_stvec() {
  88:src/../h/riscv.hpp ****     uint64 volatile stvec;
  89:src/../h/riscv.hpp ****     __asm__ volatile ("csrr %[stvec], stvec" : [stvec] "=r"(stvec));
  90:src/../h/riscv.hpp ****     return stvec;
  91:src/../h/riscv.hpp **** }
  92:src/../h/riscv.hpp **** 
  93:src/../h/riscv.hpp **** inline void Riscv::w_stvec(uint64 stvec) {
  94:src/../h/riscv.hpp ****     __asm__ volatile ("csrw stvec, %[stvec]" : : [stvec] "r"(stvec));
  95:src/../h/riscv.hpp **** }
  96:src/../h/riscv.hpp **** 
  97:src/../h/riscv.hpp **** inline uint64 Riscv::r_stval() {
  98:src/../h/riscv.hpp ****     uint64 volatile stval;
  99:src/../h/riscv.hpp ****     __asm__ volatile ("csrr %[stval], stval" : [stval] "=r"(stval));
 100:src/../h/riscv.hpp ****     return stval;
 101:src/../h/riscv.hpp **** }
 102:src/../h/riscv.hpp **** 
 103:src/../h/riscv.hpp **** inline void Riscv::w_stval(uint64 stval) {
 104:src/../h/riscv.hpp ****     __asm__ volatile ("csrw stval, %[stval]" : : [stval] "r"(stval));
 105:src/../h/riscv.hpp **** }
 106:src/../h/riscv.hpp **** 
 107:src/../h/riscv.hpp **** inline void Riscv::ms_sip(uint64 mask) {
 108:src/../h/riscv.hpp ****     __asm__ volatile ("csrs sip, %[mask]" : : [mask] "r"(mask));
 109:src/../h/riscv.hpp **** }
GAS LISTING /tmp/ccy16gSJ.s 			page 7


 110:src/../h/riscv.hpp **** 
 111:src/../h/riscv.hpp **** inline void Riscv::mc_sip(uint64 mask) {
 112:src/../h/riscv.hpp ****     __asm__ volatile ("csrc sip, %[mask]" : : [mask] "r"(mask));
 113:src/../h/riscv.hpp **** }
 114:src/../h/riscv.hpp **** 
 115:src/../h/riscv.hpp **** inline uint64 Riscv::r_sip() {
 116:src/../h/riscv.hpp ****     uint64 volatile sip;
 117:src/../h/riscv.hpp ****     __asm__ volatile ("csrr %[sip], sip" : [sip] "=r"(sip));
 118:src/../h/riscv.hpp ****     return sip;
 119:src/../h/riscv.hpp **** }
 120:src/../h/riscv.hpp **** 
 121:src/../h/riscv.hpp **** inline void Riscv::w_sip(uint64 sip) {
 122:src/../h/riscv.hpp ****     __asm__ volatile ("csrw sip, %[sip]" : : [sip] "r"(sip));
 123:src/../h/riscv.hpp **** }
 124:src/../h/riscv.hpp **** 
 125:src/../h/riscv.hpp **** inline void Riscv::ms_sstatus(uint64 mask) {
 126:src/../h/riscv.hpp ****     __asm__ volatile ("csrs sstatus, %[mask]" : : [mask] "r"(mask));
 127:src/../h/riscv.hpp **** }
 128:src/../h/riscv.hpp **** 
 129:src/../h/riscv.hpp **** inline void Riscv::mc_sstatus(uint64 mask) {
 130:src/../h/riscv.hpp ****     __asm__ volatile ("csrc sstatus, %[mask]" : : [mask] "r"(mask));
 131:src/../h/riscv.hpp **** }
 132:src/../h/riscv.hpp **** 
 133:src/../h/riscv.hpp **** inline uint64 Riscv::r_sstatus() {
 134:src/../h/riscv.hpp ****     uint64 volatile sstatus;
 166              		.loc 2 134 5
 135:src/../h/riscv.hpp ****     __asm__ volatile ("csrr %[sstatus], sstatus" : [sstatus] "=r"(sstatus));
 167              		.loc 2 135 5
 168              		.loc 2 135 76 is_stmt 0
 169              	#APP
 170              	# 135 "src/../h/riscv.hpp" 1
 136              	    return sstatus;
 171              		csrr a5, sstatus
 172              	# 0 "" 2
 173              	#NO_APP
 174 00ac 2330F4FA 		sd	a5,-96(s0)
 175              		.loc 2 136 5 is_stmt 1
 176              		.loc 2 136 12 is_stmt 0
 177 00b0 833904FA 		ld	s3,-96(s0)
 178              	.LVL5:
 179              	.LBE80:
 180              	.LBE79:
  26:src/riscv.cpp ****             // potrebni argumenti za mem_alloc
 181              		.loc 1 26 9 is_stmt 1
 182              	.LBB81:
 183 00b4 93071000 		li	a5,1
 184 00b8 638CF400 		beq	s1,a5,.L16
 185              	.LVL6:
 186              	.L5:
 187              	.LBE81:
  37:src/riscv.cpp ****             // potrebni argumenti za mem_free
 188              		.loc 1 37 9
 189              	.LBB83:
 190 00bc 93072000 		li	a5,2
 191 00c0 6382F402 		beq	s1,a5,.L17
 192              	.L6:
 193              	.LBE83:
GAS LISTING /tmp/ccy16gSJ.s 			page 8


  45:src/riscv.cpp ****     }
 194              		.loc 1 45 9
 195              	.LVL7:
 196              	.LBB85:
 197              	.LBB86:
 137:src/../h/riscv.hpp **** }
 138:src/../h/riscv.hpp **** inline void Riscv::w_sstatus(uint64 sstatus) {
 139:src/../h/riscv.hpp ****     __asm__ volatile ("csrw sstatus, %[sstatus]" : : [sstatus] "r"(sstatus));
 198              		.loc 2 139 5
 199              		.loc 2 139 77 is_stmt 0
 200              	#APP
 201              	# 139 "src/../h/riscv.hpp" 1
 140              	}
 202              		csrw sstatus, s3
 203              	# 0 "" 2
 204              	.LVL8:
 205              	#NO_APP
 206              	.LBE86:
 207              	.LBE85:
  45:src/riscv.cpp ****     }
 208              		.loc 1 45 29 is_stmt 1
 209              	.LBB87:
 210              	.LBB88:
  84:src/../h/riscv.hpp **** }
 211              		.loc 2 84 5
  84:src/../h/riscv.hpp **** }
 212              		.loc 2 84 65 is_stmt 0
 213              	#APP
 214              	# 84 "src/../h/riscv.hpp" 1
  85:src/../h/riscv.hpp **** 
 215              		csrw sepc, s2
 216              	# 0 "" 2
 217              		.loc 2 85 1
 218              	#NO_APP
 219 00cc 6FF05FFB 		j	.L3
 220              	.LVL9:
 221              	.L16:
 222              	.LBE88:
 223              	.LBE87:
 224              	.LBB89:
 225              	.LBB82:
  28:src/riscv.cpp ****             void* argument_ret_void;
 226              		.loc 1 28 13 is_stmt 1
  29:src/riscv.cpp **** 
 227              		.loc 1 29 13
  31:src/riscv.cpp ****             argument_ret_void = MemoryAllocator::mem_alloc(argument_sizet);
 228              		.loc 1 31 13
  31:src/riscv.cpp ****             argument_ret_void = MemoryAllocator::mem_alloc(argument_sizet);
 229              		.loc 1 31 66 is_stmt 0
 230              	#APP
 231              	# 31 "src/riscv.cpp" 1
 232              		mv a0, a1
 233              	# 0 "" 2
 234              	.LVL10:
  32:src/riscv.cpp ****             __asm__ volatile("mv a0, %0" : : "r" (argument_ret_void));
 235              		.loc 1 32 13 is_stmt 1
  32:src/riscv.cpp ****             __asm__ volatile("mv a0, %0" : : "r" (argument_ret_void));
GAS LISTING /tmp/ccy16gSJ.s 			page 9


 236              		.loc 1 32 59 is_stmt 0
 237              	#NO_APP
 238 00d4 97000000 		call	_ZN15MemoryAllocator9mem_allocEm@plt
 238      E7800000 
 239              	.LVL11:
  33:src/riscv.cpp ****         }
 240              		.loc 1 33 13 is_stmt 1
  33:src/riscv.cpp ****         }
 241              		.loc 1 33 70 is_stmt 0
 242              	#APP
 243              	# 33 "src/riscv.cpp" 1
 244              		mv a0, a0
 245              	# 0 "" 2
 246              	#NO_APP
 247              	.LBE82:
 248 00e0 6FF0DFFD 		j	.L5
 249              	.LVL12:
 250              	.L17:
 251              	.LBE89:
 252              	.LBB90:
 253              	.LBB84:
  39:src/riscv.cpp **** 
 254              		.loc 1 39 13 is_stmt 1
  41:src/riscv.cpp ****             MemoryAllocator::mem_free(argument_void);
 255              		.loc 1 41 13
  41:src/riscv.cpp ****             MemoryAllocator::mem_free(argument_void);
 256              		.loc 1 41 65 is_stmt 0
 257              	#APP
 258              	# 41 "src/riscv.cpp" 1
 259              		mv a0, a1
 260              	# 0 "" 2
 261              	.LVL13:
  42:src/riscv.cpp ****         }
 262              		.loc 1 42 13 is_stmt 1
  42:src/riscv.cpp ****         }
 263              		.loc 1 42 38 is_stmt 0
 264              	#NO_APP
 265 00e8 97000000 		call	_ZN15MemoryAllocator8mem_freeEPv@plt
 265      E7800000 
 266              	.LVL14:
 267              	.LBE84:
 268 00f0 6FF05FFD 		j	.L6
 269              	.LVL15:
 270              	.L13:
 271              	.LBE90:
 272              	.LBE76:
 273              	.LBB91:
 274              	.LBB65:
  49:src/riscv.cpp ****         TCB::timeSliceCounter = 0;
 275              		.loc 1 49 9 is_stmt 1
 276              	.LBB66:
 277              	.LBB67:
  78:src/../h/riscv.hpp ****     __asm__ volatile ("csrr %[sepc], sepc" : [sepc] "=r"(sepc));
 278              		.loc 2 78 5
  79:src/../h/riscv.hpp ****     return sepc;
 279              		.loc 2 79 5
  79:src/../h/riscv.hpp ****     return sepc;
GAS LISTING /tmp/ccy16gSJ.s 			page 10


 280              		.loc 2 79 64 is_stmt 0
 281              	#APP
 282              	# 79 "src/../h/riscv.hpp" 1
 283              		csrr a5, sepc
 284              	# 0 "" 2
 285              	#NO_APP
 286 00f8 233CF4FA 		sd	a5,-72(s0)
  80:src/../h/riscv.hpp **** }
 287              		.loc 2 80 5 is_stmt 1
  80:src/../h/riscv.hpp **** }
 288              		.loc 2 80 12 is_stmt 0
 289 00fc 833484FB 		ld	s1,-72(s0)
 290              	.LVL16:
 291              	.LBE67:
 292              	.LBE66:
  49:src/riscv.cpp ****         TCB::timeSliceCounter = 0;
 293              		.loc 1 49 34
 294 0100 93844400 		addi	s1,s1,4
 295              	.LVL17:
  49:src/riscv.cpp ****         TCB::timeSliceCounter = 0;
 296              		.loc 1 49 37 is_stmt 1
 297              	.LBB68:
 298              	.LBB69:
 134:src/../h/riscv.hpp ****     __asm__ volatile ("csrr %[sstatus], sstatus" : [sstatus] "=r"(sstatus));
 299              		.loc 2 134 5
 135:src/../h/riscv.hpp ****     return sstatus;
 300              		.loc 2 135 5
 135:src/../h/riscv.hpp ****     return sstatus;
 301              		.loc 2 135 76 is_stmt 0
 302              	#APP
 303              	# 135 "src/../h/riscv.hpp" 1
 304              		csrr a5, sstatus
 305              	# 0 "" 2
 306              	#NO_APP
 307 0108 2338F4FA 		sd	a5,-80(s0)
 136:src/../h/riscv.hpp **** }
 308              		.loc 2 136 5 is_stmt 1
 136:src/../h/riscv.hpp **** }
 309              		.loc 2 136 12 is_stmt 0
 310 010c 033904FB 		ld	s2,-80(s0)
 311              	.LVL18:
 312              	.LBE69:
 313              	.LBE68:
  50:src/riscv.cpp ****         TCB::dispatch();
 314              		.loc 1 50 9 is_stmt 1
  50:src/riscv.cpp ****         TCB::dispatch();
 315              		.loc 1 50 31 is_stmt 0
 316 0110 97070000 		la	a5,_ZN3TCB16timeSliceCounterE
 316      83B70700 
 317 0118 23B00700 		sd	zero,0(a5)
  51:src/riscv.cpp ****         w_sstatus(sstatus); w_sepc(sepc);
 318              		.loc 1 51 9 is_stmt 1
  51:src/riscv.cpp ****         w_sstatus(sstatus); w_sepc(sepc);
 319              		.loc 1 51 22 is_stmt 0
 320 011c 97000000 		call	_ZN3TCB8dispatchEv@plt
 320      E7800000 
 321              	.LVL19:
GAS LISTING /tmp/ccy16gSJ.s 			page 11


  52:src/riscv.cpp ****     } else if (scause == 0x8000000000000001UL) {
 322              		.loc 1 52 9 is_stmt 1
 323              	.LBB70:
 324              	.LBB71:
 139:src/../h/riscv.hpp **** }
 325              		.loc 2 139 5
 139:src/../h/riscv.hpp **** }
 326              		.loc 2 139 77 is_stmt 0
 327              	#APP
 328              	# 139 "src/../h/riscv.hpp" 1
 329              		csrw sstatus, s2
 330              	# 0 "" 2
 331              	.LVL20:
 332              	#NO_APP
 333              	.LBE71:
 334              	.LBE70:
  52:src/riscv.cpp ****     } else if (scause == 0x8000000000000001UL) {
 335              		.loc 1 52 29 is_stmt 1
 336              	.LBB72:
 337              	.LBB73:
  84:src/../h/riscv.hpp **** }
 338              		.loc 2 84 5
  84:src/../h/riscv.hpp **** }
 339              		.loc 2 84 65 is_stmt 0
 340              	#APP
 341              	# 84 "src/../h/riscv.hpp" 1
  85:src/../h/riscv.hpp **** 
 342              		csrw sepc, s1
 343              	# 0 "" 2
 344              		.loc 2 85 1
 345              	#NO_APP
 346 012c 6FF05FF5 		j	.L3
 347              	.LVL21:
 348              	.L14:
 349              	.LBE73:
 350              	.LBE72:
 351              	.LBE65:
 352              	.LBB74:
 353              	.LBB49:
  55:src/riscv.cpp ****         if (TCB::timeSliceCounter >= TCB::running->getTimeSlice()) {
 354              		.loc 1 55 9 is_stmt 1
  55:src/riscv.cpp ****         if (TCB::timeSliceCounter >= TCB::running->getTimeSlice()) {
 355              		.loc 1 55 30 is_stmt 0
 356 0130 17070000 		la	a4,_ZN3TCB16timeSliceCounterE
 356      03370700 
 357              	.LVL22:
 358 0138 83370700 		ld	a5,0(a4)
 359 013c 93871700 		addi	a5,a5,1
 360 0140 2330F700 		sd	a5,0(a4)
  56:src/riscv.cpp ****             uint64 sepc = r_sepc(); uint64 sstatus = r_sstatus();
 361              		.loc 1 56 9 is_stmt 1
 362              	.LBB50:
  56:src/riscv.cpp ****             uint64 sepc = r_sepc(); uint64 sstatus = r_sstatus();
 363              		.loc 1 56 64 is_stmt 0
 364 0144 17070000 		la	a4,_ZN3TCB7runningE
 364      03370700 
 365 014c 03370700 		ld	a4,0(a4)
GAS LISTING /tmp/ccy16gSJ.s 			page 12


 366              	.LVL23:
 367              	.LBB51:
 368              	.LBB52:
 369              		.file 3 "src/../h/tcb.hpp"
   1:src/../h/tcb.hpp **** //
   2:src/../h/tcb.hpp **** // Created by os on 4/26/22.
   3:src/../h/tcb.hpp **** //
   4:src/../h/tcb.hpp **** 
   5:src/../h/tcb.hpp **** #ifndef PROJECT_BASE_V1_0_TCB_HPP
   6:src/../h/tcb.hpp **** #define PROJECT_BASE_V1_0_TCB_HPP
   7:src/../h/tcb.hpp **** 
   8:src/../h/tcb.hpp **** #include "../lib/hw.h"
   9:src/../h/tcb.hpp **** 
  10:src/../h/tcb.hpp **** class TCB {
  11:src/../h/tcb.hpp ****         public:
  12:src/../h/tcb.hpp ****         ~TCB() { delete[] stack; }
  13:src/../h/tcb.hpp ****         bool isFinished() const { return finished; }
  14:src/../h/tcb.hpp ****         void setFinished(bool value) { finished = value; }
  15:src/../h/tcb.hpp ****         uint64 getTimeSlice() const { return timeSlice; }
 370              		.loc 3 15 39 is_stmt 1
 371              		.loc 3 15 46 is_stmt 0
 372 0150 03370702 		ld	a4,32(a4)
 373              	.LVL24:
 374              	.LBE52:
 375              	.LBE51:
  56:src/riscv.cpp ****             uint64 sepc = r_sepc(); uint64 sstatus = r_sstatus();
 376              		.loc 1 56 9
 377 0154 63F8E700 		bgeu	a5,a4,.L18
 378              	.LVL25:
 379              	.L10:
 380              	.LBE50:
  62:src/riscv.cpp ****     } else if (scause == 0x8000000000000009UL) {
 381              		.loc 1 62 9 is_stmt 1
 382              	.LBB62:
 383              	.LBB63:
 112:src/../h/riscv.hpp **** }
 384              		.loc 2 112 5
 112:src/../h/riscv.hpp **** }
 385              		.loc 2 112 64 is_stmt 0
 386 0158 93072000 		li	a5,2
 387              	#APP
 388              	# 112 "src/../h/riscv.hpp" 1
 113:src/../h/riscv.hpp **** 
 389              		csrc sip, a5
 390              	# 0 "" 2
 391              		.loc 2 113 1
 392              	#NO_APP
 393 0160 6FF01FF2 		j	.L3
 394              	.LVL26:
 395              	.L18:
 396              	.LBE63:
 397              	.LBE62:
 398              	.LBB64:
 399              	.LBB53:
  57:src/riscv.cpp ****             TCB::timeSliceCounter = 0;
 400              		.loc 1 57 13 is_stmt 1
 401              	.LBB54:
GAS LISTING /tmp/ccy16gSJ.s 			page 13


 402              	.LBB55:
  78:src/../h/riscv.hpp ****     __asm__ volatile ("csrr %[sepc], sepc" : [sepc] "=r"(sepc));
 403              		.loc 2 78 5
  79:src/../h/riscv.hpp ****     return sepc;
 404              		.loc 2 79 5
  79:src/../h/riscv.hpp ****     return sepc;
 405              		.loc 2 79 64 is_stmt 0
 406              	#APP
 407              	# 79 "src/../h/riscv.hpp" 1
 408              		csrr a5, sepc
 409              	# 0 "" 2
 410              	#NO_APP
 411 0168 2334F4FC 		sd	a5,-56(s0)
  80:src/../h/riscv.hpp **** }
 412              		.loc 2 80 5 is_stmt 1
  80:src/../h/riscv.hpp **** }
 413              		.loc 2 80 12 is_stmt 0
 414 016c 833484FC 		ld	s1,-56(s0)
 415              	.LVL27:
 416              	.LBE55:
 417              	.LBE54:
  57:src/riscv.cpp ****             TCB::timeSliceCounter = 0;
 418              		.loc 1 57 37 is_stmt 1
 419              	.LBB56:
 420              	.LBB57:
 134:src/../h/riscv.hpp ****     __asm__ volatile ("csrr %[sstatus], sstatus" : [sstatus] "=r"(sstatus));
 421              		.loc 2 134 5
 135:src/../h/riscv.hpp ****     return sstatus;
 422              		.loc 2 135 5
 135:src/../h/riscv.hpp ****     return sstatus;
 423              		.loc 2 135 76 is_stmt 0
 424              	#APP
 425              	# 135 "src/../h/riscv.hpp" 1
 426              		csrr a5, sstatus
 427              	# 0 "" 2
 428              	#NO_APP
 429 0174 2330F4FC 		sd	a5,-64(s0)
 136:src/../h/riscv.hpp **** }
 430              		.loc 2 136 5 is_stmt 1
 136:src/../h/riscv.hpp **** }
 431              		.loc 2 136 12 is_stmt 0
 432 0178 033904FC 		ld	s2,-64(s0)
 433              	.LVL28:
 434              	.LBE57:
 435              	.LBE56:
  58:src/riscv.cpp ****             TCB::dispatch();
 436              		.loc 1 58 13 is_stmt 1
  58:src/riscv.cpp ****             TCB::dispatch();
 437              		.loc 1 58 35 is_stmt 0
 438 017c 97070000 		la	a5,_ZN3TCB16timeSliceCounterE
 438      83B70700 
 439 0184 23B00700 		sd	zero,0(a5)
  59:src/riscv.cpp ****             w_sstatus(sstatus); w_sepc(sepc);
 440              		.loc 1 59 13 is_stmt 1
  59:src/riscv.cpp ****             w_sstatus(sstatus); w_sepc(sepc);
 441              		.loc 1 59 26 is_stmt 0
 442 0188 97000000 		call	_ZN3TCB8dispatchEv@plt
GAS LISTING /tmp/ccy16gSJ.s 			page 14


 442      E7800000 
 443              	.LVL29:
  60:src/riscv.cpp ****         }
 444              		.loc 1 60 13 is_stmt 1
 445              	.LBB58:
 446              	.LBB59:
 139:src/../h/riscv.hpp **** }
 447              		.loc 2 139 5
 139:src/../h/riscv.hpp **** }
 448              		.loc 2 139 77 is_stmt 0
 449              	#APP
 450              	# 139 "src/../h/riscv.hpp" 1
 451              		csrw sstatus, s2
 452              	# 0 "" 2
 453              	.LVL30:
 454              	#NO_APP
 455              	.LBE59:
 456              	.LBE58:
  60:src/riscv.cpp ****         }
 457              		.loc 1 60 33 is_stmt 1
 458              	.LBB60:
 459              	.LBB61:
  84:src/../h/riscv.hpp **** }
 460              		.loc 2 84 5
  84:src/../h/riscv.hpp **** }
 461              		.loc 2 84 65 is_stmt 0
 462              	#APP
 463              	# 84 "src/../h/riscv.hpp" 1
  85:src/../h/riscv.hpp **** 
 464              		csrw sepc, s1
 465              	# 0 "" 2
 466              		.loc 2 85 1
 467              	#NO_APP
 468 0198 6FF01FFC 		j	.L10
 469              	.LVL31:
 470              	.L15:
 471              	.LBE61:
 472              	.LBE60:
 473              	.LBE53:
 474              	.LBE64:
 475              	.LBE49:
  65:src/riscv.cpp ****     } else {
 476              		.loc 1 65 9 is_stmt 1
  65:src/riscv.cpp ****     } else {
 477              		.loc 1 65 24 is_stmt 0
 478 019c 97000000 		call	console_handler@plt
 478      E7800000 
 479              	.LVL32:
 480              	.LBE74:
 481              	.LBE91:
 482              	.LBE94:
 483              		.loc 1 69 1
 484 01a4 6FF0DFED 		j	.L3
 485              		.cfi_endproc
 486              	.LFE23:
 488              	.Letext0:
 489              		.file 4 "src/../h/../lib/hw.h"
GAS LISTING /tmp/ccy16gSJ.s 			page 15


 490              		.file 5 "src/../h/MemoryAllocator.hpp"
 491              		.file 6 "src/../lib/console.h"
GAS LISTING /tmp/ccy16gSJ.s 			page 16

