GAS LISTING /tmp/ccBSVtDf.s 			page 1


   1              		.file	"riscv.cpp"
   2              		.option pic
   3              		.option norelax
   4              		.text
   5              	.Ltext0:
   6              		.align	2
   7              		.globl	_ZN5Riscv10popSppSpieEv
   9              	_ZN5Riscv10popSppSpieEv:
  10              	.LFB35:
  11              		.file 1 "src/riscv.cpp"
   1:src/riscv.cpp **** //
   2:src/riscv.cpp **** // Created by os on 5/12/22.
   3:src/riscv.cpp **** //
   4:src/riscv.cpp **** #include "../h/riscv.hpp"
   5:src/riscv.cpp **** #include "../h/tcb.hpp"
   6:src/riscv.cpp **** #include "../lib/console.h"
   7:src/riscv.cpp **** #include "../h/MemoryAllocator.hpp"
   8:src/riscv.cpp **** #include "../h/printing.hpp"
   9:src/riscv.cpp **** 
  10:src/riscv.cpp **** void Riscv::popSppSpie() {
  12              		.loc 1 10 26
  13              		.cfi_startproc
  14 0000 130101FF 		addi	sp,sp,-16
  15              		.cfi_def_cfa_offset 16
  16 0004 23348100 		sd	s0,8(sp)
  17              		.cfi_offset 8, -8
  18 0008 13040101 		addi	s0,sp,16
  19              		.cfi_def_cfa 8, 0
  11:src/riscv.cpp ****     __asm__ volatile ("csrw sepc, ra");
  20              		.loc 1 11 5
  21              		.loc 1 11 39 is_stmt 0
  22              	#APP
  23              	# 11 "src/riscv.cpp" 1
  12              	    __asm__ volatile ("sret");
  24              		csrw sepc, ra
  25              	# 0 "" 2
  26              		.loc 1 12 5 is_stmt 1
  27              		.loc 1 12 30 is_stmt 0
  28              	# 12 "src/riscv.cpp" 1
  13              	}
  29              		sret
  30              	# 0 "" 2
  31              		.loc 1 13 1
  32              	#NO_APP
  33 0014 03348100 		ld	s0,8(sp)
  34              		.cfi_restore 8
  35              		.cfi_def_cfa 2, 16
  36 0018 13010101 		addi	sp,sp,16
  37              		.cfi_def_cfa_offset 0
  38 001c 67800000 		jr	ra
  39              		.cfi_endproc
  40              	.LFE35:
  42              		.section	.rodata.str1.8,"aMS",@progbits,1
  43              		.align	3
  44              	.LC0:
  45 0000 4572726F 		.string	"Error 2\n"
  45      7220320A 
GAS LISTING /tmp/ccBSVtDf.s 			page 2


  45      00
  46 0009 00000000 		.align	3
  46      000000
  47              	.LC1:
  48 0010 4572726F 		.string	"Error 5\n"
  48      7220350A 
  48      00
  49 0019 00000000 		.align	3
  49      000000
  50              	.LC2:
  51 0020 4572726F 		.string	"Error 7\n"
  51      7220370A 
  51      00
  52 0029 00000000 		.align	3
  52      000000
  53              	.LC3:
  54 0030 4572726F 		.string	"Error 8\n"
  54      7220380A 
  54      00
  55              		.text
  56              		.align	2
  57              		.globl	_ZN5Riscv20handleSupervisorTrapEv
  59              	_ZN5Riscv20handleSupervisorTrapEv:
  60              	.LFB36:
  14:src/riscv.cpp **** 
  15:src/riscv.cpp **** void Riscv::handleSupervisorTrap() {
  61              		.loc 1 15 36 is_stmt 1
  62              		.cfi_startproc
  63 0020 130101F9 		addi	sp,sp,-112
  64              		.cfi_def_cfa_offset 112
  65 0024 23341106 		sd	ra,104(sp)
  66 0028 23308106 		sd	s0,96(sp)
  67 002c 233C9104 		sd	s1,88(sp)
  68 0030 23382105 		sd	s2,80(sp)
  69 0034 23343105 		sd	s3,72(sp)
  70              		.cfi_offset 1, -8
  71              		.cfi_offset 8, -16
  72              		.cfi_offset 9, -24
  73              		.cfi_offset 18, -32
  74              		.cfi_offset 19, -40
  75 0038 13040107 		addi	s0,sp,112
  76              		.cfi_def_cfa 8, 0
  16:src/riscv.cpp ****     uint64 scause = r_scause();
  77              		.loc 1 16 5
  78              	.LBB60:
  79              	.LBB61:
  80              		.file 2 "src/../h/riscv.hpp"
   1:src/../h/riscv.hpp **** //
   2:src/../h/riscv.hpp **** // Created by os on 5/12/22.
   3:src/../h/riscv.hpp **** //
   4:src/../h/riscv.hpp **** 
   5:src/../h/riscv.hpp **** #ifndef OSPROJECT_RISCV_HPP
   6:src/../h/riscv.hpp **** #define OSPROJECT_RISCV_HPP
   7:src/../h/riscv.hpp **** 
   8:src/../h/riscv.hpp **** #include "../lib/hw.h"
   9:src/../h/riscv.hpp **** 
  10:src/../h/riscv.hpp **** class Riscv{
GAS LISTING /tmp/ccBSVtDf.s 			page 3


  11:src/../h/riscv.hpp **** public:
  12:src/../h/riscv.hpp **** 
  13:src/../h/riscv.hpp ****     static void popSppSpie();
  14:src/../h/riscv.hpp **** 
  15:src/../h/riscv.hpp ****     //read
  16:src/../h/riscv.hpp ****     static uint64 r_scause();
  17:src/../h/riscv.hpp **** 
  18:src/../h/riscv.hpp ****     //write
  19:src/../h/riscv.hpp ****     static void w_scause(uint64 scause);
  20:src/../h/riscv.hpp **** 
  21:src/../h/riscv.hpp ****     static uint64 r_sepc();
  22:src/../h/riscv.hpp **** 
  23:src/../h/riscv.hpp ****     static void w_sepc(uint64 sepc);
  24:src/../h/riscv.hpp **** 
  25:src/../h/riscv.hpp ****     static uint64 r_stvec();
  26:src/../h/riscv.hpp **** 
  27:src/../h/riscv.hpp ****     static void w_stvec(uint64 stvec);
  28:src/../h/riscv.hpp **** 
  29:src/../h/riscv.hpp ****     static uint64 r_stval();
  30:src/../h/riscv.hpp **** 
  31:src/../h/riscv.hpp ****     static void w_stval(uint64 stval);
  32:src/../h/riscv.hpp **** 
  33:src/../h/riscv.hpp ****     enum BitMaskSip{
  34:src/../h/riscv.hpp ****         SIP_SSIP = (1 << 1),
  35:src/../h/riscv.hpp ****         SIP_STIP = (1 << 5),
  36:src/../h/riscv.hpp ****         SIP_SEIP = (1 << 9),
  37:src/../h/riscv.hpp ****     };
  38:src/../h/riscv.hpp ****     // mask set
  39:src/../h/riscv.hpp ****     static void ms_sip(uint64 mask);
  40:src/../h/riscv.hpp ****     // mask clear
  41:src/../h/riscv.hpp ****     static void mc_sip(uint64 mask);
  42:src/../h/riscv.hpp **** 
  43:src/../h/riscv.hpp ****     static uint64 r_sip();
  44:src/../h/riscv.hpp **** 
  45:src/../h/riscv.hpp ****     static void w_sip(uint64 sip);
  46:src/../h/riscv.hpp **** 
  47:src/../h/riscv.hpp ****     enum BitMaskSstatus{
  48:src/../h/riscv.hpp ****         SSTATUS_SIE = (1 << 1),
  49:src/../h/riscv.hpp ****         SSTATUS_SPIE = (1 << 5),
  50:src/../h/riscv.hpp ****         SSTATUS_SPP = (1 << 8),
  51:src/../h/riscv.hpp ****     };
  52:src/../h/riscv.hpp **** 
  53:src/../h/riscv.hpp ****     static void ms_sstatus(uint64 mask);
  54:src/../h/riscv.hpp **** 
  55:src/../h/riscv.hpp ****     static void mc_sstatus(uint64 mask);
  56:src/../h/riscv.hpp **** 
  57:src/../h/riscv.hpp ****     static uint64 r_sstatus();
  58:src/../h/riscv.hpp **** 
  59:src/../h/riscv.hpp ****     static void w_sstatus(uint64 sstatus);
  60:src/../h/riscv.hpp **** 
  61:src/../h/riscv.hpp ****     static void supervisorTrap();
  62:src/../h/riscv.hpp **** 
  63:src/../h/riscv.hpp **** private:
  64:src/../h/riscv.hpp ****     static void handleSupervisorTrap();
  65:src/../h/riscv.hpp **** };
  66:src/../h/riscv.hpp **** 
  67:src/../h/riscv.hpp **** inline uint64 Riscv::r_scause() {
GAS LISTING /tmp/ccBSVtDf.s 			page 4


  68:src/../h/riscv.hpp ****     uint64 volatile scause;
  81              		.loc 2 68 5
  69:src/../h/riscv.hpp ****     __asm__ volatile ("csrr %[scause], scause" : [scause] "=r"(scause));
  82              		.loc 2 69 5
  83              		.loc 2 69 72 is_stmt 0
  84              	#APP
  85              	# 69 "src/../h/riscv.hpp" 1
  70              	    return scause;
  86              		csrr a5, scause
  87              	# 0 "" 2
  88              	#NO_APP
  89 0040 233CF4F8 		sd	a5,-104(s0)
  90              		.loc 2 70 5 is_stmt 1
  91              		.loc 2 70 12 is_stmt 0
  92 0044 833484F9 		ld	s1,-104(s0)
  93              	.LVL0:
  94              	.LBE61:
  95              	.LBE60:
  17:src/riscv.cpp **** 
  18:src/riscv.cpp ****     // velicina gde cu da mu obavestim koji je poziv
  19:src/riscv.cpp ****     size_t argument0;
  96              		.loc 1 19 5 is_stmt 1
  20:src/riscv.cpp ****     __asm__ volatile("mv %0, a0" : "=r" (argument0));
  97              		.loc 1 20 5
  98              		.loc 1 20 53 is_stmt 0
  99              	#APP
 100              	# 20 "src/riscv.cpp" 1
  21              	
 101              		mv a5, a0
 102              	# 0 "" 2
 103              	.LVL1:
  22:src/riscv.cpp ****     if(argument0 != 0 && scause == 0x0000000000000009UL){
 104              		.loc 1 22 5 is_stmt 1
 105              	#NO_APP
 106              	.LBB62:
 107 004c 63860700 		beqz	a5,.L4
 108              		.loc 1 22 23 is_stmt 0 discriminator 1
 109 0050 13079000 		li	a4,9
 110 0054 6384E406 		beq	s1,a4,.L25
 111              	.L4:
 112              	.LBE62:
  23:src/riscv.cpp ****         // prekopirano od mickovog koda sa laba jedino ovako hoce da radi
  24:src/riscv.cpp ****                 uint64 sepc = r_sepc() + 4; uint64 sstatus = r_sstatus();
  25:src/riscv.cpp **** 
  26:src/riscv.cpp **** 
  27:src/riscv.cpp ****         if(argument0 == 1){ // syscall za mem_alloc
  28:src/riscv.cpp ****             // potrebni argumenti za mem_alloc
  29:src/riscv.cpp ****             size_t argument_sizet;
  30:src/riscv.cpp ****             void* argument_ret_void;
  31:src/riscv.cpp **** 
  32:src/riscv.cpp ****             __asm__ volatile("mv %0, a1" : "=r" (argument_sizet));
  33:src/riscv.cpp ****             argument_ret_void = MemoryAllocator::mem_alloc(argument_sizet);
  34:src/riscv.cpp ****             __asm__ volatile("mv a0, %0" : : "r" (argument_ret_void));
  35:src/riscv.cpp ****         }else if(argument0 == 2){ // sistemski poziv za mem_free
  36:src/riscv.cpp ****             // potrebni argumenti za mem_free
  37:src/riscv.cpp ****             void* argument_void;
  38:src/riscv.cpp **** 
GAS LISTING /tmp/ccBSVtDf.s 			page 5


  39:src/riscv.cpp ****             __asm__ volatile("mv %0, a1" : "=r" (argument_void));
  40:src/riscv.cpp ****             MemoryAllocator::mem_free(argument_void);
  41:src/riscv.cpp ****         }else if(argument0 == 11){
  42:src/riscv.cpp ****             // create_thread
  43:src/riscv.cpp ****             thread_t* handler;
  44:src/riscv.cpp ****             TCB::Body sr = 0;
  45:src/riscv.cpp ****             void* arg = 0;
  46:src/riscv.cpp **** 
  47:src/riscv.cpp ****             __asm__ volatile("mv %0, a1" : "=r" (handler));
  48:src/riscv.cpp ****             __asm__ volatile("mv %0, a2" : "=r" (sr));
  49:src/riscv.cpp ****             __asm__ volatile("mv %0, a3" : "=r" (arg));
  50:src/riscv.cpp **** 
  51:src/riscv.cpp ****             *handler = TCB::createThread(sr);
  52:src/riscv.cpp **** 
  53:src/riscv.cpp ****         }else if(argument0 == 12){
  54:src/riscv.cpp ****             //thread exit nema nikakve argumente samo pozove funkciju ima povratnu vrednost
  55:src/riscv.cpp ****             TCB::exitTCB();
  56:src/riscv.cpp **** 
  57:src/riscv.cpp ****         }else if(argument0 == 13){
  58:src/riscv.cpp ****             // thread_dispatch i on ne prima nikakve argumente
  59:src/riscv.cpp ****             TCB::dispatch();
  60:src/riscv.cpp ****         }else if(argument0 == 21){
  61:src/riscv.cpp ****             // sem_open
  62:src/riscv.cpp ****             sem_t* arg1 = 0;
  63:src/riscv.cpp ****             unsigned arg2 = 0;
  64:src/riscv.cpp **** 
  65:src/riscv.cpp ****             __asm__ volatile("mv %0, a1" : "=r" (arg1));
  66:src/riscv.cpp ****             __asm__ volatile("mv %0, a2" : "=r" (arg2));
  67:src/riscv.cpp **** 
  68:src/riscv.cpp ****             *arg1 = KernelSem::createSem(arg2);
  69:src/riscv.cpp **** 
  70:src/riscv.cpp ****         }else if(argument0 == 22){
  71:src/riscv.cpp ****             // sem_close
  72:src/riscv.cpp **** 
  73:src/riscv.cpp ****             sem_t arg1;
  74:src/riscv.cpp **** 
  75:src/riscv.cpp ****             __asm__ volatile("mv %0, a1" : "=r" (arg1));
  76:src/riscv.cpp **** 
  77:src/riscv.cpp ****             arg1->freeSem();
  78:src/riscv.cpp **** 
  79:src/riscv.cpp ****         }else if(argument0 == 23){
  80:src/riscv.cpp ****             // sem_wait
  81:src/riscv.cpp ****             sem_t arg1;
  82:src/riscv.cpp **** 
  83:src/riscv.cpp ****             __asm__ volatile("mv %0, a1" : "=r" (arg1));
  84:src/riscv.cpp **** 
  85:src/riscv.cpp ****             arg1->wait();
  86:src/riscv.cpp ****         }else if(argument0 == 24){
  87:src/riscv.cpp ****             // sem_signal
  88:src/riscv.cpp ****             sem_t arg1;
  89:src/riscv.cpp **** 
  90:src/riscv.cpp ****             __asm__ volatile("mv %0, a1" : "=r" (arg1));
  91:src/riscv.cpp **** 
  92:src/riscv.cpp ****             arg1->signal();
  93:src/riscv.cpp ****         }else if(argument0 == 41){
  94:src/riscv.cpp ****             // getc
  95:src/riscv.cpp ****             char ret;
GAS LISTING /tmp/ccBSVtDf.s 			page 6


  96:src/riscv.cpp ****             ret = __getc();
  97:src/riscv.cpp **** 
  98:src/riscv.cpp ****             __asm__ volatile("mv a0, %0" : : "r" (ret));
  99:src/riscv.cpp **** 
 100:src/riscv.cpp ****         }else if(argument0 == 42){
 101:src/riscv.cpp ****             // putc
 102:src/riscv.cpp ****             char c;
 103:src/riscv.cpp **** 
 104:src/riscv.cpp ****             __asm__ volatile("mv %0, a1" : "=r" (c));
 105:src/riscv.cpp **** 
 106:src/riscv.cpp ****             __putc(c);
 107:src/riscv.cpp ****         }
 108:src/riscv.cpp **** 
 109:src/riscv.cpp ****         w_sstatus(sstatus); w_sepc(sepc);
 110:src/riscv.cpp ****     }
 111:src/riscv.cpp ****     else if (scause == 0x0000000000000009UL) {
 113              		.loc 1 111 10 is_stmt 1
 114              	.LBB197:
 115              	.LBB63:
 116 0058 93079000 		li	a5,9
 117              	.LVL2:
 118 005c 6382F41A 		beq	s1,a5,.L26
 119              	.LBE63:
 120              	.LBE197:
 112:src/riscv.cpp ****         // interrupt: no; cause code: environment call from S-mode(9)
 113:src/riscv.cpp ****         uint64 sepc = r_sepc() + 4; uint64 sstatus = r_sstatus();
 114:src/riscv.cpp ****         TCB::timeSliceCounter = 0;
 115:src/riscv.cpp ****         TCB::dispatch();
 116:src/riscv.cpp ****         w_sstatus(sstatus); w_sepc(sepc);
 117:src/riscv.cpp ****     } else if (scause == 0x8000000000000001UL) {
 121              		.loc 1 117 12
 122              	.LBB198:
 123              	.LBB91:
 124              	.LBB64:
 125 0060 9307F0FF 		li	a5,-1
 126 0064 9397F703 		slli	a5,a5,63
 127 0068 93871700 		addi	a5,a5,1
 128 006c 6388F41C 		beq	s1,a5,.L27
 118:src/riscv.cpp ****         // interrupt: yes; cause code: supervisor software interrupt (CLINT; machine timer interrup
 119:src/riscv.cpp ****         TCB::timeSliceCounter++;
 120:src/riscv.cpp ****         if (TCB::timeSliceCounter >= TCB::running->getTimeSlice()) {
 121:src/riscv.cpp ****             uint64 sepc = r_sepc(); uint64 sstatus = r_sstatus();
 122:src/riscv.cpp ****             TCB::timeSliceCounter = 0;
 123:src/riscv.cpp ****             TCB::dispatch();
 124:src/riscv.cpp ****             w_sstatus(sstatus); w_sepc(sepc);
 125:src/riscv.cpp ****         }
 126:src/riscv.cpp ****         mc_sip(SIP_SSIP);
 127:src/riscv.cpp ****     } else if (scause == 0x8000000000000009UL) {
 129              		.loc 1 127 12
 130 0070 9307F0FF 		li	a5,-1
 131 0074 9397F703 		slli	a5,a5,63
 132 0078 93879700 		addi	a5,a5,9
 133 007c 6386F422 		beq	s1,a5,.L28
 128:src/riscv.cpp ****         // interrupt: yes; cause code: supervisor external interrupt (PLIC; could be keyboard)
 129:src/riscv.cpp ****         console_handler();
 130:src/riscv.cpp ****     } else {
 131:src/riscv.cpp ****         // unexpected trap cause
GAS LISTING /tmp/ccBSVtDf.s 			page 7


 132:src/riscv.cpp ****         if (scause == 0x0000000000000002UL){
 134              		.loc 1 132 9
 135 0080 93072000 		li	a5,2
 136 0084 6388F422 		beq	s1,a5,.L29
 137              	.L21:
 133:src/riscv.cpp ****             printString("Error 2\n");
 134:src/riscv.cpp ****         }
 135:src/riscv.cpp ****         if (scause == 0x0000000000000005UL){
 138              		.loc 1 135 9
 139 0088 93075000 		li	a5,5
 140 008c 638EF422 		beq	s1,a5,.L30
 141              	.L22:
 136:src/riscv.cpp ****             printString("Error 5\n");
 137:src/riscv.cpp ****         }
 138:src/riscv.cpp ****         if (scause == 0x0000000000000007UL){
 142              		.loc 1 138 9
 143 0090 93077000 		li	a5,7
 144 0094 6384F424 		beq	s1,a5,.L31
 145              	.L23:
 139:src/riscv.cpp ****             printString("Error 7\n");
 140:src/riscv.cpp ****         }
 141:src/riscv.cpp ****         if (scause == 0x0000000000000008UL){
 146              		.loc 1 141 9
 147 0098 93078000 		li	a5,8
 148 009c 638AF424 		beq	s1,a5,.L32
 149              	.LVL3:
 150              	.L3:
 151              	.LBE64:
 152              	.LBE91:
 153              	.LBE198:
 142:src/riscv.cpp ****             printString("Error 8\n");
 143:src/riscv.cpp ****         }
 144:src/riscv.cpp ****         if (scause == 0x0000000000000009UL){
 145:src/riscv.cpp ****             printString("Error 9\n");
 146:src/riscv.cpp ****         }
 147:src/riscv.cpp ****     }
 148:src/riscv.cpp **** }
 154              		.loc 1 148 1 is_stmt 0
 155 00a0 83308106 		ld	ra,104(sp)
 156              		.cfi_remember_state
 157              		.cfi_restore 1
 158 00a4 03340106 		ld	s0,96(sp)
 159              		.cfi_restore 8
 160              		.cfi_def_cfa 2, 112
 161 00a8 83348105 		ld	s1,88(sp)
 162              		.cfi_restore 9
 163 00ac 03390105 		ld	s2,80(sp)
 164              		.cfi_restore 18
 165 00b0 83398104 		ld	s3,72(sp)
 166              		.cfi_restore 19
 167 00b4 13010107 		addi	sp,sp,112
 168              		.cfi_def_cfa_offset 0
 169 00b8 67800000 		jr	ra
 170              	.LVL4:
 171              	.L25:
 172              		.cfi_restore_state
 173              	.LBB199:
GAS LISTING /tmp/ccBSVtDf.s 			page 8


 174              	.LBB92:
  24:src/riscv.cpp **** 
 175              		.loc 1 24 17 is_stmt 1
 176              	.LBB93:
 177              	.LBB94:
  71:src/../h/riscv.hpp **** }
  72:src/../h/riscv.hpp **** 
  73:src/../h/riscv.hpp **** inline void Riscv::w_scause(uint64 scause) {
  74:src/../h/riscv.hpp ****     __asm__ volatile ("csrw scause, %[scause]" : : [scause] "r"(scause));
  75:src/../h/riscv.hpp **** }
  76:src/../h/riscv.hpp **** 
  77:src/../h/riscv.hpp **** inline uint64 Riscv::r_sepc() {
  78:src/../h/riscv.hpp ****     uint64 volatile sepc;
 178              		.loc 2 78 5
  79:src/../h/riscv.hpp ****     __asm__ volatile ("csrr %[sepc], sepc" : [sepc] "=r"(sepc));
 179              		.loc 2 79 5
 180              		.loc 2 79 64 is_stmt 0
 181              	#APP
 182              	# 79 "src/../h/riscv.hpp" 1
  80              	    return sepc;
 183              		csrr a4, sepc
 184              	# 0 "" 2
 185              	#NO_APP
 186 00c0 2334E4FA 		sd	a4,-88(s0)
 187              		.loc 2 80 5 is_stmt 1
 188              		.loc 2 80 12 is_stmt 0
 189 00c4 833484FA 		ld	s1,-88(s0)
 190              	.LVL5:
 191              	.LBE94:
 192              	.LBE93:
  24:src/riscv.cpp **** 
 193              		.loc 1 24 42
 194 00c8 93844400 		addi	s1,s1,4
 195              	.LVL6:
  24:src/riscv.cpp **** 
 196              		.loc 1 24 45 is_stmt 1
 197              	.LBB95:
 198              	.LBB96:
  81:src/../h/riscv.hpp **** }
  82:src/../h/riscv.hpp **** 
  83:src/../h/riscv.hpp **** inline void Riscv::w_sepc(uint64 sepc) {
  84:src/../h/riscv.hpp ****     __asm__ volatile ("csrw sepc, %[sepc]" : : [sepc] "r"(sepc));
  85:src/../h/riscv.hpp **** }
  86:src/../h/riscv.hpp **** 
  87:src/../h/riscv.hpp **** inline uint64 Riscv::r_stvec() {
  88:src/../h/riscv.hpp ****     uint64 volatile stvec;
  89:src/../h/riscv.hpp ****     __asm__ volatile ("csrr %[stvec], stvec" : [stvec] "=r"(stvec));
  90:src/../h/riscv.hpp ****     return stvec;
  91:src/../h/riscv.hpp **** }
  92:src/../h/riscv.hpp **** 
  93:src/../h/riscv.hpp **** inline void Riscv::w_stvec(uint64 stvec) {
  94:src/../h/riscv.hpp ****     __asm__ volatile ("csrw stvec, %[stvec]" : : [stvec] "r"(stvec));
  95:src/../h/riscv.hpp **** }
  96:src/../h/riscv.hpp **** 
  97:src/../h/riscv.hpp **** inline uint64 Riscv::r_stval() {
  98:src/../h/riscv.hpp ****     uint64 volatile stval;
  99:src/../h/riscv.hpp ****     __asm__ volatile ("csrr %[stval], stval" : [stval] "=r"(stval));
GAS LISTING /tmp/ccBSVtDf.s 			page 9


 100:src/../h/riscv.hpp ****     return stval;
 101:src/../h/riscv.hpp **** }
 102:src/../h/riscv.hpp **** 
 103:src/../h/riscv.hpp **** inline void Riscv::w_stval(uint64 stval) {
 104:src/../h/riscv.hpp ****     __asm__ volatile ("csrw stval, %[stval]" : : [stval] "r"(stval));
 105:src/../h/riscv.hpp **** }
 106:src/../h/riscv.hpp **** 
 107:src/../h/riscv.hpp **** inline void Riscv::ms_sip(uint64 mask) {
 108:src/../h/riscv.hpp ****     __asm__ volatile ("csrs sip, %[mask]" : : [mask] "r"(mask));
 109:src/../h/riscv.hpp **** }
 110:src/../h/riscv.hpp **** 
 111:src/../h/riscv.hpp **** inline void Riscv::mc_sip(uint64 mask) {
 112:src/../h/riscv.hpp ****     __asm__ volatile ("csrc sip, %[mask]" : : [mask] "r"(mask));
 113:src/../h/riscv.hpp **** }
 114:src/../h/riscv.hpp **** 
 115:src/../h/riscv.hpp **** inline uint64 Riscv::r_sip() {
 116:src/../h/riscv.hpp ****     uint64 volatile sip;
 117:src/../h/riscv.hpp ****     __asm__ volatile ("csrr %[sip], sip" : [sip] "=r"(sip));
 118:src/../h/riscv.hpp ****     return sip;
 119:src/../h/riscv.hpp **** }
 120:src/../h/riscv.hpp **** 
 121:src/../h/riscv.hpp **** inline void Riscv::w_sip(uint64 sip) {
 122:src/../h/riscv.hpp ****     __asm__ volatile ("csrw sip, %[sip]" : : [sip] "r"(sip));
 123:src/../h/riscv.hpp **** }
 124:src/../h/riscv.hpp **** 
 125:src/../h/riscv.hpp **** inline void Riscv::ms_sstatus(uint64 mask) {
 126:src/../h/riscv.hpp ****     __asm__ volatile ("csrs sstatus, %[mask]" : : [mask] "r"(mask));
 127:src/../h/riscv.hpp **** }
 128:src/../h/riscv.hpp **** 
 129:src/../h/riscv.hpp **** inline void Riscv::mc_sstatus(uint64 mask) {
 130:src/../h/riscv.hpp ****     __asm__ volatile ("csrc sstatus, %[mask]" : : [mask] "r"(mask));
 131:src/../h/riscv.hpp **** }
 132:src/../h/riscv.hpp **** 
 133:src/../h/riscv.hpp **** inline uint64 Riscv::r_sstatus() {
 134:src/../h/riscv.hpp ****     uint64 volatile sstatus;
 199              		.loc 2 134 5
 135:src/../h/riscv.hpp ****     __asm__ volatile ("csrr %[sstatus], sstatus" : [sstatus] "=r"(sstatus));
 200              		.loc 2 135 5
 201              		.loc 2 135 76 is_stmt 0
 202              	#APP
 203              	# 135 "src/../h/riscv.hpp" 1
 136              	    return sstatus;
 204              		csrr a4, sstatus
 205              	# 0 "" 2
 206              	#NO_APP
 207 00d0 2330E4FA 		sd	a4,-96(s0)
 208              		.loc 2 136 5 is_stmt 1
 209              		.loc 2 136 12 is_stmt 0
 210 00d4 033904FA 		ld	s2,-96(s0)
 211              	.LVL7:
 212              	.LBE96:
 213              	.LBE95:
  27:src/riscv.cpp ****             // potrebni argumenti za mem_alloc
 214              		.loc 1 27 9 is_stmt 1
 215              	.LBB97:
 216 00d8 13071000 		li	a4,1
 217 00dc 6384E706 		beq	a5,a4,.L33
GAS LISTING /tmp/ccBSVtDf.s 			page 10


 218              	.LBE97:
 219              	.LBE92:
 220              	.LBE199:
  35:src/riscv.cpp ****             // potrebni argumenti za mem_free
 221              		.loc 1 35 15
 222              	.LBB200:
 223              	.LBB186:
 224              	.LBB171:
 225              	.LBB98:
 226 00e0 13072000 		li	a4,2
 227 00e4 638EE706 		beq	a5,a4,.L34
 228              	.LBE98:
 229              	.LBE171:
 230              	.LBE186:
 231              	.LBE200:
  41:src/riscv.cpp ****             // create_thread
 232              		.loc 1 41 15
 233              	.LBB201:
 234              	.LBB187:
 235              	.LBB172:
 236              	.LBB160:
 237              	.LBB99:
 238 00e8 1307B000 		li	a4,11
 239 00ec 6382E708 		beq	a5,a4,.L35
 240              	.LBE99:
 241              	.LBE160:
 242              	.LBE172:
 243              	.LBE187:
 244              	.LBE201:
  53:src/riscv.cpp ****             //thread exit nema nikakve argumente samo pozove funkciju ima povratnu vrednost
 245              		.loc 1 53 15
 246              	.LBB202:
 247              	.LBB188:
 248              	.LBB173:
 249              	.LBB161:
 250              	.LBB150:
 251              	.LBB100:
 252 00f0 1307C000 		li	a4,12
 253 00f4 638CE708 		beq	a5,a4,.L36
 254              	.LBE100:
 255              	.LBE150:
 256              	.LBE161:
 257              	.LBE173:
 258              	.LBE188:
 259              	.LBE202:
  57:src/riscv.cpp ****             // thread_dispatch i on ne prima nikakve argumente
 260              		.loc 1 57 15
 261              	.LBB203:
 262              	.LBB189:
 263              	.LBB174:
 264              	.LBB162:
 265              	.LBB151:
 266              	.LBB141:
 267              	.LBB101:
 268 00f8 1307D000 		li	a4,13
 269 00fc 638EE708 		beq	a5,a4,.L37
 270              	.LBE101:
GAS LISTING /tmp/ccBSVtDf.s 			page 11


 271              	.LBE141:
 272              	.LBE151:
 273              	.LBE162:
 274              	.LBE174:
 275              	.LBE189:
 276              	.LBE203:
  60:src/riscv.cpp ****             // sem_open
 277              		.loc 1 60 15
 278              	.LBB204:
 279              	.LBB190:
 280              	.LBB175:
 281              	.LBB163:
 282              	.LBB152:
 283              	.LBB142:
 284              	.LBB134:
 285              	.LBB102:
 286 0100 13075001 		li	a4,21
 287 0104 6380E70A 		beq	a5,a4,.L38
 288              	.LBE102:
 289              	.LBE134:
 290              	.LBE142:
 291              	.LBE152:
 292              	.LBE163:
 293              	.LBE175:
 294              	.LBE190:
 295              	.LBE204:
  70:src/riscv.cpp ****             // sem_close
 296              		.loc 1 70 15
 297              	.LBB205:
 298              	.LBB191:
 299              	.LBB176:
 300              	.LBB164:
 301              	.LBB153:
 302              	.LBB143:
 303              	.LBB135:
 304              	.LBB128:
 305              	.LBB103:
 306 0108 13076001 		li	a4,22
 307 010c 638AE70A 		beq	a5,a4,.L39
 308              	.LBE103:
 309              	.LBE128:
 310              	.LBE135:
 311              	.LBE143:
 312              	.LBE153:
 313              	.LBE164:
 314              	.LBE176:
 315              	.LBE191:
 316              	.LBE205:
  79:src/riscv.cpp ****             // sem_wait
 317              		.loc 1 79 15
 318              	.LBB206:
 319              	.LBB192:
 320              	.LBB177:
 321              	.LBB165:
 322              	.LBB154:
 323              	.LBB144:
 324              	.LBB136:
GAS LISTING /tmp/ccBSVtDf.s 			page 12


 325              	.LBB129:
 326              	.LBB122:
 327              	.LBB104:
 328 0110 13077001 		li	a4,23
 329 0114 638EE70A 		beq	a5,a4,.L40
 330              	.LBE104:
 331              	.LBE122:
 332              	.LBE129:
 333              	.LBE136:
 334              	.LBE144:
 335              	.LBE154:
 336              	.LBE165:
 337              	.LBE177:
 338              	.LBE192:
 339              	.LBE206:
  86:src/riscv.cpp ****             // sem_signal
 340              		.loc 1 86 15
 341              	.LBB207:
 342              	.LBB193:
 343              	.LBB178:
 344              	.LBB166:
 345              	.LBB155:
 346              	.LBB145:
 347              	.LBB137:
 348              	.LBB130:
 349              	.LBB123:
 350              	.LBB117:
 351              	.LBB105:
 352 0118 13078001 		li	a4,24
 353 011c 6382E70C 		beq	a5,a4,.L41
 354              	.LBE105:
 355              	.LBE117:
 356              	.LBE123:
 357              	.LBE130:
 358              	.LBE137:
 359              	.LBE145:
 360              	.LBE155:
 361              	.LBE166:
 362              	.LBE178:
 363              	.LBE193:
 364              	.LBE207:
  93:src/riscv.cpp ****             // getc
 365              		.loc 1 93 15
 366              	.LBB208:
 367              	.LBB194:
 368              	.LBB179:
 369              	.LBB167:
 370              	.LBB156:
 371              	.LBB146:
 372              	.LBB138:
 373              	.LBB131:
 374              	.LBB124:
 375              	.LBB118:
 376              	.LBB113:
 377              	.LBB106:
 378 0120 13079002 		li	a4,41
 379 0124 6386E70C 		beq	a5,a4,.L42
GAS LISTING /tmp/ccBSVtDf.s 			page 13


 380              	.LBE106:
 381              	.LBE113:
 382              	.LBE118:
 383              	.LBE124:
 384              	.LBE131:
 385              	.LBE138:
 386              	.LBE146:
 387              	.LBE156:
 388              	.LBE167:
 389              	.LBE179:
 390              	.LBE194:
 391              	.LBE208:
 100:src/riscv.cpp ****             // putc
 392              		.loc 1 100 15
 393              	.LBB209:
 394              	.LBB195:
 395              	.LBB180:
 396              	.LBB168:
 397              	.LBB157:
 398              	.LBB147:
 399              	.LBB139:
 400              	.LBB132:
 401              	.LBB125:
 402              	.LBB119:
 403              	.LBB114:
 404              	.LBB110:
 405              	.LBB107:
 406 0128 1307A002 		li	a4,42
 407 012c 6394E702 		bne	a5,a4,.L6
 408              	.LBB108:
 102:src/riscv.cpp **** 
 409              		.loc 1 102 13
 104:src/riscv.cpp **** 
 410              		.loc 1 104 13
 104:src/riscv.cpp **** 
 411              		.loc 1 104 53 is_stmt 0
 412              	#APP
 413              	# 104 "src/riscv.cpp" 1
 414              		mv a0, a1
 415              	# 0 "" 2
 416              	.LVL8:
 106:src/riscv.cpp ****         }
 417              		.loc 1 106 13 is_stmt 1
 106:src/riscv.cpp ****         }
 418              		.loc 1 106 19 is_stmt 0
 419              	#NO_APP
 420 0134 1375F50F 		andi	a0,a0,0xff
 421 0138 97000000 		call	__putc@plt
 421      E7800000 
 422              	.LVL9:
 423              	.LBE108:
 424 0140 6F004001 		j	.L6
 425              	.LVL10:
 426              	.L33:
 427              	.LBE107:
 428              	.LBE110:
 429              	.LBE114:
GAS LISTING /tmp/ccBSVtDf.s 			page 14


 430              	.LBE119:
 431              	.LBE125:
 432              	.LBE132:
 433              	.LBE139:
 434              	.LBE147:
 435              	.LBE157:
 436              	.LBE168:
 437              	.LBB169:
  29:src/riscv.cpp ****             void* argument_ret_void;
 438              		.loc 1 29 13 is_stmt 1
  30:src/riscv.cpp **** 
 439              		.loc 1 30 13
  32:src/riscv.cpp ****             argument_ret_void = MemoryAllocator::mem_alloc(argument_sizet);
 440              		.loc 1 32 13
  32:src/riscv.cpp ****             argument_ret_void = MemoryAllocator::mem_alloc(argument_sizet);
 441              		.loc 1 32 66 is_stmt 0
 442              	#APP
 443              	# 32 "src/riscv.cpp" 1
 444              		mv a0, a1
 445              	# 0 "" 2
 446              	.LVL11:
  33:src/riscv.cpp ****             __asm__ volatile("mv a0, %0" : : "r" (argument_ret_void));
 447              		.loc 1 33 13 is_stmt 1
  33:src/riscv.cpp ****             __asm__ volatile("mv a0, %0" : : "r" (argument_ret_void));
 448              		.loc 1 33 59 is_stmt 0
 449              	#NO_APP
 450 0148 97000000 		call	_ZN15MemoryAllocator9mem_allocEm@plt
 450      E7800000 
 451              	.LVL12:
  34:src/riscv.cpp ****         }else if(argument0 == 2){ // sistemski poziv za mem_free
 452              		.loc 1 34 13 is_stmt 1
  34:src/riscv.cpp ****         }else if(argument0 == 2){ // sistemski poziv za mem_free
 453              		.loc 1 34 70 is_stmt 0
 454              	#APP
 455              	# 34 "src/riscv.cpp" 1
 456              		mv a0, a0
 457              	# 0 "" 2
 458              	.LVL13:
 459              	#NO_APP
 460              	.L6:
 461              	.LBE169:
 462              	.LBE180:
 109:src/riscv.cpp ****     }
 463              		.loc 1 109 9 is_stmt 1
 464              	.LBB181:
 465              	.LBB182:
 137:src/../h/riscv.hpp **** }
 138:src/../h/riscv.hpp **** inline void Riscv::w_sstatus(uint64 sstatus) {
 139:src/../h/riscv.hpp ****     __asm__ volatile ("csrw sstatus, %[sstatus]" : : [sstatus] "r"(sstatus));
 466              		.loc 2 139 5
 467              		.loc 2 139 77 is_stmt 0
 468              	#APP
 469              	# 139 "src/../h/riscv.hpp" 1
 140              	}
 470              		csrw sstatus, s2
 471              	# 0 "" 2
 472              	.LVL14:
GAS LISTING /tmp/ccBSVtDf.s 			page 15


 473              	#NO_APP
 474              	.LBE182:
 475              	.LBE181:
 109:src/riscv.cpp ****     }
 476              		.loc 1 109 29 is_stmt 1
 477              	.LBB183:
 478              	.LBB184:
  84:src/../h/riscv.hpp **** }
 479              		.loc 2 84 5
  84:src/../h/riscv.hpp **** }
 480              		.loc 2 84 65 is_stmt 0
 481              	#APP
 482              	# 84 "src/../h/riscv.hpp" 1
  85:src/../h/riscv.hpp **** 
 483              		csrw sepc, s1
 484              	# 0 "" 2
 485              		.loc 2 85 1
 486              	#NO_APP
 487 015c 6FF05FF4 		j	.L3
 488              	.LVL15:
 489              	.L34:
 490              	.LBE184:
 491              	.LBE183:
 492              	.LBB185:
 493              	.LBB170:
 494              	.LBB158:
  37:src/riscv.cpp **** 
 495              		.loc 1 37 13 is_stmt 1
  39:src/riscv.cpp ****             MemoryAllocator::mem_free(argument_void);
 496              		.loc 1 39 13
  39:src/riscv.cpp ****             MemoryAllocator::mem_free(argument_void);
 497              		.loc 1 39 65 is_stmt 0
 498              	#APP
 499              	# 39 "src/riscv.cpp" 1
 500              		mv a0, a1
 501              	# 0 "" 2
 502              	.LVL16:
  40:src/riscv.cpp ****         }else if(argument0 == 11){
 503              		.loc 1 40 13 is_stmt 1
  40:src/riscv.cpp ****         }else if(argument0 == 11){
 504              		.loc 1 40 38 is_stmt 0
 505              	#NO_APP
 506 0164 97000000 		call	_ZN15MemoryAllocator8mem_freeEPv@plt
 506      E7800000 
 507              	.LVL17:
 508              	.LBE158:
 509 016c 6FF09FFE 		j	.L6
 510              	.LVL18:
 511              	.L35:
 512              	.LBB159:
 513              	.LBB148:
  43:src/riscv.cpp ****             TCB::Body sr = 0;
 514              		.loc 1 43 13 is_stmt 1
  44:src/riscv.cpp ****             void* arg = 0;
 515              		.loc 1 44 13
  45:src/riscv.cpp **** 
 516              		.loc 1 45 13
GAS LISTING /tmp/ccBSVtDf.s 			page 16


  47:src/riscv.cpp ****             __asm__ volatile("mv %0, a2" : "=r" (sr));
 517              		.loc 1 47 13
  47:src/riscv.cpp ****             __asm__ volatile("mv %0, a2" : "=r" (sr));
 518              		.loc 1 47 59 is_stmt 0
 519              	#APP
 520              	# 47 "src/riscv.cpp" 1
 521              		mv s3, a1
 522              	# 0 "" 2
 523              	.LVL19:
  48:src/riscv.cpp ****             __asm__ volatile("mv %0, a3" : "=r" (arg));
 524              		.loc 1 48 13 is_stmt 1
  48:src/riscv.cpp ****             __asm__ volatile("mv %0, a3" : "=r" (arg));
 525              		.loc 1 48 54 is_stmt 0
 526              	# 48 "src/riscv.cpp" 1
 527              		mv a0, a2
 528              	# 0 "" 2
 529              	.LVL20:
  49:src/riscv.cpp **** 
 530              		.loc 1 49 13 is_stmt 1
  49:src/riscv.cpp **** 
 531              		.loc 1 49 55 is_stmt 0
 532              	# 49 "src/riscv.cpp" 1
 533              		mv a5, a3
 534              	# 0 "" 2
 535              	.LVL21:
  51:src/riscv.cpp **** 
 536              		.loc 1 51 13 is_stmt 1
  51:src/riscv.cpp **** 
 537              		.loc 1 51 41 is_stmt 0
 538              	#NO_APP
 539 017c 97000000 		call	_ZN3TCB12createThreadEPFvvE@plt
 539      E7800000 
 540              	.LVL22:
  51:src/riscv.cpp **** 
 541              		.loc 1 51 22
 542 0184 23B0A900 		sd	a0,0(s3)
 543              	.LBE148:
 544 0188 6FF0DFFC 		j	.L6
 545              	.LVL23:
 546              	.L36:
 547              	.LBB149:
  55:src/riscv.cpp **** 
 548              		.loc 1 55 13 is_stmt 1
  55:src/riscv.cpp **** 
 549              		.loc 1 55 25 is_stmt 0
 550 018c 97000000 		call	_ZN3TCB7exitTCBEv@plt
 550      E7800000 
 551              	.LVL24:
 552 0194 6FF01FFC 		j	.L6
 553              	.LVL25:
 554              	.L37:
 555              	.LBB140:
  59:src/riscv.cpp ****         }else if(argument0 == 21){
 556              		.loc 1 59 13 is_stmt 1
  59:src/riscv.cpp ****         }else if(argument0 == 21){
 557              		.loc 1 59 26 is_stmt 0
 558 0198 97000000 		call	_ZN3TCB8dispatchEv@plt
GAS LISTING /tmp/ccBSVtDf.s 			page 17


 558      E7800000 
 559              	.LVL26:
 560 01a0 6FF05FFB 		j	.L6
 561              	.LVL27:
 562              	.L38:
 563              	.LBB133:
 564              	.LBB126:
  62:src/riscv.cpp ****             unsigned arg2 = 0;
 565              		.loc 1 62 13 is_stmt 1
  63:src/riscv.cpp **** 
 566              		.loc 1 63 13
  65:src/riscv.cpp ****             __asm__ volatile("mv %0, a2" : "=r" (arg2));
 567              		.loc 1 65 13
  65:src/riscv.cpp ****             __asm__ volatile("mv %0, a2" : "=r" (arg2));
 568              		.loc 1 65 56 is_stmt 0
 569              	#APP
 570              	# 65 "src/riscv.cpp" 1
 571              		mv s3, a1
 572              	# 0 "" 2
 573              	.LVL28:
  66:src/riscv.cpp **** 
 574              		.loc 1 66 13 is_stmt 1
  66:src/riscv.cpp **** 
 575              		.loc 1 66 56 is_stmt 0
 576              	# 66 "src/riscv.cpp" 1
 577              		mv a0, a2
 578              	# 0 "" 2
 579              	.LVL29:
  68:src/riscv.cpp **** 
 580              		.loc 1 68 13 is_stmt 1
  68:src/riscv.cpp **** 
 581              		.loc 1 68 41 is_stmt 0
 582              	#NO_APP
 583 01ac 1B050500 		sext.w	a0,a0
 584 01b0 97000000 		call	_ZN9KernelSem9createSemEi@plt
 584      E7800000 
 585              	.LVL30:
  68:src/riscv.cpp **** 
 586              		.loc 1 68 19
 587 01b8 23B0A900 		sd	a0,0(s3)
 588              	.LBE126:
 589 01bc 6FF09FF9 		j	.L6
 590              	.LVL31:
 591              	.L39:
 592              	.LBB127:
 593              	.LBB120:
  73:src/riscv.cpp **** 
 594              		.loc 1 73 13 is_stmt 1
  75:src/riscv.cpp **** 
 595              		.loc 1 75 13
  75:src/riscv.cpp **** 
 596              		.loc 1 75 56 is_stmt 0
 597              	#APP
 598              	# 75 "src/riscv.cpp" 1
 599              		mv a0, a1
 600              	# 0 "" 2
 601              	.LVL32:
GAS LISTING /tmp/ccBSVtDf.s 			page 18


  77:src/riscv.cpp **** 
 602              		.loc 1 77 13 is_stmt 1
  77:src/riscv.cpp **** 
 603              		.loc 1 77 26 is_stmt 0
 604              	#NO_APP
 605 01c4 97000000 		call	_ZN9KernelSem7freeSemEv@plt
 605      E7800000 
 606              	.LVL33:
 607              	.LBE120:
 608 01cc 6FF09FF8 		j	.L6
 609              	.LVL34:
 610              	.L40:
 611              	.LBB121:
 612              	.LBB115:
  81:src/riscv.cpp **** 
 613              		.loc 1 81 13 is_stmt 1
  83:src/riscv.cpp **** 
 614              		.loc 1 83 13
  83:src/riscv.cpp **** 
 615              		.loc 1 83 56 is_stmt 0
 616              	#APP
 617              	# 83 "src/riscv.cpp" 1
 618              		mv a0, a1
 619              	# 0 "" 2
 620              	.LVL35:
  85:src/riscv.cpp ****         }else if(argument0 == 24){
 621              		.loc 1 85 13 is_stmt 1
  85:src/riscv.cpp ****         }else if(argument0 == 24){
 622              		.loc 1 85 23 is_stmt 0
 623              	#NO_APP
 624 01d4 97000000 		call	_ZN9KernelSem4waitEv@plt
 624      E7800000 
 625              	.LVL36:
 626              	.LBE115:
 627 01dc 6FF09FF7 		j	.L6
 628              	.LVL37:
 629              	.L41:
 630              	.LBB116:
 631              	.LBB111:
  88:src/riscv.cpp **** 
 632              		.loc 1 88 13 is_stmt 1
  90:src/riscv.cpp **** 
 633              		.loc 1 90 13
  90:src/riscv.cpp **** 
 634              		.loc 1 90 56 is_stmt 0
 635              	#APP
 636              	# 90 "src/riscv.cpp" 1
 637              		mv a0, a1
 638              	# 0 "" 2
 639              	.LVL38:
  92:src/riscv.cpp ****         }else if(argument0 == 41){
 640              		.loc 1 92 13 is_stmt 1
  92:src/riscv.cpp ****         }else if(argument0 == 41){
 641              		.loc 1 92 25 is_stmt 0
 642              	#NO_APP
 643 01e4 97000000 		call	_ZN9KernelSem6signalEv@plt
 643      E7800000 
GAS LISTING /tmp/ccBSVtDf.s 			page 19


 644              	.LVL39:
 645              	.LBE111:
 646 01ec 6FF09FF6 		j	.L6
 647              	.LVL40:
 648              	.L42:
 649              	.LBB112:
 650              	.LBB109:
  95:src/riscv.cpp ****             ret = __getc();
 651              		.loc 1 95 13 is_stmt 1
  96:src/riscv.cpp **** 
 652              		.loc 1 96 13
  96:src/riscv.cpp **** 
 653              		.loc 1 96 25 is_stmt 0
 654 01f0 97000000 		call	__getc@plt
 654      E7800000 
 655              	.LVL41:
  98:src/riscv.cpp **** 
 656              		.loc 1 98 13 is_stmt 1
  98:src/riscv.cpp **** 
 657              		.loc 1 98 56 is_stmt 0
 658              	#APP
 659              	# 98 "src/riscv.cpp" 1
 660              		mv a0, a0
 661              	# 0 "" 2
 662              	#NO_APP
 663              	.LBE109:
 664 01fc 6FF09FF5 		j	.L6
 665              	.LVL42:
 666              	.L26:
 667              	.LBE112:
 668              	.LBE116:
 669              	.LBE121:
 670              	.LBE127:
 671              	.LBE133:
 672              	.LBE140:
 673              	.LBE149:
 674              	.LBE159:
 675              	.LBE170:
 676              	.LBE185:
 677              	.LBE195:
 678              	.LBB196:
 679              	.LBB81:
 113:src/riscv.cpp ****         TCB::timeSliceCounter = 0;
 680              		.loc 1 113 9 is_stmt 1
 681              	.LBB82:
 682              	.LBB83:
  78:src/../h/riscv.hpp ****     __asm__ volatile ("csrr %[sepc], sepc" : [sepc] "=r"(sepc));
 683              		.loc 2 78 5
  79:src/../h/riscv.hpp ****     return sepc;
 684              		.loc 2 79 5
  79:src/../h/riscv.hpp ****     return sepc;
 685              		.loc 2 79 64 is_stmt 0
 686              	#APP
 687              	# 79 "src/../h/riscv.hpp" 1
 688              		csrr a5, sepc
 689              	# 0 "" 2
 690              	#NO_APP
GAS LISTING /tmp/ccBSVtDf.s 			page 20


 691 0204 233CF4FA 		sd	a5,-72(s0)
  80:src/../h/riscv.hpp **** }
 692              		.loc 2 80 5 is_stmt 1
  80:src/../h/riscv.hpp **** }
 693              		.loc 2 80 12 is_stmt 0
 694 0208 833484FB 		ld	s1,-72(s0)
 695              	.LVL43:
 696              	.LBE83:
 697              	.LBE82:
 113:src/riscv.cpp ****         TCB::timeSliceCounter = 0;
 698              		.loc 1 113 34
 699 020c 93844400 		addi	s1,s1,4
 700              	.LVL44:
 113:src/riscv.cpp ****         TCB::timeSliceCounter = 0;
 701              		.loc 1 113 37 is_stmt 1
 702              	.LBB84:
 703              	.LBB85:
 134:src/../h/riscv.hpp ****     __asm__ volatile ("csrr %[sstatus], sstatus" : [sstatus] "=r"(sstatus));
 704              		.loc 2 134 5
 135:src/../h/riscv.hpp ****     return sstatus;
 705              		.loc 2 135 5
 135:src/../h/riscv.hpp ****     return sstatus;
 706              		.loc 2 135 76 is_stmt 0
 707              	#APP
 708              	# 135 "src/../h/riscv.hpp" 1
 709              		csrr a5, sstatus
 710              	# 0 "" 2
 711              	#NO_APP
 712 0214 2338F4FA 		sd	a5,-80(s0)
 136:src/../h/riscv.hpp **** }
 713              		.loc 2 136 5 is_stmt 1
 136:src/../h/riscv.hpp **** }
 714              		.loc 2 136 12 is_stmt 0
 715 0218 033904FB 		ld	s2,-80(s0)
 716              	.LVL45:
 717              	.LBE85:
 718              	.LBE84:
 114:src/riscv.cpp ****         TCB::dispatch();
 719              		.loc 1 114 9 is_stmt 1
 114:src/riscv.cpp ****         TCB::dispatch();
 720              		.loc 1 114 31 is_stmt 0
 721 021c 97070000 		la	a5,_ZN3TCB16timeSliceCounterE
 721      83B70700 
 722 0224 23B00700 		sd	zero,0(a5)
 115:src/riscv.cpp ****         w_sstatus(sstatus); w_sepc(sepc);
 723              		.loc 1 115 9 is_stmt 1
 115:src/riscv.cpp ****         w_sstatus(sstatus); w_sepc(sepc);
 724              		.loc 1 115 22 is_stmt 0
 725 0228 97000000 		call	_ZN3TCB8dispatchEv@plt
 725      E7800000 
 726              	.LVL46:
 116:src/riscv.cpp ****     } else if (scause == 0x8000000000000001UL) {
 727              		.loc 1 116 9 is_stmt 1
 728              	.LBB86:
 729              	.LBB87:
 139:src/../h/riscv.hpp **** }
 730              		.loc 2 139 5
GAS LISTING /tmp/ccBSVtDf.s 			page 21


 139:src/../h/riscv.hpp **** }
 731              		.loc 2 139 77 is_stmt 0
 732              	#APP
 733              	# 139 "src/../h/riscv.hpp" 1
 734              		csrw sstatus, s2
 735              	# 0 "" 2
 736              	.LVL47:
 737              	#NO_APP
 738              	.LBE87:
 739              	.LBE86:
 116:src/riscv.cpp ****     } else if (scause == 0x8000000000000001UL) {
 740              		.loc 1 116 29 is_stmt 1
 741              	.LBB88:
 742              	.LBB89:
  84:src/../h/riscv.hpp **** }
 743              		.loc 2 84 5
  84:src/../h/riscv.hpp **** }
 744              		.loc 2 84 65 is_stmt 0
 745              	#APP
 746              	# 84 "src/../h/riscv.hpp" 1
  85:src/../h/riscv.hpp **** 
 747              		csrw sepc, s1
 748              	# 0 "" 2
 749              		.loc 2 85 1
 750              	#NO_APP
 751 0238 6FF09FE6 		j	.L3
 752              	.LVL48:
 753              	.L27:
 754              	.LBE89:
 755              	.LBE88:
 756              	.LBE81:
 757              	.LBB90:
 758              	.LBB65:
 119:src/riscv.cpp ****         if (TCB::timeSliceCounter >= TCB::running->getTimeSlice()) {
 759              		.loc 1 119 9 is_stmt 1
 119:src/riscv.cpp ****         if (TCB::timeSliceCounter >= TCB::running->getTimeSlice()) {
 760              		.loc 1 119 30 is_stmt 0
 761 023c 17070000 		la	a4,_ZN3TCB16timeSliceCounterE
 761      03370700 
 762 0244 83370700 		ld	a5,0(a4)
 763 0248 93871700 		addi	a5,a5,1
 764 024c 2330F700 		sd	a5,0(a4)
 120:src/riscv.cpp ****             uint64 sepc = r_sepc(); uint64 sstatus = r_sstatus();
 765              		.loc 1 120 9 is_stmt 1
 766              	.LBB66:
 120:src/riscv.cpp ****             uint64 sepc = r_sepc(); uint64 sstatus = r_sstatus();
 767              		.loc 1 120 64 is_stmt 0
 768 0250 17070000 		la	a4,_ZN3TCB7runningE
 768      03370700 
 769 0258 03370700 		ld	a4,0(a4)
 770              	.LVL49:
 771              	.LBB67:
 772              	.LBB68:
 773              		.file 3 "src/../h/tcb.hpp"
   1:src/../h/tcb.hpp **** //
   2:src/../h/tcb.hpp **** // Created by os on 5/12/22.
   3:src/../h/tcb.hpp **** //
GAS LISTING /tmp/ccBSVtDf.s 			page 22


   4:src/../h/tcb.hpp **** 
   5:src/../h/tcb.hpp **** #ifndef OSPROJECT_TCB_HPP
   6:src/../h/tcb.hpp **** #define OSPROJECT_TCB_HPP
   7:src/../h/tcb.hpp **** 
   8:src/../h/tcb.hpp **** #include "../lib/hw.h"
   9:src/../h/tcb.hpp **** #include "../h/syscall_cpp.hpp"
  10:src/../h/tcb.hpp **** 
  11:src/../h/tcb.hpp **** class Thread;
  12:src/../h/tcb.hpp **** 
  13:src/../h/tcb.hpp **** class TCB {
  14:src/../h/tcb.hpp ****         public:
  15:src/../h/tcb.hpp ****         ~TCB() { delete[] stack; }
  16:src/../h/tcb.hpp ****         bool isFinished() const { return finished; }
  17:src/../h/tcb.hpp ****         void setFinished(bool value) { finished = value; }
  18:src/../h/tcb.hpp ****         uint64 getTimeSlice() const { return timeSlice; }
 774              		.loc 3 18 39 is_stmt 1
 775              		.loc 3 18 46 is_stmt 0
 776 025c 03370702 		ld	a4,32(a4)
 777              	.LVL50:
 778              	.LBE68:
 779              	.LBE67:
 120:src/riscv.cpp ****             uint64 sepc = r_sepc(); uint64 sstatus = r_sstatus();
 780              		.loc 1 120 9
 781 0260 63F8E700 		bgeu	a5,a4,.L43
 782              	.LVL51:
 783              	.L19:
 784              	.LBE66:
 126:src/riscv.cpp ****     } else if (scause == 0x8000000000000009UL) {
 785              		.loc 1 126 9 is_stmt 1
 786              	.LBB78:
 787              	.LBB79:
 112:src/../h/riscv.hpp **** }
 788              		.loc 2 112 5
 112:src/../h/riscv.hpp **** }
 789              		.loc 2 112 64 is_stmt 0
 790 0264 93072000 		li	a5,2
 791              	#APP
 792              	# 112 "src/../h/riscv.hpp" 1
 113:src/../h/riscv.hpp **** 
 793              		csrc sip, a5
 794              	# 0 "" 2
 795              		.loc 2 113 1
 796              	#NO_APP
 797 026c 6FF05FE3 		j	.L3
 798              	.LVL52:
 799              	.L43:
 800              	.LBE79:
 801              	.LBE78:
 802              	.LBB80:
 803              	.LBB69:
 121:src/riscv.cpp ****             TCB::timeSliceCounter = 0;
 804              		.loc 1 121 13 is_stmt 1
 805              	.LBB70:
 806              	.LBB71:
  78:src/../h/riscv.hpp ****     __asm__ volatile ("csrr %[sepc], sepc" : [sepc] "=r"(sepc));
 807              		.loc 2 78 5
  79:src/../h/riscv.hpp ****     return sepc;
GAS LISTING /tmp/ccBSVtDf.s 			page 23


 808              		.loc 2 79 5
  79:src/../h/riscv.hpp ****     return sepc;
 809              		.loc 2 79 64 is_stmt 0
 810              	#APP
 811              	# 79 "src/../h/riscv.hpp" 1
 812              		csrr a5, sepc
 813              	# 0 "" 2
 814              	#NO_APP
 815 0274 2334F4FC 		sd	a5,-56(s0)
  80:src/../h/riscv.hpp **** }
 816              		.loc 2 80 5 is_stmt 1
  80:src/../h/riscv.hpp **** }
 817              		.loc 2 80 12 is_stmt 0
 818 0278 833484FC 		ld	s1,-56(s0)
 819              	.LVL53:
 820              	.LBE71:
 821              	.LBE70:
 121:src/riscv.cpp ****             TCB::timeSliceCounter = 0;
 822              		.loc 1 121 37 is_stmt 1
 823              	.LBB72:
 824              	.LBB73:
 134:src/../h/riscv.hpp ****     __asm__ volatile ("csrr %[sstatus], sstatus" : [sstatus] "=r"(sstatus));
 825              		.loc 2 134 5
 135:src/../h/riscv.hpp ****     return sstatus;
 826              		.loc 2 135 5
 135:src/../h/riscv.hpp ****     return sstatus;
 827              		.loc 2 135 76 is_stmt 0
 828              	#APP
 829              	# 135 "src/../h/riscv.hpp" 1
 830              		csrr a5, sstatus
 831              	# 0 "" 2
 832              	#NO_APP
 833 0280 2330F4FC 		sd	a5,-64(s0)
 136:src/../h/riscv.hpp **** }
 834              		.loc 2 136 5 is_stmt 1
 136:src/../h/riscv.hpp **** }
 835              		.loc 2 136 12 is_stmt 0
 836 0284 033904FC 		ld	s2,-64(s0)
 837              	.LVL54:
 838              	.LBE73:
 839              	.LBE72:
 122:src/riscv.cpp ****             TCB::dispatch();
 840              		.loc 1 122 13 is_stmt 1
 122:src/riscv.cpp ****             TCB::dispatch();
 841              		.loc 1 122 35 is_stmt 0
 842 0288 97070000 		la	a5,_ZN3TCB16timeSliceCounterE
 842      83B70700 
 843 0290 23B00700 		sd	zero,0(a5)
 123:src/riscv.cpp ****             w_sstatus(sstatus); w_sepc(sepc);
 844              		.loc 1 123 13 is_stmt 1
 123:src/riscv.cpp ****             w_sstatus(sstatus); w_sepc(sepc);
 845              		.loc 1 123 26 is_stmt 0
 846 0294 97000000 		call	_ZN3TCB8dispatchEv@plt
 846      E7800000 
 847              	.LVL55:
 124:src/riscv.cpp ****         }
 848              		.loc 1 124 13 is_stmt 1
GAS LISTING /tmp/ccBSVtDf.s 			page 24


 849              	.LBB74:
 850              	.LBB75:
 139:src/../h/riscv.hpp **** }
 851              		.loc 2 139 5
 139:src/../h/riscv.hpp **** }
 852              		.loc 2 139 77 is_stmt 0
 853              	#APP
 854              	# 139 "src/../h/riscv.hpp" 1
 855              		csrw sstatus, s2
 856              	# 0 "" 2
 857              	.LVL56:
 858              	#NO_APP
 859              	.LBE75:
 860              	.LBE74:
 124:src/riscv.cpp ****         }
 861              		.loc 1 124 33 is_stmt 1
 862              	.LBB76:
 863              	.LBB77:
  84:src/../h/riscv.hpp **** }
 864              		.loc 2 84 5
  84:src/../h/riscv.hpp **** }
 865              		.loc 2 84 65 is_stmt 0
 866              	#APP
 867              	# 84 "src/../h/riscv.hpp" 1
  85:src/../h/riscv.hpp **** 
 868              		csrw sepc, s1
 869              	# 0 "" 2
 870              		.loc 2 85 1
 871              	#NO_APP
 872 02a4 6FF01FFC 		j	.L19
 873              	.LVL57:
 874              	.L28:
 875              	.LBE77:
 876              	.LBE76:
 877              	.LBE69:
 878              	.LBE80:
 879              	.LBE65:
 129:src/riscv.cpp ****     } else {
 880              		.loc 1 129 9 is_stmt 1
 129:src/riscv.cpp ****     } else {
 881              		.loc 1 129 24 is_stmt 0
 882 02a8 97000000 		call	console_handler@plt
 882      E7800000 
 883              	.LVL58:
 884 02b0 6FF01FDF 		j	.L3
 885              	.L29:
 133:src/riscv.cpp ****         }
 886              		.loc 1 133 13 is_stmt 1
 133:src/riscv.cpp ****         }
 887              		.loc 1 133 24 is_stmt 0
 888 02b4 17050000 		lla	a0,.LC0
 888      13050500 
 889 02bc 97000000 		call	_Z11printStringPKc@plt
 889      E7800000 
 890              	.LVL59:
 891 02c4 6FF05FDC 		j	.L21
 892              	.L30:
GAS LISTING /tmp/ccBSVtDf.s 			page 25


 136:src/riscv.cpp ****         }
 893              		.loc 1 136 13 is_stmt 1
 136:src/riscv.cpp ****         }
 894              		.loc 1 136 24 is_stmt 0
 895 02c8 17050000 		lla	a0,.LC1
 895      13050500 
 896 02d0 97000000 		call	_Z11printStringPKc@plt
 896      E7800000 
 897              	.LVL60:
 898 02d8 6FF09FDB 		j	.L22
 899              	.L31:
 139:src/riscv.cpp ****         }
 900              		.loc 1 139 13 is_stmt 1
 139:src/riscv.cpp ****         }
 901              		.loc 1 139 24 is_stmt 0
 902 02dc 17050000 		lla	a0,.LC2
 902      13050500 
 903 02e4 97000000 		call	_Z11printStringPKc@plt
 903      E7800000 
 904              	.LVL61:
 905 02ec 6FF0DFDA 		j	.L23
 906              	.L32:
 142:src/riscv.cpp ****         }
 907              		.loc 1 142 13 is_stmt 1
 142:src/riscv.cpp ****         }
 908              		.loc 1 142 24 is_stmt 0
 909 02f0 17050000 		lla	a0,.LC3
 909      13050500 
 910 02f8 97000000 		call	_Z11printStringPKc@plt
 910      E7800000 
 911              	.LVL62:
 912              	.LBE90:
 913              	.LBE196:
 914              	.LBE209:
 915              		.loc 1 148 1
 916 0300 6FF01FDA 		j	.L3
 917              		.cfi_endproc
 918              	.LFE36:
 920              	.Letext0:
 921              		.file 4 "src/../h/../lib/hw.h"
 922              		.file 5 "src/../h/../h/syscall_c.hpp"
 923              		.file 6 "src/../h/../h/KernelSem.hpp"
 924              		.file 7 "src/../h/MemoryAllocator.hpp"
 925              		.file 8 "src/../lib/console.h"
 926              		.file 9 "src/../h/printing.hpp"
GAS LISTING /tmp/ccBSVtDf.s 			page 26


DEFINED SYMBOLS
                            *ABS*:0000000000000000 riscv.cpp
     /tmp/ccBSVtDf.s:9      .text:0000000000000000 _ZN5Riscv10popSppSpieEv
     /tmp/ccBSVtDf.s:13     .text:0000000000000000 .L0 
     /tmp/ccBSVtDf.s:14     .text:0000000000000000 .L0 
     /tmp/ccBSVtDf.s:15     .text:0000000000000004 .L0 
     /tmp/ccBSVtDf.s:17     .text:0000000000000008 .L0 
     /tmp/ccBSVtDf.s:19     .text:000000000000000c .L0 
     /tmp/ccBSVtDf.s:21     .text:000000000000000c .L0 
       src/riscv.cpp:11     .text:000000000000000c .L0 
     /tmp/ccBSVtDf.s:27     .text:0000000000000010 .L0 
       src/riscv.cpp:12     .text:0000000000000010 .L0 
     /tmp/ccBSVtDf.s:33     .text:0000000000000014 .L0 
     /tmp/ccBSVtDf.s:34     .text:0000000000000018 .L0 
     /tmp/ccBSVtDf.s:35     .text:0000000000000018 .L0 
     /tmp/ccBSVtDf.s:37     .text:000000000000001c .L0 
     /tmp/ccBSVtDf.s:39     .text:0000000000000020 .L0 
     /tmp/ccBSVtDf.s:59     .text:0000000000000020 _ZN5Riscv20handleSupervisorTrapEv
     /tmp/ccBSVtDf.s:62     .text:0000000000000020 .L0 
     /tmp/ccBSVtDf.s:63     .text:0000000000000020 .L0 
     /tmp/ccBSVtDf.s:64     .text:0000000000000024 .L0 
     /tmp/ccBSVtDf.s:70     .text:0000000000000038 .L0 
     /tmp/ccBSVtDf.s:71     .text:0000000000000038 .L0 
     /tmp/ccBSVtDf.s:72     .text:0000000000000038 .L0 
     /tmp/ccBSVtDf.s:73     .text:0000000000000038 .L0 
     /tmp/ccBSVtDf.s:74     .text:0000000000000038 .L0 
     /tmp/ccBSVtDf.s:76     .text:000000000000003c .L0 
     /tmp/ccBSVtDf.s:81     .text:000000000000003c .L0 
     /tmp/ccBSVtDf.s:82     .text:000000000000003c .L0 
     /tmp/ccBSVtDf.s:83     .text:000000000000003c .L0 
  src/../h/riscv.hpp:69     .text:000000000000003c .L0 
     /tmp/ccBSVtDf.s:91     .text:0000000000000044 .L0 
     /tmp/ccBSVtDf.s:92     .text:0000000000000044 .L0 
     /tmp/ccBSVtDf.s:97     .text:0000000000000048 .L0 
     /tmp/ccBSVtDf.s:98     .text:0000000000000048 .L0 
       src/riscv.cpp:20     .text:0000000000000048 .L0 
     /tmp/ccBSVtDf.s:107    .text:000000000000004c .L0 
     /tmp/ccBSVtDf.s:109    .text:0000000000000050 .L0 
     /tmp/ccBSVtDf.s:116    .text:0000000000000058 .L0 
     /tmp/ccBSVtDf.s:125    .text:0000000000000060 .L0 
     /tmp/ccBSVtDf.s:130    .text:0000000000000070 .L0 
     /tmp/ccBSVtDf.s:135    .text:0000000000000080 .L0 
     /tmp/ccBSVtDf.s:139    .text:0000000000000088 .L0 
     /tmp/ccBSVtDf.s:143    .text:0000000000000090 .L0 
     /tmp/ccBSVtDf.s:147    .text:0000000000000098 .L0 
     /tmp/ccBSVtDf.s:155    .text:00000000000000a0 .L0 
     /tmp/ccBSVtDf.s:156    .text:00000000000000a4 .L0 
     /tmp/ccBSVtDf.s:157    .text:00000000000000a4 .L0 
     /tmp/ccBSVtDf.s:159    .text:00000000000000a8 .L0 
     /tmp/ccBSVtDf.s:160    .text:00000000000000a8 .L0 
     /tmp/ccBSVtDf.s:162    .text:00000000000000ac .L0 
     /tmp/ccBSVtDf.s:164    .text:00000000000000b0 .L0 
     /tmp/ccBSVtDf.s:166    .text:00000000000000b4 .L0 
     /tmp/ccBSVtDf.s:168    .text:00000000000000b8 .L0 
     /tmp/ccBSVtDf.s:172    .text:00000000000000bc .L0 
     /tmp/ccBSVtDf.s:178    .text:00000000000000bc .L0 
     /tmp/ccBSVtDf.s:179    .text:00000000000000bc .L0 
GAS LISTING /tmp/ccBSVtDf.s 			page 27


     /tmp/ccBSVtDf.s:180    .text:00000000000000bc .L0 
  src/../h/riscv.hpp:79     .text:00000000000000bc .L0 
     /tmp/ccBSVtDf.s:188    .text:00000000000000c4 .L0 
     /tmp/ccBSVtDf.s:189    .text:00000000000000c4 .L0 
     /tmp/ccBSVtDf.s:194    .text:00000000000000c8 .L0 
     /tmp/ccBSVtDf.s:199    .text:00000000000000cc .L0 
     /tmp/ccBSVtDf.s:200    .text:00000000000000cc .L0 
     /tmp/ccBSVtDf.s:201    .text:00000000000000cc .L0 
  src/../h/riscv.hpp:135    .text:00000000000000cc .L0 
     /tmp/ccBSVtDf.s:209    .text:00000000000000d4 .L0 
     /tmp/ccBSVtDf.s:210    .text:00000000000000d4 .L0 
     /tmp/ccBSVtDf.s:216    .text:00000000000000d8 .L0 
     /tmp/ccBSVtDf.s:226    .text:00000000000000e0 .L0 
     /tmp/ccBSVtDf.s:238    .text:00000000000000e8 .L0 
     /tmp/ccBSVtDf.s:252    .text:00000000000000f0 .L0 
     /tmp/ccBSVtDf.s:268    .text:00000000000000f8 .L0 
     /tmp/ccBSVtDf.s:286    .text:0000000000000100 .L0 
     /tmp/ccBSVtDf.s:306    .text:0000000000000108 .L0 
     /tmp/ccBSVtDf.s:328    .text:0000000000000110 .L0 
     /tmp/ccBSVtDf.s:352    .text:0000000000000118 .L0 
     /tmp/ccBSVtDf.s:378    .text:0000000000000120 .L0 
     /tmp/ccBSVtDf.s:406    .text:0000000000000128 .L0 
     /tmp/ccBSVtDf.s:410    .text:0000000000000130 .L0 
     /tmp/ccBSVtDf.s:411    .text:0000000000000130 .L0 
       src/riscv.cpp:104    .text:0000000000000130 .L0 
     /tmp/ccBSVtDf.s:418    .text:0000000000000134 .L0 
     /tmp/ccBSVtDf.s:420    .text:0000000000000134 .L0 
     /tmp/ccBSVtDf.s:439    .text:0000000000000144 .L0 
     /tmp/ccBSVtDf.s:440    .text:0000000000000144 .L0 
     /tmp/ccBSVtDf.s:441    .text:0000000000000144 .L0 
       src/riscv.cpp:32     .text:0000000000000144 .L0 
     /tmp/ccBSVtDf.s:448    .text:0000000000000148 .L0 
     /tmp/ccBSVtDf.s:450    .text:0000000000000148 .L0 
     /tmp/ccBSVtDf.s:453    .text:0000000000000150 .L0 
       src/riscv.cpp:34     .text:0000000000000150 .L0 
     /tmp/ccBSVtDf.s:466    .text:0000000000000154 .L0 
     /tmp/ccBSVtDf.s:467    .text:0000000000000154 .L0 
  src/../h/riscv.hpp:139    .text:0000000000000154 .L0 
     /tmp/ccBSVtDf.s:479    .text:0000000000000158 .L0 
     /tmp/ccBSVtDf.s:480    .text:0000000000000158 .L0 
  src/../h/riscv.hpp:84     .text:0000000000000158 .L0 
     /tmp/ccBSVtDf.s:487    .text:000000000000015c .L0 
     /tmp/ccBSVtDf.s:496    .text:0000000000000160 .L0 
     /tmp/ccBSVtDf.s:497    .text:0000000000000160 .L0 
       src/riscv.cpp:39     .text:0000000000000160 .L0 
     /tmp/ccBSVtDf.s:504    .text:0000000000000164 .L0 
     /tmp/ccBSVtDf.s:506    .text:0000000000000164 .L0 
     /tmp/ccBSVtDf.s:515    .text:0000000000000170 .L0 
     /tmp/ccBSVtDf.s:516    .text:0000000000000170 .L0 
     /tmp/ccBSVtDf.s:517    .text:0000000000000170 .L0 
     /tmp/ccBSVtDf.s:518    .text:0000000000000170 .L0 
       src/riscv.cpp:47     .text:0000000000000170 .L0 
     /tmp/ccBSVtDf.s:525    .text:0000000000000174 .L0 
       src/riscv.cpp:48     .text:0000000000000174 .L0 
     /tmp/ccBSVtDf.s:531    .text:0000000000000178 .L0 
       src/riscv.cpp:49     .text:0000000000000178 .L0 
     /tmp/ccBSVtDf.s:537    .text:000000000000017c .L0 
GAS LISTING /tmp/ccBSVtDf.s 			page 28


     /tmp/ccBSVtDf.s:539    .text:000000000000017c .L0 
     /tmp/ccBSVtDf.s:542    .text:0000000000000184 .L0 
     /tmp/ccBSVtDf.s:549    .text:000000000000018c .L0 
     /tmp/ccBSVtDf.s:550    .text:000000000000018c .L0 
     /tmp/ccBSVtDf.s:557    .text:0000000000000198 .L0 
     /tmp/ccBSVtDf.s:558    .text:0000000000000198 .L0 
     /tmp/ccBSVtDf.s:566    .text:00000000000001a4 .L0 
     /tmp/ccBSVtDf.s:567    .text:00000000000001a4 .L0 
     /tmp/ccBSVtDf.s:568    .text:00000000000001a4 .L0 
       src/riscv.cpp:65     .text:00000000000001a4 .L0 
     /tmp/ccBSVtDf.s:575    .text:00000000000001a8 .L0 
       src/riscv.cpp:66     .text:00000000000001a8 .L0 
     /tmp/ccBSVtDf.s:581    .text:00000000000001ac .L0 
     /tmp/ccBSVtDf.s:583    .text:00000000000001ac .L0 
     /tmp/ccBSVtDf.s:587    .text:00000000000001b8 .L0 
     /tmp/ccBSVtDf.s:595    .text:00000000000001c0 .L0 
     /tmp/ccBSVtDf.s:596    .text:00000000000001c0 .L0 
       src/riscv.cpp:75     .text:00000000000001c0 .L0 
     /tmp/ccBSVtDf.s:603    .text:00000000000001c4 .L0 
     /tmp/ccBSVtDf.s:605    .text:00000000000001c4 .L0 
     /tmp/ccBSVtDf.s:614    .text:00000000000001d0 .L0 
     /tmp/ccBSVtDf.s:615    .text:00000000000001d0 .L0 
       src/riscv.cpp:83     .text:00000000000001d0 .L0 
     /tmp/ccBSVtDf.s:622    .text:00000000000001d4 .L0 
     /tmp/ccBSVtDf.s:624    .text:00000000000001d4 .L0 
     /tmp/ccBSVtDf.s:633    .text:00000000000001e0 .L0 
     /tmp/ccBSVtDf.s:634    .text:00000000000001e0 .L0 
       src/riscv.cpp:90     .text:00000000000001e0 .L0 
     /tmp/ccBSVtDf.s:641    .text:00000000000001e4 .L0 
     /tmp/ccBSVtDf.s:643    .text:00000000000001e4 .L0 
     /tmp/ccBSVtDf.s:652    .text:00000000000001f0 .L0 
     /tmp/ccBSVtDf.s:653    .text:00000000000001f0 .L0 
     /tmp/ccBSVtDf.s:654    .text:00000000000001f0 .L0 
     /tmp/ccBSVtDf.s:657    .text:00000000000001f8 .L0 
       src/riscv.cpp:98     .text:00000000000001f8 .L0 
     /tmp/ccBSVtDf.s:683    .text:0000000000000200 .L0 
     /tmp/ccBSVtDf.s:684    .text:0000000000000200 .L0 
     /tmp/ccBSVtDf.s:685    .text:0000000000000200 .L0 
  src/../h/riscv.hpp:79     .text:0000000000000200 .L0 
     /tmp/ccBSVtDf.s:693    .text:0000000000000208 .L0 
     /tmp/ccBSVtDf.s:694    .text:0000000000000208 .L0 
     /tmp/ccBSVtDf.s:699    .text:000000000000020c .L0 
     /tmp/ccBSVtDf.s:704    .text:0000000000000210 .L0 
     /tmp/ccBSVtDf.s:705    .text:0000000000000210 .L0 
     /tmp/ccBSVtDf.s:706    .text:0000000000000210 .L0 
  src/../h/riscv.hpp:135    .text:0000000000000210 .L0 
     /tmp/ccBSVtDf.s:714    .text:0000000000000218 .L0 
     /tmp/ccBSVtDf.s:715    .text:0000000000000218 .L0 
     /tmp/ccBSVtDf.s:720    .text:000000000000021c .L0 
     /tmp/ccBSVtDf.s:721    .text:000000000000021c .L0 
     /tmp/ccBSVtDf.s:724    .text:0000000000000228 .L0 
     /tmp/ccBSVtDf.s:725    .text:0000000000000228 .L0 
     /tmp/ccBSVtDf.s:730    .text:0000000000000230 .L0 
     /tmp/ccBSVtDf.s:731    .text:0000000000000230 .L0 
  src/../h/riscv.hpp:139    .text:0000000000000230 .L0 
     /tmp/ccBSVtDf.s:743    .text:0000000000000234 .L0 
     /tmp/ccBSVtDf.s:744    .text:0000000000000234 .L0 
GAS LISTING /tmp/ccBSVtDf.s 			page 29


  src/../h/riscv.hpp:84     .text:0000000000000234 .L0 
     /tmp/ccBSVtDf.s:751    .text:0000000000000238 .L0 
     /tmp/ccBSVtDf.s:760    .text:000000000000023c .L0 
     /tmp/ccBSVtDf.s:761    .text:000000000000023c .L0 
     /tmp/ccBSVtDf.s:767    .text:0000000000000250 .L0 
     /tmp/ccBSVtDf.s:768    .text:0000000000000250 .L0 
     /tmp/ccBSVtDf.s:775    .text:000000000000025c .L0 
     /tmp/ccBSVtDf.s:776    .text:000000000000025c .L0 
     /tmp/ccBSVtDf.s:781    .text:0000000000000260 .L0 
     /tmp/ccBSVtDf.s:788    .text:0000000000000264 .L0 
     /tmp/ccBSVtDf.s:789    .text:0000000000000264 .L0 
     /tmp/ccBSVtDf.s:790    .text:0000000000000264 .L0 
     /tmp/ccBSVtDf.s:797    .text:000000000000026c .L0 
     /tmp/ccBSVtDf.s:807    .text:0000000000000270 .L0 
     /tmp/ccBSVtDf.s:808    .text:0000000000000270 .L0 
     /tmp/ccBSVtDf.s:809    .text:0000000000000270 .L0 
  src/../h/riscv.hpp:79     .text:0000000000000270 .L0 
     /tmp/ccBSVtDf.s:817    .text:0000000000000278 .L0 
     /tmp/ccBSVtDf.s:818    .text:0000000000000278 .L0 
     /tmp/ccBSVtDf.s:825    .text:000000000000027c .L0 
     /tmp/ccBSVtDf.s:826    .text:000000000000027c .L0 
     /tmp/ccBSVtDf.s:827    .text:000000000000027c .L0 
  src/../h/riscv.hpp:135    .text:000000000000027c .L0 
     /tmp/ccBSVtDf.s:835    .text:0000000000000284 .L0 
     /tmp/ccBSVtDf.s:836    .text:0000000000000284 .L0 
     /tmp/ccBSVtDf.s:841    .text:0000000000000288 .L0 
     /tmp/ccBSVtDf.s:842    .text:0000000000000288 .L0 
     /tmp/ccBSVtDf.s:845    .text:0000000000000294 .L0 
     /tmp/ccBSVtDf.s:846    .text:0000000000000294 .L0 
     /tmp/ccBSVtDf.s:851    .text:000000000000029c .L0 
     /tmp/ccBSVtDf.s:852    .text:000000000000029c .L0 
  src/../h/riscv.hpp:139    .text:000000000000029c .L0 
     /tmp/ccBSVtDf.s:864    .text:00000000000002a0 .L0 
     /tmp/ccBSVtDf.s:865    .text:00000000000002a0 .L0 
  src/../h/riscv.hpp:84     .text:00000000000002a0 .L0 
     /tmp/ccBSVtDf.s:872    .text:00000000000002a4 .L0 
     /tmp/ccBSVtDf.s:881    .text:00000000000002a8 .L0 
     /tmp/ccBSVtDf.s:882    .text:00000000000002a8 .L0 
     /tmp/ccBSVtDf.s:887    .text:00000000000002b4 .L0 
     /tmp/ccBSVtDf.s:888    .text:00000000000002b4 .L0 
     /tmp/ccBSVtDf.s:894    .text:00000000000002c8 .L0 
     /tmp/ccBSVtDf.s:895    .text:00000000000002c8 .L0 
     /tmp/ccBSVtDf.s:901    .text:00000000000002dc .L0 
     /tmp/ccBSVtDf.s:902    .text:00000000000002dc .L0 
     /tmp/ccBSVtDf.s:908    .text:00000000000002f0 .L0 
     /tmp/ccBSVtDf.s:909    .text:00000000000002f0 .L0 
     /tmp/ccBSVtDf.s:916    .text:0000000000000300 .L0 
     /tmp/ccBSVtDf.s:917    .text:0000000000000304 .L0 
     /tmp/ccBSVtDf.s:927    .text:0000000000000304 .L0 
     /tmp/ccBSVtDf.s:721    .text:000000000000021c .L0 
     /tmp/ccBSVtDf.s:761    .text:000000000000023c .L0 
     /tmp/ccBSVtDf.s:768    .text:0000000000000250 .L0 
     /tmp/ccBSVtDf.s:842    .text:0000000000000288 .L0 
     /tmp/ccBSVtDf.s:44     .rodata.str1.8:0000000000000000 .LC0
     /tmp/ccBSVtDf.s:888    .text:00000000000002b4 .L0 
     /tmp/ccBSVtDf.s:47     .rodata.str1.8:0000000000000010 .LC1
     /tmp/ccBSVtDf.s:895    .text:00000000000002c8 .L0 
GAS LISTING /tmp/ccBSVtDf.s 			page 30


     /tmp/ccBSVtDf.s:50     .rodata.str1.8:0000000000000020 .LC2
     /tmp/ccBSVtDf.s:902    .text:00000000000002dc .L0 
     /tmp/ccBSVtDf.s:53     .rodata.str1.8:0000000000000030 .LC3
     /tmp/ccBSVtDf.s:909    .text:00000000000002f0 .L0 
     /tmp/ccBSVtDf.s:111    .text:0000000000000058 .L4
     /tmp/ccBSVtDf.s:171    .text:00000000000000bc .L25
     /tmp/ccBSVtDf.s:666    .text:0000000000000200 .L26
     /tmp/ccBSVtDf.s:753    .text:000000000000023c .L27
     /tmp/ccBSVtDf.s:874    .text:00000000000002a8 .L28
     /tmp/ccBSVtDf.s:885    .text:00000000000002b4 .L29
     /tmp/ccBSVtDf.s:892    .text:00000000000002c8 .L30
     /tmp/ccBSVtDf.s:899    .text:00000000000002dc .L31
     /tmp/ccBSVtDf.s:906    .text:00000000000002f0 .L32
     /tmp/ccBSVtDf.s:426    .text:0000000000000144 .L33
     /tmp/ccBSVtDf.s:489    .text:0000000000000160 .L34
     /tmp/ccBSVtDf.s:511    .text:0000000000000170 .L35
     /tmp/ccBSVtDf.s:546    .text:000000000000018c .L36
     /tmp/ccBSVtDf.s:554    .text:0000000000000198 .L37
     /tmp/ccBSVtDf.s:562    .text:00000000000001a4 .L38
     /tmp/ccBSVtDf.s:591    .text:00000000000001c0 .L39
     /tmp/ccBSVtDf.s:610    .text:00000000000001d0 .L40
     /tmp/ccBSVtDf.s:629    .text:00000000000001e0 .L41
     /tmp/ccBSVtDf.s:648    .text:00000000000001f0 .L42
     /tmp/ccBSVtDf.s:460    .text:0000000000000154 .L6
     /tmp/ccBSVtDf.s:150    .text:00000000000000a0 .L3
     /tmp/ccBSVtDf.s:799    .text:0000000000000270 .L43
     /tmp/ccBSVtDf.s:783    .text:0000000000000264 .L19
     /tmp/ccBSVtDf.s:137    .text:0000000000000088 .L21
     /tmp/ccBSVtDf.s:141    .text:0000000000000090 .L22
     /tmp/ccBSVtDf.s:145    .text:0000000000000098 .L23
     /tmp/ccBSVtDf.s:2344   .debug_abbrev:0000000000000000 .Ldebug_abbrev0
     /tmp/ccBSVtDf.s:3816   .debug_str:0000000000000668 .LASF138
     /tmp/ccBSVtDf.s:3758   .debug_str:00000000000004e1 .LASF139
     /tmp/ccBSVtDf.s:3800   .debug_str:00000000000005d8 .LASF140
     /tmp/ccBSVtDf.s:5      .text:0000000000000000 .Ltext0
     /tmp/ccBSVtDf.s:920    .text:0000000000000304 .Letext0
     /tmp/ccBSVtDf.s:3570   .debug_line:0000000000000000 .Ldebug_line0
     /tmp/ccBSVtDf.s:3734   .debug_str:0000000000000455 .LASF0
     /tmp/ccBSVtDf.s:3754   .debug_str:00000000000004bb .LASF1
     /tmp/ccBSVtDf.s:3716   .debug_str:00000000000003c8 .LASF2
     /tmp/ccBSVtDf.s:3682   .debug_str:00000000000002ce .LASF4
     /tmp/ccBSVtDf.s:3794   .debug_str:00000000000005ae .LASF3
     /tmp/ccBSVtDf.s:3600   .debug_str:0000000000000098 .LASF5
     /tmp/ccBSVtDf.s:3756   .debug_str:00000000000004ce .LASF6
     /tmp/ccBSVtDf.s:3732   .debug_str:0000000000000442 .LASF7
     /tmp/ccBSVtDf.s:3828   .debug_str:0000000000000769 .LASF8
     /tmp/ccBSVtDf.s:3668   .debug_str:0000000000000241 .LASF9
     /tmp/ccBSVtDf.s:3766   .debug_str:000000000000050f .LASF10
     /tmp/ccBSVtDf.s:3818   .debug_str:000000000000072c .LASF11
     /tmp/ccBSVtDf.s:3604   .debug_str:00000000000000a7 .LASF12
     /tmp/ccBSVtDf.s:3580   .debug_str:0000000000000024 .LASF13
     /tmp/ccBSVtDf.s:3614   .debug_str:00000000000000f6 .LASF14
     /tmp/ccBSVtDf.s:3786   .debug_str:0000000000000573 .LASF15
     /tmp/ccBSVtDf.s:3626   .debug_str:0000000000000129 .LASF16
     /tmp/ccBSVtDf.s:3750   .debug_str:00000000000004aa .LASF56
     /tmp/ccBSVtDf.s:3698   .debug_str:0000000000000342 .LASF141
     /tmp/ccBSVtDf.s:3804   .debug_str:0000000000000604 .LASF17
GAS LISTING /tmp/ccBSVtDf.s 			page 31


     /tmp/ccBSVtDf.s:3748   .debug_str:00000000000004a1 .LASF18
     /tmp/ccBSVtDf.s:3692   .debug_str:000000000000030f .LASF19
     /tmp/ccBSVtDf.s:3782   .debug_str:0000000000000561 .LASF52
     /tmp/ccBSVtDf.s:3856   .debug_str:000000000000086b .LASF54
     /tmp/ccBSVtDf.s:3582   .debug_str:0000000000000034 .LASF20
     /tmp/ccBSVtDf.s:3646   .debug_str:00000000000001b6 .LASF22
     /tmp/ccBSVtDf.s:3640   .debug_str:000000000000019f .LASF24
     /tmp/ccBSVtDf.s:3638   .debug_str:000000000000018a .LASF26
     /tmp/ccBSVtDf.s:3798   .debug_str:00000000000005d1 .LASF21
     /tmp/ccBSVtDf.s:3772   .debug_str:0000000000000530 .LASF23
     /tmp/ccBSVtDf.s:3814   .debug_str:0000000000000661 .LASF25
     /tmp/ccBSVtDf.s:3808   .debug_str:0000000000000625 .LASF27
     /tmp/ccBSVtDf.s:3658   .debug_str:0000000000000212 .LASF28
     /tmp/ccBSVtDf.s:3628   .debug_str:000000000000013f .LASF29
     /tmp/ccBSVtDf.s:3578   .debug_str:000000000000001c .LASF30
     /tmp/ccBSVtDf.s:3674   .debug_str:0000000000000277 .LASF31
     /tmp/ccBSVtDf.s:3598   .debug_str:0000000000000090 .LASF32
     /tmp/ccBSVtDf.s:3608   .debug_str:00000000000000bc .LASF33
     /tmp/ccBSVtDf.s:3864   .debug_str:00000000000008ac .LASF34
     /tmp/ccBSVtDf.s:3648   .debug_str:00000000000001cb .LASF35
     /tmp/ccBSVtDf.s:3736   .debug_str:0000000000000462 .LASF36
     /tmp/ccBSVtDf.s:3850   .debug_str:000000000000083d .LASF37
     /tmp/ccBSVtDf.s:3592   .debug_str:000000000000005c .LASF38
     /tmp/ccBSVtDf.s:3656   .debug_str:00000000000001ff .LASF39
     /tmp/ccBSVtDf.s:3664   .debug_str:0000000000000224 .LASF40
     /tmp/ccBSVtDf.s:3812   .debug_str:000000000000064f .LASF41
     /tmp/ccBSVtDf.s:3590   .debug_str:0000000000000056 .LASF42
     /tmp/ccBSVtDf.s:3870   .debug_str:00000000000008d6 .LASF43
     /tmp/ccBSVtDf.s:3862   .debug_str:00000000000008a1 .LASF44
     /tmp/ccBSVtDf.s:3792   .debug_str:0000000000000596 .LASF45
     /tmp/ccBSVtDf.s:3752   .debug_str:00000000000004b0 .LASF46
     /tmp/ccBSVtDf.s:3806   .debug_str:000000000000060d .LASF47
     /tmp/ccBSVtDf.s:3612   .debug_str:00000000000000ec .LASF48
     /tmp/ccBSVtDf.s:3678   .debug_str:0000000000000290 .LASF49
     /tmp/ccBSVtDf.s:3722   .debug_str:00000000000003eb .LASF50
     /tmp/ccBSVtDf.s:3672   .debug_str:0000000000000261 .LASF51
     /tmp/ccBSVtDf.s:3632   .debug_str:0000000000000158 .LASF53
     /tmp/ccBSVtDf.s:3610   .debug_str:00000000000000d0 .LASF55
     /tmp/ccBSVtDf.s:3834   .debug_str:00000000000007a3 .LASF88
     /tmp/ccBSVtDf.s:3696   .debug_str:0000000000000320 .LASF90
     /tmp/ccBSVtDf.s:3588   .debug_str:000000000000004e .LASF108
     /tmp/ccBSVtDf.s:3676   .debug_str:000000000000028b .LASF57
     /tmp/ccBSVtDf.s:3774   .debug_str:0000000000000543 .LASF59
     /tmp/ccBSVtDf.s:3760   .debug_str:00000000000004ef .LASF61
     /tmp/ccBSVtDf.s:3666   .debug_str:000000000000022a .LASF63
     /tmp/ccBSVtDf.s:3718   .debug_str:00000000000003d6 .LASF58
     /tmp/ccBSVtDf.s:3866   .debug_str:00000000000008b4 .LASF60
     /tmp/ccBSVtDf.s:3710   .debug_str:00000000000003a6 .LASF62
     /tmp/ccBSVtDf.s:3596   .debug_str:0000000000000077 .LASF64
     /tmp/ccBSVtDf.s:3624   .debug_str:000000000000011c .LASF65
     /tmp/ccBSVtDf.s:3708   .debug_str:000000000000038a .LASF66
     /tmp/ccBSVtDf.s:3778   .debug_str:0000000000000557 .LASF142
     /tmp/ccBSVtDf.s:3788   .debug_str:0000000000000589 .LASF67
     /tmp/ccBSVtDf.s:3724   .debug_str:00000000000003f5 .LASF68
     /tmp/ccBSVtDf.s:3644   .debug_str:00000000000001ae .LASF143
     /tmp/ccBSVtDf.s:3572   .debug_str:0000000000000000 .LASF69
     /tmp/ccBSVtDf.s:3594   .debug_str:0000000000000063 .LASF70
GAS LISTING /tmp/ccBSVtDf.s 			page 32


     /tmp/ccBSVtDf.s:3586   .debug_str:0000000000000044 .LASF71
     /tmp/ccBSVtDf.s:3700   .debug_str:000000000000034d .LASF72
     /tmp/ccBSVtDf.s:3686   .debug_str:00000000000002f6 .LASF73
     /tmp/ccBSVtDf.s:3848   .debug_str:0000000000000827 .LASF74
     /tmp/ccBSVtDf.s:3602   .debug_str:000000000000009f .LASF75
     /tmp/ccBSVtDf.s:3670   .debug_str:000000000000024f .LASF76
     /tmp/ccBSVtDf.s:3820   .debug_str:000000000000073b .LASF77
     /tmp/ccBSVtDf.s:3824   .debug_str:000000000000074a .LASF78
     /tmp/ccBSVtDf.s:3654   .debug_str:00000000000001f7 .LASF79
     /tmp/ccBSVtDf.s:3844   .debug_str:000000000000080b .LASF80
     /tmp/ccBSVtDf.s:3802   .debug_str:00000000000005f3 .LASF144
     /tmp/ccBSVtDf.s:3690   .debug_str:000000000000030a .LASF81
     /tmp/ccBSVtDf.s:3742   .debug_str:000000000000048c .LASF82
     /tmp/ccBSVtDf.s:3694   .debug_str:0000000000000318 .LASF83
     /tmp/ccBSVtDf.s:3746   .debug_str:0000000000000497 .LASF84
     /tmp/ccBSVtDf.s:3688   .debug_str:0000000000000301 .LASF85
     /tmp/ccBSVtDf.s:3574   .debug_str:000000000000000a .LASF86
     /tmp/ccBSVtDf.s:3826   .debug_str:0000000000000760 .LASF87
     /tmp/ccBSVtDf.s:3712   .debug_str:00000000000003b3 .LASF89
     /tmp/ccBSVtDf.s:3840   .debug_str:00000000000007e7 .LASF91
     /tmp/ccBSVtDf.s:3838   .debug_str:00000000000007d9 .LASF145
     /tmp/ccBSVtDf.s:3680   .debug_str:00000000000002a6 .LASF146
     /tmp/ccBSVtDf.s:3738   .debug_str:0000000000000469 .LASF92
     /tmp/ccBSVtDf.s:3650   .debug_str:00000000000001df .LASF93
     /tmp/ccBSVtDf.s:3796   .debug_str:00000000000005c0 .LASF119
     /tmp/ccBSVtDf.s:3702   .debug_str:0000000000000362 .LASF94
     /tmp/ccBSVtDf.s:3842   .debug_str:0000000000000800 .LASF95
     /tmp/ccBSVtDf.s:3768   .debug_str:000000000000051e .LASF96
     /tmp/ccBSVtDf.s:3642   .debug_str:00000000000001a8 .LASF97
     /tmp/ccBSVtDf.s:3852   .debug_str:0000000000000850 .LASF147
     /tmp/ccBSVtDf.s:3740   .debug_str:0000000000000472 .LASF98
     /tmp/ccBSVtDf.s:3832   .debug_str:0000000000000799 .LASF100
     /tmp/ccBSVtDf.s:3728   .debug_str:000000000000041a .LASF99
     /tmp/ccBSVtDf.s:3622   .debug_str:0000000000000114 .LASF101
     /tmp/ccBSVtDf.s:3726   .debug_str:0000000000000405 .LASF102
     /tmp/ccBSVtDf.s:3606   .debug_str:00000000000000b7 .LASF103
     /tmp/ccBSVtDf.s:3810   .debug_str:0000000000000638 .LASF104
     /tmp/ccBSVtDf.s:3790   .debug_str:000000000000058f .LASF105
     /tmp/ccBSVtDf.s:3762   .debug_str:00000000000004fa .LASF106
     /tmp/ccBSVtDf.s:3652   .debug_str:00000000000001f2 .LASF107
     /tmp/ccBSVtDf.s:3822   .debug_str:0000000000000743 .LASF148
     /tmp/ccBSVtDf.s:3868   .debug_str:00000000000008cb .LASF109
     /tmp/ccBSVtDf.s:3780   .debug_str:000000000000055c .LASF110
     /tmp/ccBSVtDf.s:3618   .debug_str:0000000000000107 .LASF111
     /tmp/ccBSVtDf.s:3730   .debug_str:0000000000000432 .LASF112
     /tmp/ccBSVtDf.s:3720   .debug_str:00000000000003e2 .LASF113
     /tmp/ccBSVtDf.s:3830   .debug_str:0000000000000779 .LASF114
     /tmp/ccBSVtDf.s:3576   .debug_str:0000000000000012 .LASF115
     /tmp/ccBSVtDf.s:3836   .debug_str:00000000000007b8 .LASF116
     /tmp/ccBSVtDf.s:3770   .debug_str:0000000000000527 .LASF117
     /tmp/ccBSVtDf.s:3684   .debug_str:00000000000002d5 .LASF118
     /tmp/ccBSVtDf.s:3764   .debug_str:00000000000004ff .LASF120
     /tmp/ccBSVtDf.s:3854   .debug_str:000000000000085a .LASF121
     /tmp/ccBSVtDf.s:60     .text:0000000000000020 .LFB36
     /tmp/ccBSVtDf.s:918    .text:0000000000000304 .LFE36
     /tmp/ccBSVtDf.s:3584   .debug_str:000000000000003d .LASF122
     /tmp/ccBSVtDf.s:3247   .debug_loc:0000000000000000 .LLST0
GAS LISTING /tmp/ccBSVtDf.s 			page 33


     /tmp/ccBSVtDf.s:3846   .debug_str:000000000000081d .LASF123
     /tmp/ccBSVtDf.s:3274   .debug_loc:0000000000000082 .LLST1
     /tmp/ccBSVtDf.s:3544   .debug_ranges:0000000000000000 .Ldebug_ranges0
     /tmp/ccBSVtDf.s:3744   .debug_str:0000000000000492 .LASF124
     /tmp/ccBSVtDf.s:3325   .debug_loc:0000000000000176 .LLST12
     /tmp/ccBSVtDf.s:3776   .debug_str:000000000000054f .LASF125
     /tmp/ccBSVtDf.s:3332   .debug_loc:0000000000000199 .LLST13
     /tmp/ccBSVtDf.s:437    .text:0000000000000144 .LBB169
     /tmp/ccBSVtDf.s:461    .text:0000000000000154 .LBE169
     /tmp/ccBSVtDf.s:3706   .debug_str:000000000000037b .LASF126
     /tmp/ccBSVtDf.s:3339   .debug_loc:00000000000001bc .LLST25
     /tmp/ccBSVtDf.s:3860   .debug_str:000000000000088f .LASF127
     /tmp/ccBSVtDf.s:3346   .debug_loc:00000000000001df .LLST26
     /tmp/ccBSVtDf.s:451    .text:0000000000000150 .LVL12
     /tmp/ccBSVtDf.s:494    .text:0000000000000160 .LBB158
     /tmp/ccBSVtDf.s:508    .text:000000000000016c .LBE158
     /tmp/ccBSVtDf.s:3704   .debug_str:000000000000036d .LASF128
     /tmp/ccBSVtDf.s:3353   .debug_loc:0000000000000202 .LLST24
     /tmp/ccBSVtDf.s:507    .text:000000000000016c .LVL17
     /tmp/ccBSVtDf.s:513    .text:0000000000000170 .LBB148
     /tmp/ccBSVtDf.s:543    .text:0000000000000188 .LBE148
     /tmp/ccBSVtDf.s:3620   .debug_str:000000000000010c .LASF129
     /tmp/ccBSVtDf.s:3360   .debug_loc:0000000000000225 .LLST21
     /tmp/ccBSVtDf.s:3367   .debug_loc:0000000000000248 .LLST22
     /tmp/ccBSVtDf.s:3379   .debug_loc:000000000000027f .LLST23
     /tmp/ccBSVtDf.s:540    .text:0000000000000184 .LVL22
     /tmp/ccBSVtDf.s:564    .text:00000000000001a4 .LBB126
     /tmp/ccBSVtDf.s:588    .text:00000000000001bc .LBE126
     /tmp/ccBSVtDf.s:3660   .debug_str:000000000000021a .LASF130
     /tmp/ccBSVtDf.s:3387   .debug_loc:00000000000002a3 .LLST19
     /tmp/ccBSVtDf.s:3662   .debug_str:000000000000021f .LASF131
     /tmp/ccBSVtDf.s:3399   .debug_loc:00000000000002da .LLST20
     /tmp/ccBSVtDf.s:585    .text:00000000000001b8 .LVL30
     /tmp/ccBSVtDf.s:593    .text:00000000000001c0 .LBB120
     /tmp/ccBSVtDf.s:607    .text:00000000000001cc .LBE120
     /tmp/ccBSVtDf.s:3411   .debug_loc:0000000000000311 .LLST18
     /tmp/ccBSVtDf.s:606    .text:00000000000001cc .LVL33
     /tmp/ccBSVtDf.s:612    .text:00000000000001d0 .LBB115
     /tmp/ccBSVtDf.s:626    .text:00000000000001dc .LBE115
     /tmp/ccBSVtDf.s:3418   .debug_loc:0000000000000334 .LLST17
     /tmp/ccBSVtDf.s:625    .text:00000000000001dc .LVL36
     /tmp/ccBSVtDf.s:631    .text:00000000000001e0 .LBB111
     /tmp/ccBSVtDf.s:645    .text:00000000000001ec .LBE111
     /tmp/ccBSVtDf.s:3425   .debug_loc:0000000000000357 .LLST16
     /tmp/ccBSVtDf.s:644    .text:00000000000001ec .LVL39
     /tmp/ccBSVtDf.s:650    .text:00000000000001f0 .LBB109
     /tmp/ccBSVtDf.s:663    .text:00000000000001fc .LBE109
     /tmp/ccBSVtDf.s:3432   .debug_loc:000000000000037a .LLST15
     /tmp/ccBSVtDf.s:655    .text:00000000000001f8 .LVL41
     /tmp/ccBSVtDf.s:408    .text:0000000000000130 .LBB108
     /tmp/ccBSVtDf.s:423    .text:0000000000000140 .LBE108
     /tmp/ccBSVtDf.s:3439   .debug_loc:000000000000039d .LLST14
     /tmp/ccBSVtDf.s:422    .text:0000000000000140 .LVL9
     /tmp/ccBSVtDf.s:176    .text:00000000000000bc .LBB93
     /tmp/ccBSVtDf.s:192    .text:00000000000000c8 .LBE93
     /tmp/ccBSVtDf.s:197    .text:00000000000000cc .LBB95
     /tmp/ccBSVtDf.s:213    .text:00000000000000d8 .LBE95
GAS LISTING /tmp/ccBSVtDf.s 			page 34


     /tmp/ccBSVtDf.s:464    .text:0000000000000154 .LBB181
     /tmp/ccBSVtDf.s:475    .text:0000000000000158 .LBE181
     /tmp/ccBSVtDf.s:3446   .debug_loc:00000000000003c0 .LLST27
     /tmp/ccBSVtDf.s:477    .text:0000000000000158 .LBB183
     /tmp/ccBSVtDf.s:491    .text:0000000000000160 .LBE183
     /tmp/ccBSVtDf.s:3453   .debug_loc:00000000000003e3 .LLST28
     /tmp/ccBSVtDf.s:551    .text:0000000000000194 .LVL24
     /tmp/ccBSVtDf.s:559    .text:00000000000001a0 .LVL26
     /tmp/ccBSVtDf.s:679    .text:0000000000000200 .LBB81
     /tmp/ccBSVtDf.s:756    .text:000000000000023c .LBE81
     /tmp/ccBSVtDf.s:3460   .debug_loc:0000000000000406 .LLST8
     /tmp/ccBSVtDf.s:3467   .debug_loc:0000000000000429 .LLST9
     /tmp/ccBSVtDf.s:681    .text:0000000000000200 .LBB82
     /tmp/ccBSVtDf.s:697    .text:000000000000020c .LBE82
     /tmp/ccBSVtDf.s:702    .text:0000000000000210 .LBB84
     /tmp/ccBSVtDf.s:718    .text:000000000000021c .LBE84
     /tmp/ccBSVtDf.s:728    .text:0000000000000230 .LBB86
     /tmp/ccBSVtDf.s:739    .text:0000000000000234 .LBE86
     /tmp/ccBSVtDf.s:3474   .debug_loc:000000000000044c .LLST10
     /tmp/ccBSVtDf.s:741    .text:0000000000000234 .LBB88
     /tmp/ccBSVtDf.s:755    .text:000000000000023c .LBE88
     /tmp/ccBSVtDf.s:3481   .debug_loc:000000000000046f .LLST11
     /tmp/ccBSVtDf.s:726    .text:0000000000000230 .LVL46
     /tmp/ccBSVtDf.s:803    .text:0000000000000270 .LBB69
     /tmp/ccBSVtDf.s:877    .text:00000000000002a8 .LBE69
     /tmp/ccBSVtDf.s:3488   .debug_loc:0000000000000492 .LLST3
     /tmp/ccBSVtDf.s:3495   .debug_loc:00000000000004b5 .LLST4
     /tmp/ccBSVtDf.s:805    .text:0000000000000270 .LBB70
     /tmp/ccBSVtDf.s:821    .text:000000000000027c .LBE70
     /tmp/ccBSVtDf.s:823    .text:000000000000027c .LBB72
     /tmp/ccBSVtDf.s:839    .text:0000000000000288 .LBE72
     /tmp/ccBSVtDf.s:849    .text:000000000000029c .LBB74
     /tmp/ccBSVtDf.s:860    .text:00000000000002a0 .LBE74
     /tmp/ccBSVtDf.s:3502   .debug_loc:00000000000004d8 .LLST5
     /tmp/ccBSVtDf.s:862    .text:00000000000002a0 .LBB76
     /tmp/ccBSVtDf.s:876    .text:00000000000002a8 .LBE76
     /tmp/ccBSVtDf.s:3509   .debug_loc:00000000000004fb .LLST6
     /tmp/ccBSVtDf.s:847    .text:000000000000029c .LVL55
     /tmp/ccBSVtDf.s:78     .text:000000000000003c .LBB60
     /tmp/ccBSVtDf.s:95     .text:0000000000000048 .LBE60
     /tmp/ccBSVtDf.s:771    .text:000000000000025c .LBB67
     /tmp/ccBSVtDf.s:779    .text:0000000000000260 .LBE67
     /tmp/ccBSVtDf.s:3516   .debug_loc:000000000000051e .LLST2
     /tmp/ccBSVtDf.s:786    .text:0000000000000264 .LBB78
     /tmp/ccBSVtDf.s:801    .text:0000000000000270 .LBE78
     /tmp/ccBSVtDf.s:3523   .debug_loc:0000000000000541 .LLST7
     /tmp/ccBSVtDf.s:883    .text:00000000000002b0 .LVL58
     /tmp/ccBSVtDf.s:890    .text:00000000000002c4 .LVL59
     /tmp/ccBSVtDf.s:897    .text:00000000000002d8 .LVL60
     /tmp/ccBSVtDf.s:904    .text:00000000000002ec .LVL61
     /tmp/ccBSVtDf.s:911    .text:0000000000000300 .LVL62
     /tmp/ccBSVtDf.s:10     .text:0000000000000000 .LFB35
     /tmp/ccBSVtDf.s:40     .text:0000000000000020 .LFE35
     /tmp/ccBSVtDf.s:3630   .debug_str:0000000000000153 .LASF149
     /tmp/ccBSVtDf.s:3616   .debug_str:0000000000000102 .LASF132
     /tmp/ccBSVtDf.s:3714   .debug_str:00000000000003c1 .LASF133
     /tmp/ccBSVtDf.s:3784   .debug_str:000000000000056c .LASF134
GAS LISTING /tmp/ccBSVtDf.s 			page 35


     /tmp/ccBSVtDf.s:3636   .debug_str:000000000000017a .LASF135
     /tmp/ccBSVtDf.s:3634   .debug_str:0000000000000167 .LASF136
     /tmp/ccBSVtDf.s:3858   .debug_str:0000000000000883 .LASF137
     /tmp/ccBSVtDf.s:93     .text:0000000000000048 .LVL0
     /tmp/ccBSVtDf.s:149    .text:00000000000000a0 .LVL3
     /tmp/ccBSVtDf.s:170    .text:00000000000000bc .LVL4
     /tmp/ccBSVtDf.s:190    .text:00000000000000c8 .LVL5
     /tmp/ccBSVtDf.s:665    .text:0000000000000200 .LVL42
     /tmp/ccBSVtDf.s:695    .text:000000000000020c .LVL43
     /tmp/ccBSVtDf.s:752    .text:000000000000023c .LVL48
     /tmp/ccBSVtDf.s:782    .text:0000000000000264 .LVL51
     /tmp/ccBSVtDf.s:798    .text:0000000000000270 .LVL52
     /tmp/ccBSVtDf.s:819    .text:000000000000027c .LVL53
     /tmp/ccBSVtDf.s:873    .text:00000000000002a8 .LVL57
     /tmp/ccBSVtDf.s:103    .text:000000000000004c .LVL1
     /tmp/ccBSVtDf.s:117    .text:000000000000005c .LVL2
     /tmp/ccBSVtDf.s:425    .text:0000000000000144 .LVL10
     /tmp/ccBSVtDf.s:488    .text:0000000000000160 .LVL15
     /tmp/ccBSVtDf.s:510    .text:0000000000000170 .LVL18
     /tmp/ccBSVtDf.s:535    .text:000000000000017c .LVL21
     /tmp/ccBSVtDf.s:545    .text:000000000000018c .LVL23
     /tmp/ccBSVtDf.s:553    .text:0000000000000198 .LVL25
     /tmp/ccBSVtDf.s:561    .text:00000000000001a4 .LVL27
     /tmp/ccBSVtDf.s:590    .text:00000000000001c0 .LVL31
     /tmp/ccBSVtDf.s:609    .text:00000000000001d0 .LVL34
     /tmp/ccBSVtDf.s:628    .text:00000000000001e0 .LVL37
     /tmp/ccBSVtDf.s:647    .text:00000000000001f0 .LVL40
     /tmp/ccBSVtDf.s:195    .text:00000000000000cc .LVL6
     /tmp/ccBSVtDf.s:211    .text:00000000000000d8 .LVL7
     /tmp/ccBSVtDf.s:446    .text:0000000000000148 .LVL11
     /tmp/ccBSVtDf.s:458    .text:0000000000000154 .LVL13
     /tmp/ccBSVtDf.s:502    .text:0000000000000164 .LVL16
     /tmp/ccBSVtDf.s:523    .text:0000000000000174 .LVL19
     /tmp/ccBSVtDf.s:529    .text:0000000000000178 .LVL20
     /tmp/ccBSVtDf.s:573    .text:00000000000001a8 .LVL28
     /tmp/ccBSVtDf.s:579    .text:00000000000001ac .LVL29
     /tmp/ccBSVtDf.s:601    .text:00000000000001c4 .LVL32
     /tmp/ccBSVtDf.s:620    .text:00000000000001d4 .LVL35
     /tmp/ccBSVtDf.s:639    .text:00000000000001e4 .LVL38
     /tmp/ccBSVtDf.s:416    .text:0000000000000134 .LVL8
     /tmp/ccBSVtDf.s:472    .text:0000000000000158 .LVL14
     /tmp/ccBSVtDf.s:700    .text:0000000000000210 .LVL44
     /tmp/ccBSVtDf.s:716    .text:000000000000021c .LVL45
     /tmp/ccBSVtDf.s:736    .text:0000000000000234 .LVL47
     /tmp/ccBSVtDf.s:837    .text:0000000000000288 .LVL54
     /tmp/ccBSVtDf.s:857    .text:00000000000002a0 .LVL56
     /tmp/ccBSVtDf.s:770    .text:000000000000025c .LVL49
     /tmp/ccBSVtDf.s:777    .text:0000000000000260 .LVL50
     /tmp/ccBSVtDf.s:928    .debug_info:0000000000000000 .Ldebug_info0
     /tmp/ccBSVtDf.s:174    .text:00000000000000bc .LBB92
     /tmp/ccBSVtDf.s:219    .text:00000000000000e0 .LBE92
     /tmp/ccBSVtDf.s:223    .text:00000000000000e0 .LBB186
     /tmp/ccBSVtDf.s:230    .text:00000000000000e8 .LBE186
     /tmp/ccBSVtDf.s:234    .text:00000000000000e8 .LBB187
     /tmp/ccBSVtDf.s:243    .text:00000000000000f0 .LBE187
     /tmp/ccBSVtDf.s:247    .text:00000000000000f0 .LBB188
     /tmp/ccBSVtDf.s:258    .text:00000000000000f8 .LBE188
GAS LISTING /tmp/ccBSVtDf.s 			page 36


     /tmp/ccBSVtDf.s:262    .text:00000000000000f8 .LBB189
     /tmp/ccBSVtDf.s:275    .text:0000000000000100 .LBE189
     /tmp/ccBSVtDf.s:279    .text:0000000000000100 .LBB190
     /tmp/ccBSVtDf.s:294    .text:0000000000000108 .LBE190
     /tmp/ccBSVtDf.s:298    .text:0000000000000108 .LBB191
     /tmp/ccBSVtDf.s:315    .text:0000000000000110 .LBE191
     /tmp/ccBSVtDf.s:319    .text:0000000000000110 .LBB192
     /tmp/ccBSVtDf.s:338    .text:0000000000000118 .LBE192
     /tmp/ccBSVtDf.s:342    .text:0000000000000118 .LBB193
     /tmp/ccBSVtDf.s:363    .text:0000000000000120 .LBE193
     /tmp/ccBSVtDf.s:367    .text:0000000000000120 .LBB194
     /tmp/ccBSVtDf.s:390    .text:0000000000000128 .LBE194
     /tmp/ccBSVtDf.s:394    .text:0000000000000128 .LBB195
     /tmp/ccBSVtDf.s:677    .text:0000000000000200 .LBE195

UNDEFINED SYMBOLS
__putc
_ZN15MemoryAllocator9mem_allocEm
_ZN15MemoryAllocator8mem_freeEPv
_ZN3TCB12createThreadEPFvvE
_ZN3TCB7exitTCBEv
_ZN3TCB8dispatchEv
_ZN9KernelSem9createSemEi
_ZN9KernelSem7freeSemEv
_ZN9KernelSem4waitEv
_ZN9KernelSem6signalEv
__getc
_ZN3TCB16timeSliceCounterE
_ZN3TCB7runningE
console_handler
_Z11printStringPKc
