GAS LISTING /tmp/cc6CHS77.s 			page 1


   1              		.file	"riscv.cpp"
   2              		.option pic
   3              		.option norelax
   4              		.text
   5              	.Ltext0:
   6              		.align	2
   7              		.globl	_ZN5Riscv10popSppSpieEv
   9              	_ZN5Riscv10popSppSpieEv:
  10              	.LFB22:
  11              		.file 1 "src/riscv.cpp"
   1:src/riscv.cpp **** //
   2:src/riscv.cpp **** // Created by os on 4/26/22.
   3:src/riscv.cpp **** //
   4:src/riscv.cpp **** #include "../h/riscv.hpp"
   5:src/riscv.cpp **** #include "../h/tcb.hpp"
   6:src/riscv.cpp **** #include "../lib/console.h"
   7:src/riscv.cpp **** 
   8:src/riscv.cpp **** void Riscv::popSppSpie() {
  12              		.loc 1 8 26
  13              		.cfi_startproc
  14 0000 130101FF 		addi	sp,sp,-16
  15              		.cfi_def_cfa_offset 16
  16 0004 23348100 		sd	s0,8(sp)
  17              		.cfi_offset 8, -8
  18 0008 13040101 		addi	s0,sp,16
  19              		.cfi_def_cfa 8, 0
   9:src/riscv.cpp ****     __asm__ volatile ("csrw sepc, ra");
  20              		.loc 1 9 5
  21              		.loc 1 9 39 is_stmt 0
  22              	#APP
  23              	# 9 "src/riscv.cpp" 1
  10              	    __asm__ volatile ("sret");
  24              		csrw sepc, ra
  25              	# 0 "" 2
  26              		.loc 1 10 5 is_stmt 1
  27              		.loc 1 10 30 is_stmt 0
  28              	# 10 "src/riscv.cpp" 1
  11              	}
  29              		sret
  30              	# 0 "" 2
  31              		.loc 1 11 1
  32              	#NO_APP
  33 0014 03348100 		ld	s0,8(sp)
  34              		.cfi_restore 8
  35              		.cfi_def_cfa 2, 16
  36 0018 13010101 		addi	sp,sp,16
  37              		.cfi_def_cfa_offset 0
  38 001c 67800000 		jr	ra
  39              		.cfi_endproc
  40              	.LFE22:
  42              		.align	2
  43              		.globl	_ZN5Riscv20handleSupervisorTrapEv
  45              	_ZN5Riscv20handleSupervisorTrapEv:
  46              	.LFB23:
  12:src/riscv.cpp **** 
  13:src/riscv.cpp **** void Riscv::handleSupervisorTrap() {
  47              		.loc 1 13 36 is_stmt 1
GAS LISTING /tmp/cc6CHS77.s 			page 2


  48              		.cfi_startproc
  49 0020 130101FB 		addi	sp,sp,-80
  50              		.cfi_def_cfa_offset 80
  51 0024 23341104 		sd	ra,72(sp)
  52 0028 23308104 		sd	s0,64(sp)
  53 002c 233C9102 		sd	s1,56(sp)
  54 0030 23382103 		sd	s2,48(sp)
  55              		.cfi_offset 1, -8
  56              		.cfi_offset 8, -16
  57              		.cfi_offset 9, -24
  58              		.cfi_offset 18, -32
  59 0034 13040105 		addi	s0,sp,80
  60              		.cfi_def_cfa 8, 0
  14:src/riscv.cpp ****     uint64 scause = r_scause();
  61              		.loc 1 14 5
  62              	.LBB30:
  63              	.LBB31:
  64              		.file 2 "src/../h/riscv.hpp"
   1:src/../h/riscv.hpp **** //
   2:src/../h/riscv.hpp **** // Created by os on 4/26/22.
   3:src/../h/riscv.hpp **** //
   4:src/../h/riscv.hpp **** 
   5:src/../h/riscv.hpp **** #ifndef PROJECT_BASE_V1_0_RISCV_HPP
   6:src/../h/riscv.hpp **** #define PROJECT_BASE_V1_0_RISCV_HPP
   7:src/../h/riscv.hpp **** 
   8:src/../h/riscv.hpp **** #include "../lib/hw.h"
   9:src/../h/riscv.hpp **** 
  10:src/../h/riscv.hpp **** class Riscv{
  11:src/../h/riscv.hpp **** public:
  12:src/../h/riscv.hpp **** 
  13:src/../h/riscv.hpp ****     static void popSppSpie();
  14:src/../h/riscv.hpp **** 
  15:src/../h/riscv.hpp ****     //read
  16:src/../h/riscv.hpp ****     static uint64 r_scause();
  17:src/../h/riscv.hpp **** 
  18:src/../h/riscv.hpp ****     //write
  19:src/../h/riscv.hpp ****     static void w_scause(uint64 scause);
  20:src/../h/riscv.hpp **** 
  21:src/../h/riscv.hpp ****     static uint64 r_sepc();
  22:src/../h/riscv.hpp **** 
  23:src/../h/riscv.hpp ****     static void w_sepc(uint64 sepc);
  24:src/../h/riscv.hpp **** 
  25:src/../h/riscv.hpp ****     static uint64 r_stvec();
  26:src/../h/riscv.hpp **** 
  27:src/../h/riscv.hpp ****     static void w_stvec(uint64 stvec);
  28:src/../h/riscv.hpp **** 
  29:src/../h/riscv.hpp ****     static uint64 r_stval();
  30:src/../h/riscv.hpp **** 
  31:src/../h/riscv.hpp ****     static void w_stval(uint64 stval);
  32:src/../h/riscv.hpp **** 
  33:src/../h/riscv.hpp ****     enum BitMaskSip{
  34:src/../h/riscv.hpp ****         SIP_SSIP = (1 << 1),
  35:src/../h/riscv.hpp ****         SIP_STIP = (1 << 5),
  36:src/../h/riscv.hpp ****         SIP_SEIP = (1 << 9),
  37:src/../h/riscv.hpp ****     };
  38:src/../h/riscv.hpp ****     // mask set
  39:src/../h/riscv.hpp ****     static void ms_sip(uint64 mask);
GAS LISTING /tmp/cc6CHS77.s 			page 3


  40:src/../h/riscv.hpp ****     // mask clear
  41:src/../h/riscv.hpp ****     static void mc_sip(uint64 mask);
  42:src/../h/riscv.hpp **** 
  43:src/../h/riscv.hpp ****     static uint64 r_sip();
  44:src/../h/riscv.hpp **** 
  45:src/../h/riscv.hpp ****     static void w_sip(uint64 sip);
  46:src/../h/riscv.hpp **** 
  47:src/../h/riscv.hpp ****     enum BitMaskSstatus{
  48:src/../h/riscv.hpp ****         SSTATUS_SIE = (1 << 1),
  49:src/../h/riscv.hpp ****         SSTATUS_SPIE = (1 << 5),
  50:src/../h/riscv.hpp ****         SSTATUS_SPP = (1 << 8),
  51:src/../h/riscv.hpp ****     };
  52:src/../h/riscv.hpp **** 
  53:src/../h/riscv.hpp ****     static void ms_sstatus(uint64 mask);
  54:src/../h/riscv.hpp **** 
  55:src/../h/riscv.hpp ****     static void mc_sstatus(uint64 mask);
  56:src/../h/riscv.hpp **** 
  57:src/../h/riscv.hpp ****     static uint64 r_sstatus();
  58:src/../h/riscv.hpp **** 
  59:src/../h/riscv.hpp ****     static void w_sstatus(uint64 sstatus);
  60:src/../h/riscv.hpp **** 
  61:src/../h/riscv.hpp ****     static void supervisorTrap();
  62:src/../h/riscv.hpp **** 
  63:src/../h/riscv.hpp **** private:
  64:src/../h/riscv.hpp ****     static void handleSupervisorTrap();
  65:src/../h/riscv.hpp **** };
  66:src/../h/riscv.hpp **** 
  67:src/../h/riscv.hpp **** inline uint64 Riscv::r_scause() {
  68:src/../h/riscv.hpp ****     uint64 volatile scause;
  65              		.loc 2 68 5
  69:src/../h/riscv.hpp ****     __asm__ volatile ("csrr %[scause], scause" : [scause] "=r"(scause));
  66              		.loc 2 69 5
  67              		.loc 2 69 72 is_stmt 0
  68              	#APP
  69              	# 69 "src/../h/riscv.hpp" 1
  70              	    return scause;
  70              		csrr a5, scause
  71              	# 0 "" 2
  72              	#NO_APP
  73 003c 233CF4FA 		sd	a5,-72(s0)
  74              		.loc 2 70 5 is_stmt 1
  75              		.loc 2 70 12 is_stmt 0
  76 0040 033784FB 		ld	a4,-72(s0)
  77              	.LVL0:
  78              	.LBE31:
  79              	.LBE30:
  15:src/riscv.cpp ****     if (scause == 0x0000000000000009UL) {
  80              		.loc 1 15 5 is_stmt 1
  81              	.LBB32:
  82 0044 93079000 		li	a5,9
  83 0048 630EF702 		beq	a4,a5,.L9
  84              	.LBE32:
  16:src/riscv.cpp ****         // interrupt: no; cause code: environment call from S-mode(9)
  17:src/riscv.cpp ****         uint64 sepc = r_sepc() + 4; uint64 sstatus = r_sstatus();
  18:src/riscv.cpp ****         TCB::timeSliceCounter = 0;
  19:src/riscv.cpp ****         TCB::dispatch();
  20:src/riscv.cpp ****         w_sstatus(sstatus); w_sepc(sepc);
GAS LISTING /tmp/cc6CHS77.s 			page 4


  21:src/riscv.cpp ****     } else if (scause == 0x8000000000000001UL) {
  85              		.loc 1 21 12
  86              	.LBB60:
  87              	.LBB33:
  88 004c 9307F0FF 		li	a5,-1
  89 0050 9397F703 		slli	a5,a5,63
  90 0054 93871700 		addi	a5,a5,1
  91 0058 6304F706 		beq	a4,a5,.L10
  22:src/riscv.cpp ****         // interrupt: yes; cause code: supervisor software interrupt (CLINT; machine timer interrup
  23:src/riscv.cpp ****         TCB::timeSliceCounter++;
  24:src/riscv.cpp ****         if (TCB::timeSliceCounter >= TCB::running->getTimeSlice()) {
  25:src/riscv.cpp ****             uint64 sepc = r_sepc(); uint64 sstatus = r_sstatus();
  26:src/riscv.cpp ****             TCB::timeSliceCounter = 0;
  27:src/riscv.cpp ****             TCB::dispatch();
  28:src/riscv.cpp ****             w_sstatus(sstatus); w_sepc(sepc);
  29:src/riscv.cpp ****         }
  30:src/riscv.cpp ****         mc_sip(SIP_SSIP);
  31:src/riscv.cpp ****     } else if (scause == 0x8000000000000009UL) {
  92              		.loc 1 31 12
  93 005c 9307F0FF 		li	a5,-1
  94 0060 9397F703 		slli	a5,a5,63
  95 0064 93879700 		addi	a5,a5,9
  96 0068 6302F70C 		beq	a4,a5,.L11
  97              	.LVL1:
  98              	.L3:
  99              	.LBE33:
 100              	.LBE60:
  32:src/riscv.cpp ****         // interrupt: yes; cause code: supervisor external interrupt (PLIC; could be keyboard)
  33:src/riscv.cpp ****         console_handler();
  34:src/riscv.cpp ****     } else {
  35:src/riscv.cpp ****         // unexpected trap cause
  36:src/riscv.cpp ****     }
  37:src/riscv.cpp **** }
 101              		.loc 1 37 1 is_stmt 0
 102 006c 83308104 		ld	ra,72(sp)
 103              		.cfi_remember_state
 104              		.cfi_restore 1
 105 0070 03340104 		ld	s0,64(sp)
 106              		.cfi_restore 8
 107              		.cfi_def_cfa 2, 80
 108 0074 83348103 		ld	s1,56(sp)
 109              		.cfi_restore 9
 110 0078 03390103 		ld	s2,48(sp)
 111              		.cfi_restore 18
 112 007c 13010105 		addi	sp,sp,80
 113              		.cfi_def_cfa_offset 0
 114 0080 67800000 		jr	ra
 115              	.LVL2:
 116              	.L9:
 117              		.cfi_restore_state
 118              	.LBB61:
 119              	.LBB50:
  17:src/riscv.cpp ****         TCB::timeSliceCounter = 0;
 120              		.loc 1 17 9 is_stmt 1
 121              	.LBB51:
 122              	.LBB52:
  71:src/../h/riscv.hpp **** }
GAS LISTING /tmp/cc6CHS77.s 			page 5


  72:src/../h/riscv.hpp **** 
  73:src/../h/riscv.hpp **** inline void Riscv::w_scause(uint64 scause) {
  74:src/../h/riscv.hpp ****     __asm__ volatile ("csrw scause, %[scause]" : : [scause] "r"(scause));
  75:src/../h/riscv.hpp **** }
  76:src/../h/riscv.hpp **** 
  77:src/../h/riscv.hpp **** inline uint64 Riscv::r_sepc() {
  78:src/../h/riscv.hpp ****     uint64 volatile sepc;
 123              		.loc 2 78 5
  79:src/../h/riscv.hpp ****     __asm__ volatile ("csrr %[sepc], sepc" : [sepc] "=r"(sepc));
 124              		.loc 2 79 5
 125              		.loc 2 79 64 is_stmt 0
 126              	#APP
 127              	# 79 "src/../h/riscv.hpp" 1
  80              	    return sepc;
 128              		csrr a5, sepc
 129              	# 0 "" 2
 130              	#NO_APP
 131 0088 2334F4FC 		sd	a5,-56(s0)
 132              		.loc 2 80 5 is_stmt 1
 133              		.loc 2 80 12 is_stmt 0
 134 008c 833484FC 		ld	s1,-56(s0)
 135              	.LBE52:
 136              	.LBE51:
  17:src/riscv.cpp ****         TCB::timeSliceCounter = 0;
 137              		.loc 1 17 34
 138 0090 93844400 		addi	s1,s1,4
 139              	.LVL3:
  17:src/riscv.cpp ****         TCB::timeSliceCounter = 0;
 140              		.loc 1 17 37 is_stmt 1
 141              	.LBB53:
 142              	.LBB54:
  81:src/../h/riscv.hpp **** }
  82:src/../h/riscv.hpp **** 
  83:src/../h/riscv.hpp **** inline void Riscv::w_sepc(uint64 sepc) {
  84:src/../h/riscv.hpp ****     __asm__ volatile ("csrw sepc, %[sepc]" : : [sepc] "r"(sepc));
  85:src/../h/riscv.hpp **** }
  86:src/../h/riscv.hpp **** 
  87:src/../h/riscv.hpp **** inline uint64 Riscv::r_stvec() {
  88:src/../h/riscv.hpp ****     uint64 volatile stvec;
  89:src/../h/riscv.hpp ****     __asm__ volatile ("csrr %[stvec], stvec" : [stvec] "=r"(stvec));
  90:src/../h/riscv.hpp ****     return stvec;
  91:src/../h/riscv.hpp **** }
  92:src/../h/riscv.hpp **** 
  93:src/../h/riscv.hpp **** inline void Riscv::w_stvec(uint64 stvec) {
  94:src/../h/riscv.hpp ****     __asm__ volatile ("csrw stvec, %[stvec]" : : [stvec] "r"(stvec));
  95:src/../h/riscv.hpp **** }
  96:src/../h/riscv.hpp **** 
  97:src/../h/riscv.hpp **** inline uint64 Riscv::r_stval() {
  98:src/../h/riscv.hpp ****     uint64 volatile stval;
  99:src/../h/riscv.hpp ****     __asm__ volatile ("csrr %[stval], stval" : [stval] "=r"(stval));
 100:src/../h/riscv.hpp ****     return stval;
 101:src/../h/riscv.hpp **** }
 102:src/../h/riscv.hpp **** 
 103:src/../h/riscv.hpp **** inline void Riscv::w_stval(uint64 stval) {
 104:src/../h/riscv.hpp ****     __asm__ volatile ("csrw stval, %[stval]" : : [stval] "r"(stval));
 105:src/../h/riscv.hpp **** }
 106:src/../h/riscv.hpp **** 
GAS LISTING /tmp/cc6CHS77.s 			page 6


 107:src/../h/riscv.hpp **** inline void Riscv::ms_sip(uint64 mask) {
 108:src/../h/riscv.hpp ****     __asm__ volatile ("csrs sip, %[mask]" : : [mask] "r"(mask));
 109:src/../h/riscv.hpp **** }
 110:src/../h/riscv.hpp **** 
 111:src/../h/riscv.hpp **** inline void Riscv::mc_sip(uint64 mask) {
 112:src/../h/riscv.hpp ****     __asm__ volatile ("csrc sip, %[mask]" : : [mask] "r"(mask));
 113:src/../h/riscv.hpp **** }
 114:src/../h/riscv.hpp **** 
 115:src/../h/riscv.hpp **** inline uint64 Riscv::r_sip() {
 116:src/../h/riscv.hpp ****     uint64 volatile sip;
 117:src/../h/riscv.hpp ****     __asm__ volatile ("csrr %[sip], sip" : [sip] "=r"(sip));
 118:src/../h/riscv.hpp ****     return sip;
 119:src/../h/riscv.hpp **** }
 120:src/../h/riscv.hpp **** 
 121:src/../h/riscv.hpp **** inline void Riscv::w_sip(uint64 sip) {
 122:src/../h/riscv.hpp ****     __asm__ volatile ("csrw sip, %[sip]" : : [sip] "r"(sip));
 123:src/../h/riscv.hpp **** }
 124:src/../h/riscv.hpp **** 
 125:src/../h/riscv.hpp **** inline void Riscv::ms_sstatus(uint64 mask) {
 126:src/../h/riscv.hpp ****     __asm__ volatile ("csrs sstatus, %[mask]" : : [mask] "r"(mask));
 127:src/../h/riscv.hpp **** }
 128:src/../h/riscv.hpp **** 
 129:src/../h/riscv.hpp **** inline void Riscv::mc_sstatus(uint64 mask) {
 130:src/../h/riscv.hpp ****     __asm__ volatile ("csrc sstatus, %[mask]" : : [mask] "r"(mask));
 131:src/../h/riscv.hpp **** }
 132:src/../h/riscv.hpp **** 
 133:src/../h/riscv.hpp **** inline uint64 Riscv::r_sstatus() {
 134:src/../h/riscv.hpp ****     uint64 volatile sstatus;
 143              		.loc 2 134 5
 135:src/../h/riscv.hpp ****     __asm__ volatile ("csrr %[sstatus], sstatus" : [sstatus] "=r"(sstatus));
 144              		.loc 2 135 5
 145              		.loc 2 135 76 is_stmt 0
 146              	#APP
 147              	# 135 "src/../h/riscv.hpp" 1
 136              	    return sstatus;
 148              		csrr a5, sstatus
 149              	# 0 "" 2
 150              	#NO_APP
 151 0098 2330F4FC 		sd	a5,-64(s0)
 152              		.loc 2 136 5 is_stmt 1
 153              		.loc 2 136 12 is_stmt 0
 154 009c 033904FC 		ld	s2,-64(s0)
 155              	.LVL4:
 156              	.LBE54:
 157              	.LBE53:
  18:src/riscv.cpp ****         TCB::dispatch();
 158              		.loc 1 18 9 is_stmt 1
  18:src/riscv.cpp ****         TCB::dispatch();
 159              		.loc 1 18 31 is_stmt 0
 160 00a0 97070000 		la	a5,_ZN3TCB16timeSliceCounterE
 160      83B70700 
 161 00a8 23B00700 		sd	zero,0(a5)
  19:src/riscv.cpp ****         w_sstatus(sstatus); w_sepc(sepc);
 162              		.loc 1 19 9 is_stmt 1
  19:src/riscv.cpp ****         w_sstatus(sstatus); w_sepc(sepc);
 163              		.loc 1 19 22 is_stmt 0
 164 00ac 97000000 		call	_ZN3TCB8dispatchEv@plt
GAS LISTING /tmp/cc6CHS77.s 			page 7


 164      E7800000 
 165              	.LVL5:
  20:src/riscv.cpp ****     } else if (scause == 0x8000000000000001UL) {
 166              		.loc 1 20 9 is_stmt 1
 167              	.LBB55:
 168              	.LBB56:
 137:src/../h/riscv.hpp **** }
 138:src/../h/riscv.hpp **** inline void Riscv::w_sstatus(uint64 sstatus) {
 139:src/../h/riscv.hpp ****     __asm__ volatile ("csrw sstatus, %[sstatus]" : : [sstatus] "r"(sstatus));
 169              		.loc 2 139 5
 170              		.loc 2 139 77 is_stmt 0
 171              	#APP
 172              	# 139 "src/../h/riscv.hpp" 1
 140              	}
 173              		csrw sstatus, s2
 174              	# 0 "" 2
 175              	.LVL6:
 176              	#NO_APP
 177              	.LBE56:
 178              	.LBE55:
  20:src/riscv.cpp ****     } else if (scause == 0x8000000000000001UL) {
 179              		.loc 1 20 29 is_stmt 1
 180              	.LBB57:
 181              	.LBB58:
  84:src/../h/riscv.hpp **** }
 182              		.loc 2 84 5
  84:src/../h/riscv.hpp **** }
 183              		.loc 2 84 65 is_stmt 0
 184              	#APP
 185              	# 84 "src/../h/riscv.hpp" 1
  85:src/../h/riscv.hpp **** 
 186              		csrw sepc, s1
 187              	# 0 "" 2
 188              		.loc 2 85 1
 189              	#NO_APP
 190 00bc 6FF01FFB 		j	.L3
 191              	.LVL7:
 192              	.L10:
 193              	.LBE58:
 194              	.LBE57:
 195              	.LBE50:
 196              	.LBB59:
 197              	.LBB34:
  23:src/riscv.cpp ****         if (TCB::timeSliceCounter >= TCB::running->getTimeSlice()) {
 198              		.loc 1 23 9 is_stmt 1
  23:src/riscv.cpp ****         if (TCB::timeSliceCounter >= TCB::running->getTimeSlice()) {
 199              		.loc 1 23 30 is_stmt 0
 200 00c0 17070000 		la	a4,_ZN3TCB16timeSliceCounterE
 200      03370700 
 201              	.LVL8:
 202 00c8 83370700 		ld	a5,0(a4)
 203 00cc 93871700 		addi	a5,a5,1
 204 00d0 2330F700 		sd	a5,0(a4)
  24:src/riscv.cpp ****             uint64 sepc = r_sepc(); uint64 sstatus = r_sstatus();
 205              		.loc 1 24 9 is_stmt 1
 206              	.LBB35:
  24:src/riscv.cpp ****             uint64 sepc = r_sepc(); uint64 sstatus = r_sstatus();
GAS LISTING /tmp/cc6CHS77.s 			page 8


 207              		.loc 1 24 64 is_stmt 0
 208 00d4 17070000 		la	a4,_ZN3TCB7runningE
 208      03370700 
 209 00dc 03370700 		ld	a4,0(a4)
 210              	.LVL9:
 211              	.LBB36:
 212              	.LBB37:
 213              		.file 3 "src/../h/tcb.hpp"
   1:src/../h/tcb.hpp **** //
   2:src/../h/tcb.hpp **** // Created by os on 4/26/22.
   3:src/../h/tcb.hpp **** //
   4:src/../h/tcb.hpp **** 
   5:src/../h/tcb.hpp **** #ifndef PROJECT_BASE_V1_0_TCB_HPP
   6:src/../h/tcb.hpp **** #define PROJECT_BASE_V1_0_TCB_HPP
   7:src/../h/tcb.hpp **** 
   8:src/../h/tcb.hpp **** #include "../lib/hw.h"
   9:src/../h/tcb.hpp **** 
  10:src/../h/tcb.hpp **** class TCB {
  11:src/../h/tcb.hpp ****         public:
  12:src/../h/tcb.hpp ****         ~TCB() { delete[] stack; }
  13:src/../h/tcb.hpp ****         bool isFinished() const { return finished; }
  14:src/../h/tcb.hpp ****         void setFinished(bool value) { finished = value; }
  15:src/../h/tcb.hpp ****         uint64 getTimeSlice() const { return timeSlice; }
 214              		.loc 3 15 39 is_stmt 1
 215              		.loc 3 15 46 is_stmt 0
 216 00e0 03370702 		ld	a4,32(a4)
 217              	.LVL10:
 218              	.LBE37:
 219              	.LBE36:
  24:src/riscv.cpp ****             uint64 sepc = r_sepc(); uint64 sstatus = r_sstatus();
 220              		.loc 1 24 9
 221 00e4 63F8E700 		bgeu	a5,a4,.L12
 222              	.L7:
 223              	.LBE35:
  30:src/riscv.cpp ****     } else if (scause == 0x8000000000000009UL) {
 224              		.loc 1 30 9 is_stmt 1
 225              	.LVL11:
 226              	.LBB47:
 227              	.LBB48:
 112:src/../h/riscv.hpp **** }
 228              		.loc 2 112 5
 112:src/../h/riscv.hpp **** }
 229              		.loc 2 112 64 is_stmt 0
 230 00e8 93072000 		li	a5,2
 231              	#APP
 232              	# 112 "src/../h/riscv.hpp" 1
 113:src/../h/riscv.hpp **** 
 233              		csrc sip, a5
 234              	# 0 "" 2
 235              		.loc 2 113 1
 236              	#NO_APP
 237 00f0 6FF0DFF7 		j	.L3
 238              	.LVL12:
 239              	.L12:
 240              	.LBE48:
 241              	.LBE47:
 242              	.LBB49:
GAS LISTING /tmp/cc6CHS77.s 			page 9


 243              	.LBB38:
  25:src/riscv.cpp ****             TCB::timeSliceCounter = 0;
 244              		.loc 1 25 13 is_stmt 1
 245              	.LBB39:
 246              	.LBB40:
  78:src/../h/riscv.hpp ****     __asm__ volatile ("csrr %[sepc], sepc" : [sepc] "=r"(sepc));
 247              		.loc 2 78 5
  79:src/../h/riscv.hpp ****     return sepc;
 248              		.loc 2 79 5
  79:src/../h/riscv.hpp ****     return sepc;
 249              		.loc 2 79 64 is_stmt 0
 250              	#APP
 251              	# 79 "src/../h/riscv.hpp" 1
 252              		csrr a5, sepc
 253              	# 0 "" 2
 254              	#NO_APP
 255 00f8 233CF4FC 		sd	a5,-40(s0)
  80:src/../h/riscv.hpp **** }
 256              		.loc 2 80 5 is_stmt 1
  80:src/../h/riscv.hpp **** }
 257              		.loc 2 80 12 is_stmt 0
 258 00fc 833484FD 		ld	s1,-40(s0)
 259              	.LVL13:
 260              	.LBE40:
 261              	.LBE39:
  25:src/riscv.cpp ****             TCB::timeSliceCounter = 0;
 262              		.loc 1 25 37 is_stmt 1
 263              	.LBB41:
 264              	.LBB42:
 134:src/../h/riscv.hpp ****     __asm__ volatile ("csrr %[sstatus], sstatus" : [sstatus] "=r"(sstatus));
 265              		.loc 2 134 5
 135:src/../h/riscv.hpp ****     return sstatus;
 266              		.loc 2 135 5
 135:src/../h/riscv.hpp ****     return sstatus;
 267              		.loc 2 135 76 is_stmt 0
 268              	#APP
 269              	# 135 "src/../h/riscv.hpp" 1
 270              		csrr a5, sstatus
 271              	# 0 "" 2
 272              	#NO_APP
 273 0104 2338F4FC 		sd	a5,-48(s0)
 136:src/../h/riscv.hpp **** }
 274              		.loc 2 136 5 is_stmt 1
 136:src/../h/riscv.hpp **** }
 275              		.loc 2 136 12 is_stmt 0
 276 0108 033904FD 		ld	s2,-48(s0)
 277              	.LVL14:
 278              	.LBE42:
 279              	.LBE41:
  26:src/riscv.cpp ****             TCB::dispatch();
 280              		.loc 1 26 13 is_stmt 1
  26:src/riscv.cpp ****             TCB::dispatch();
 281              		.loc 1 26 35 is_stmt 0
 282 010c 97070000 		la	a5,_ZN3TCB16timeSliceCounterE
 282      83B70700 
 283 0114 23B00700 		sd	zero,0(a5)
  27:src/riscv.cpp ****             w_sstatus(sstatus); w_sepc(sepc);
GAS LISTING /tmp/cc6CHS77.s 			page 10


 284              		.loc 1 27 13 is_stmt 1
  27:src/riscv.cpp ****             w_sstatus(sstatus); w_sepc(sepc);
 285              		.loc 1 27 26 is_stmt 0
 286 0118 97000000 		call	_ZN3TCB8dispatchEv@plt
 286      E7800000 
 287              	.LVL15:
  28:src/riscv.cpp ****         }
 288              		.loc 1 28 13 is_stmt 1
 289              	.LBB43:
 290              	.LBB44:
 139:src/../h/riscv.hpp **** }
 291              		.loc 2 139 5
 139:src/../h/riscv.hpp **** }
 292              		.loc 2 139 77 is_stmt 0
 293              	#APP
 294              	# 139 "src/../h/riscv.hpp" 1
 295              		csrw sstatus, s2
 296              	# 0 "" 2
 297              	.LVL16:
 298              	#NO_APP
 299              	.LBE44:
 300              	.LBE43:
  28:src/riscv.cpp ****         }
 301              		.loc 1 28 33 is_stmt 1
 302              	.LBB45:
 303              	.LBB46:
  84:src/../h/riscv.hpp **** }
 304              		.loc 2 84 5
  84:src/../h/riscv.hpp **** }
 305              		.loc 2 84 65 is_stmt 0
 306              	#APP
 307              	# 84 "src/../h/riscv.hpp" 1
  85:src/../h/riscv.hpp **** 
 308              		csrw sepc, s1
 309              	# 0 "" 2
 310              		.loc 2 85 1
 311              	#NO_APP
 312 0128 6FF01FFC 		j	.L7
 313              	.LVL17:
 314              	.L11:
 315              	.LBE46:
 316              	.LBE45:
 317              	.LBE38:
 318              	.LBE49:
 319              	.LBE34:
  33:src/riscv.cpp ****     } else {
 320              		.loc 1 33 9 is_stmt 1
  33:src/riscv.cpp ****     } else {
 321              		.loc 1 33 24 is_stmt 0
 322 012c 97000000 		call	console_handler@plt
 322      E7800000 
 323              	.LVL18:
 324              	.LBE59:
 325              	.LBE61:
 326              		.loc 1 37 1
 327 0134 6FF09FF3 		j	.L3
 328              		.cfi_endproc
GAS LISTING /tmp/cc6CHS77.s 			page 11


 329              	.LFE23:
 331              	.Letext0:
 332              		.file 4 "src/../h/../lib/hw.h"
 333              		.file 5 "src/../lib/console.h"
GAS LISTING /tmp/cc6CHS77.s 			page 12


DEFINED SYMBOLS
                            *ABS*:0000000000000000 riscv.cpp
     /tmp/cc6CHS77.s:9      .text:0000000000000000 _ZN5Riscv10popSppSpieEv
     /tmp/cc6CHS77.s:13     .text:0000000000000000 .L0 
     /tmp/cc6CHS77.s:14     .text:0000000000000000 .L0 
     /tmp/cc6CHS77.s:15     .text:0000000000000004 .L0 
     /tmp/cc6CHS77.s:17     .text:0000000000000008 .L0 
     /tmp/cc6CHS77.s:19     .text:000000000000000c .L0 
     /tmp/cc6CHS77.s:21     .text:000000000000000c .L0 
       src/riscv.cpp:9      .text:000000000000000c .L0 
     /tmp/cc6CHS77.s:27     .text:0000000000000010 .L0 
       src/riscv.cpp:10     .text:0000000000000010 .L0 
     /tmp/cc6CHS77.s:33     .text:0000000000000014 .L0 
     /tmp/cc6CHS77.s:34     .text:0000000000000018 .L0 
     /tmp/cc6CHS77.s:35     .text:0000000000000018 .L0 
     /tmp/cc6CHS77.s:37     .text:000000000000001c .L0 
     /tmp/cc6CHS77.s:39     .text:0000000000000020 .L0 
     /tmp/cc6CHS77.s:45     .text:0000000000000020 _ZN5Riscv20handleSupervisorTrapEv
     /tmp/cc6CHS77.s:48     .text:0000000000000020 .L0 
     /tmp/cc6CHS77.s:49     .text:0000000000000020 .L0 
     /tmp/cc6CHS77.s:50     .text:0000000000000024 .L0 
     /tmp/cc6CHS77.s:55     .text:0000000000000034 .L0 
     /tmp/cc6CHS77.s:56     .text:0000000000000034 .L0 
     /tmp/cc6CHS77.s:57     .text:0000000000000034 .L0 
     /tmp/cc6CHS77.s:58     .text:0000000000000034 .L0 
     /tmp/cc6CHS77.s:60     .text:0000000000000038 .L0 
     /tmp/cc6CHS77.s:65     .text:0000000000000038 .L0 
     /tmp/cc6CHS77.s:66     .text:0000000000000038 .L0 
     /tmp/cc6CHS77.s:67     .text:0000000000000038 .L0 
  src/../h/riscv.hpp:69     .text:0000000000000038 .L0 
     /tmp/cc6CHS77.s:75     .text:0000000000000040 .L0 
     /tmp/cc6CHS77.s:76     .text:0000000000000040 .L0 
     /tmp/cc6CHS77.s:82     .text:0000000000000044 .L0 
     /tmp/cc6CHS77.s:88     .text:000000000000004c .L0 
     /tmp/cc6CHS77.s:93     .text:000000000000005c .L0 
     /tmp/cc6CHS77.s:102    .text:000000000000006c .L0 
     /tmp/cc6CHS77.s:103    .text:0000000000000070 .L0 
     /tmp/cc6CHS77.s:104    .text:0000000000000070 .L0 
     /tmp/cc6CHS77.s:106    .text:0000000000000074 .L0 
     /tmp/cc6CHS77.s:107    .text:0000000000000074 .L0 
     /tmp/cc6CHS77.s:109    .text:0000000000000078 .L0 
     /tmp/cc6CHS77.s:111    .text:000000000000007c .L0 
     /tmp/cc6CHS77.s:113    .text:0000000000000080 .L0 
     /tmp/cc6CHS77.s:117    .text:0000000000000084 .L0 
     /tmp/cc6CHS77.s:123    .text:0000000000000084 .L0 
     /tmp/cc6CHS77.s:124    .text:0000000000000084 .L0 
     /tmp/cc6CHS77.s:125    .text:0000000000000084 .L0 
  src/../h/riscv.hpp:79     .text:0000000000000084 .L0 
     /tmp/cc6CHS77.s:133    .text:000000000000008c .L0 
     /tmp/cc6CHS77.s:134    .text:000000000000008c .L0 
     /tmp/cc6CHS77.s:138    .text:0000000000000090 .L0 
     /tmp/cc6CHS77.s:143    .text:0000000000000094 .L0 
     /tmp/cc6CHS77.s:144    .text:0000000000000094 .L0 
     /tmp/cc6CHS77.s:145    .text:0000000000000094 .L0 
  src/../h/riscv.hpp:135    .text:0000000000000094 .L0 
     /tmp/cc6CHS77.s:153    .text:000000000000009c .L0 
     /tmp/cc6CHS77.s:154    .text:000000000000009c .L0 
GAS LISTING /tmp/cc6CHS77.s 			page 13


     /tmp/cc6CHS77.s:159    .text:00000000000000a0 .L0 
     /tmp/cc6CHS77.s:160    .text:00000000000000a0 .L0 
     /tmp/cc6CHS77.s:163    .text:00000000000000ac .L0 
     /tmp/cc6CHS77.s:164    .text:00000000000000ac .L0 
     /tmp/cc6CHS77.s:169    .text:00000000000000b4 .L0 
     /tmp/cc6CHS77.s:170    .text:00000000000000b4 .L0 
  src/../h/riscv.hpp:139    .text:00000000000000b4 .L0 
     /tmp/cc6CHS77.s:182    .text:00000000000000b8 .L0 
     /tmp/cc6CHS77.s:183    .text:00000000000000b8 .L0 
  src/../h/riscv.hpp:84     .text:00000000000000b8 .L0 
     /tmp/cc6CHS77.s:190    .text:00000000000000bc .L0 
     /tmp/cc6CHS77.s:199    .text:00000000000000c0 .L0 
     /tmp/cc6CHS77.s:200    .text:00000000000000c0 .L0 
     /tmp/cc6CHS77.s:207    .text:00000000000000d4 .L0 
     /tmp/cc6CHS77.s:208    .text:00000000000000d4 .L0 
     /tmp/cc6CHS77.s:215    .text:00000000000000e0 .L0 
     /tmp/cc6CHS77.s:216    .text:00000000000000e0 .L0 
     /tmp/cc6CHS77.s:221    .text:00000000000000e4 .L0 
     /tmp/cc6CHS77.s:228    .text:00000000000000e8 .L0 
     /tmp/cc6CHS77.s:229    .text:00000000000000e8 .L0 
     /tmp/cc6CHS77.s:230    .text:00000000000000e8 .L0 
     /tmp/cc6CHS77.s:237    .text:00000000000000f0 .L0 
     /tmp/cc6CHS77.s:247    .text:00000000000000f4 .L0 
     /tmp/cc6CHS77.s:248    .text:00000000000000f4 .L0 
     /tmp/cc6CHS77.s:249    .text:00000000000000f4 .L0 
  src/../h/riscv.hpp:79     .text:00000000000000f4 .L0 
     /tmp/cc6CHS77.s:257    .text:00000000000000fc .L0 
     /tmp/cc6CHS77.s:258    .text:00000000000000fc .L0 
     /tmp/cc6CHS77.s:265    .text:0000000000000100 .L0 
     /tmp/cc6CHS77.s:266    .text:0000000000000100 .L0 
     /tmp/cc6CHS77.s:267    .text:0000000000000100 .L0 
  src/../h/riscv.hpp:135    .text:0000000000000100 .L0 
     /tmp/cc6CHS77.s:275    .text:0000000000000108 .L0 
     /tmp/cc6CHS77.s:276    .text:0000000000000108 .L0 
     /tmp/cc6CHS77.s:281    .text:000000000000010c .L0 
     /tmp/cc6CHS77.s:282    .text:000000000000010c .L0 
     /tmp/cc6CHS77.s:285    .text:0000000000000118 .L0 
     /tmp/cc6CHS77.s:286    .text:0000000000000118 .L0 
     /tmp/cc6CHS77.s:291    .text:0000000000000120 .L0 
     /tmp/cc6CHS77.s:292    .text:0000000000000120 .L0 
  src/../h/riscv.hpp:139    .text:0000000000000120 .L0 
     /tmp/cc6CHS77.s:304    .text:0000000000000124 .L0 
     /tmp/cc6CHS77.s:305    .text:0000000000000124 .L0 
  src/../h/riscv.hpp:84     .text:0000000000000124 .L0 
     /tmp/cc6CHS77.s:312    .text:0000000000000128 .L0 
     /tmp/cc6CHS77.s:321    .text:000000000000012c .L0 
     /tmp/cc6CHS77.s:322    .text:000000000000012c .L0 
     /tmp/cc6CHS77.s:327    .text:0000000000000134 .L0 
     /tmp/cc6CHS77.s:328    .text:0000000000000138 .L0 
     /tmp/cc6CHS77.s:334    .text:0000000000000138 .L0 
     /tmp/cc6CHS77.s:160    .text:00000000000000a0 .L0 
     /tmp/cc6CHS77.s:200    .text:00000000000000c0 .L0 
     /tmp/cc6CHS77.s:208    .text:00000000000000d4 .L0 
     /tmp/cc6CHS77.s:282    .text:000000000000010c .L0 
     /tmp/cc6CHS77.s:116    .text:0000000000000084 .L9
     /tmp/cc6CHS77.s:192    .text:00000000000000c0 .L10
     /tmp/cc6CHS77.s:314    .text:000000000000012c .L11
GAS LISTING /tmp/cc6CHS77.s 			page 14


     /tmp/cc6CHS77.s:98     .text:000000000000006c .L3
     /tmp/cc6CHS77.s:239    .text:00000000000000f4 .L12
     /tmp/cc6CHS77.s:222    .text:00000000000000e8 .L7
     /tmp/cc6CHS77.s:1214   .debug_abbrev:0000000000000000 .Ldebug_abbrev0
     /tmp/cc6CHS77.s:2303   .debug_str:000000000000050a .LASF87
     /tmp/cc6CHS77.s:2249   .debug_str:0000000000000371 .LASF88
     /tmp/cc6CHS77.s:2279   .debug_str:0000000000000447 .LASF89
     /tmp/cc6CHS77.s:5      .text:0000000000000000 .Ltext0
     /tmp/cc6CHS77.s:331    .text:0000000000000138 .Letext0
     /tmp/cc6CHS77.s:2121   .debug_line:0000000000000000 .Ldebug_line0
     /tmp/cc6CHS77.s:2227   .debug_str:00000000000002ff .LASF0
     /tmp/cc6CHS77.s:2245   .debug_str:000000000000034b .LASF1
     /tmp/cc6CHS77.s:2217   .debug_str:00000000000002b8 .LASF2
     /tmp/cc6CHS77.s:2195   .debug_str:0000000000000223 .LASF4
     /tmp/cc6CHS77.s:2273   .debug_str:000000000000041d .LASF3
     /tmp/cc6CHS77.s:2139   .debug_str:0000000000000056 .LASF5
     /tmp/cc6CHS77.s:2247   .debug_str:000000000000035e .LASF6
     /tmp/cc6CHS77.s:2225   .debug_str:00000000000002ec .LASF7
     /tmp/cc6CHS77.s:2297   .debug_str:00000000000004d7 .LASF8
     /tmp/cc6CHS77.s:2183   .debug_str:00000000000001a8 .LASF9
     /tmp/cc6CHS77.s:2253   .debug_str:000000000000038a .LASF10
     /tmp/cc6CHS77.s:2295   .debug_str:00000000000004c8 .LASF11
     /tmp/cc6CHS77.s:2141   .debug_str:000000000000005d .LASF12
     /tmp/cc6CHS77.s:2125   .debug_str:0000000000000008 .LASF13
     /tmp/cc6CHS77.s:2149   .debug_str:00000000000000a7 .LASF14
     /tmp/cc6CHS77.s:2267   .debug_str:00000000000003e9 .LASF15
     /tmp/cc6CHS77.s:2153   .debug_str:00000000000000c0 .LASF16
     /tmp/cc6CHS77.s:2241   .debug_str:000000000000033a .LASF56
     /tmp/cc6CHS77.s:2207   .debug_str:000000000000026b .LASF90
     /tmp/cc6CHS77.s:2283   .debug_str:0000000000000473 .LASF17
     /tmp/cc6CHS77.s:2239   .debug_str:0000000000000331 .LASF18
     /tmp/cc6CHS77.s:2201   .debug_str:0000000000000238 .LASF19
     /tmp/cc6CHS77.s:2265   .debug_str:00000000000003de .LASF52
     /tmp/cc6CHS77.s:2311   .debug_str:00000000000005cf .LASF54
     /tmp/cc6CHS77.s:2127   .debug_str:0000000000000018 .LASF20
     /tmp/cc6CHS77.s:2167   .debug_str:000000000000012f .LASF22
     /tmp/cc6CHS77.s:2163   .debug_str:000000000000011e .LASF24
     /tmp/cc6CHS77.s:2161   .debug_str:0000000000000109 .LASF26
     /tmp/cc6CHS77.s:2277   .debug_str:0000000000000440 .LASF21
     /tmp/cc6CHS77.s:2255   .debug_str:0000000000000399 .LASF23
     /tmp/cc6CHS77.s:2291   .debug_str:00000000000004b9 .LASF25
     /tmp/cc6CHS77.s:2287   .debug_str:0000000000000494 .LASF27
     /tmp/cc6CHS77.s:2177   .debug_str:0000000000000183 .LASF28
     /tmp/cc6CHS77.s:2155   .debug_str:00000000000000d6 .LASF29
     /tmp/cc6CHS77.s:2123   .debug_str:0000000000000000 .LASF30
     /tmp/cc6CHS77.s:2187   .debug_str:00000000000001cc .LASF31
     /tmp/cc6CHS77.s:2293   .debug_str:00000000000004c0 .LASF32
     /tmp/cc6CHS77.s:2143   .debug_str:000000000000006d .LASF33
     /tmp/cc6CHS77.s:2315   .debug_str:00000000000005f2 .LASF34
     /tmp/cc6CHS77.s:2169   .debug_str:0000000000000144 .LASF35
     /tmp/cc6CHS77.s:2229   .debug_str:000000000000030c .LASF36
     /tmp/cc6CHS77.s:2307   .debug_str:00000000000005b7 .LASF37
     /tmp/cc6CHS77.s:2135   .debug_str:0000000000000036 .LASF38
     /tmp/cc6CHS77.s:2175   .debug_str:0000000000000170 .LASF39
     /tmp/cc6CHS77.s:2179   .debug_str:000000000000018b .LASF40
     /tmp/cc6CHS77.s:2289   .debug_str:00000000000004a7 .LASF41
     /tmp/cc6CHS77.s:2133   .debug_str:0000000000000030 .LASF42
GAS LISTING /tmp/cc6CHS77.s 			page 15


     /tmp/cc6CHS77.s:2321   .debug_str:0000000000000616 .LASF43
     /tmp/cc6CHS77.s:2313   .debug_str:00000000000005e7 .LASF44
     /tmp/cc6CHS77.s:2271   .debug_str:0000000000000405 .LASF45
     /tmp/cc6CHS77.s:2243   .debug_str:0000000000000340 .LASF46
     /tmp/cc6CHS77.s:2285   .debug_str:000000000000047c .LASF47
     /tmp/cc6CHS77.s:2147   .debug_str:000000000000009d .LASF48
     /tmp/cc6CHS77.s:2191   .debug_str:00000000000001e5 .LASF49
     /tmp/cc6CHS77.s:2221   .debug_str:00000000000002d2 .LASF50
     /tmp/cc6CHS77.s:2185   .debug_str:00000000000001b6 .LASF51
     /tmp/cc6CHS77.s:2157   .debug_str:00000000000000ea .LASF53
     /tmp/cc6CHS77.s:2145   .debug_str:0000000000000081 .LASF55
     /tmp/cc6CHS77.s:2299   .debug_str:00000000000004e7 .LASF74
     /tmp/cc6CHS77.s:2205   .debug_str:0000000000000249 .LASF76
     /tmp/cc6CHS77.s:2131   .debug_str:0000000000000028 .LASF91
     /tmp/cc6CHS77.s:2189   .debug_str:00000000000001e0 .LASF57
     /tmp/cc6CHS77.s:2259   .debug_str:00000000000003c5 .LASF59
     /tmp/cc6CHS77.s:2251   .debug_str:000000000000037f .LASF61
     /tmp/cc6CHS77.s:2181   .debug_str:0000000000000191 .LASF63
     /tmp/cc6CHS77.s:2219   .debug_str:00000000000002c6 .LASF58
     /tmp/cc6CHS77.s:2317   .debug_str:00000000000005fa .LASF60
     /tmp/cc6CHS77.s:2213   .debug_str:000000000000029d .LASF62
     /tmp/cc6CHS77.s:2137   .debug_str:000000000000003d .LASF64
     /tmp/cc6CHS77.s:2151   .debug_str:00000000000000b3 .LASF65
     /tmp/cc6CHS77.s:2211   .debug_str:0000000000000281 .LASF66
     /tmp/cc6CHS77.s:2263   .debug_str:00000000000003d9 .LASF92
     /tmp/cc6CHS77.s:2269   .debug_str:00000000000003ff .LASF67
     /tmp/cc6CHS77.s:2223   .debug_str:00000000000002dc .LASF68
     /tmp/cc6CHS77.s:2165   .debug_str:0000000000000127 .LASF93
     /tmp/cc6CHS77.s:2281   .debug_str:0000000000000462 .LASF94
     /tmp/cc6CHS77.s:2199   .debug_str:0000000000000233 .LASF69
     /tmp/cc6CHS77.s:2233   .debug_str:000000000000031c .LASF70
     /tmp/cc6CHS77.s:2203   .debug_str:0000000000000241 .LASF71
     /tmp/cc6CHS77.s:2237   .debug_str:0000000000000327 .LASF72
     /tmp/cc6CHS77.s:2197   .debug_str:000000000000022a .LASF73
     /tmp/cc6CHS77.s:2215   .debug_str:00000000000002aa .LASF75
     /tmp/cc6CHS77.s:2257   .debug_str:00000000000003ac .LASF77
     /tmp/cc6CHS77.s:2301   .debug_str:00000000000004fc .LASF95
     /tmp/cc6CHS77.s:2193   .debug_str:00000000000001fb .LASF96
     /tmp/cc6CHS77.s:2231   .debug_str:0000000000000313 .LASF78
     /tmp/cc6CHS77.s:2171   .debug_str:0000000000000158 .LASF79
     /tmp/cc6CHS77.s:2275   .debug_str:000000000000042f .LASF97
     /tmp/cc6CHS77.s:2209   .debug_str:0000000000000276 .LASF80
     /tmp/cc6CHS77.s:2305   .debug_str:00000000000005ac .LASF81
     /tmp/cc6CHS77.s:2173   .debug_str:000000000000016b .LASF82
     /tmp/cc6CHS77.s:46     .text:0000000000000020 .LFB23
     /tmp/cc6CHS77.s:329    .text:0000000000000138 .LFE23
     /tmp/cc6CHS77.s:2129   .debug_str:0000000000000021 .LASF83
     /tmp/cc6CHS77.s:2018   .debug_loc:0000000000000000 .LLST0
     /tmp/cc6CHS77.s:119    .text:0000000000000084 .LBB50
     /tmp/cc6CHS77.s:195    .text:00000000000000c0 .LBE50
     /tmp/cc6CHS77.s:2235   .debug_str:0000000000000322 .LASF84
     /tmp/cc6CHS77.s:2037   .debug_loc:000000000000005c .LLST7
     /tmp/cc6CHS77.s:2261   .debug_str:00000000000003d1 .LASF85
     /tmp/cc6CHS77.s:2044   .debug_loc:000000000000007f .LLST8
     /tmp/cc6CHS77.s:121    .text:0000000000000084 .LBB51
     /tmp/cc6CHS77.s:136    .text:0000000000000090 .LBE51
     /tmp/cc6CHS77.s:141    .text:0000000000000094 .LBB53
GAS LISTING /tmp/cc6CHS77.s 			page 16


     /tmp/cc6CHS77.s:157    .text:00000000000000a0 .LBE53
     /tmp/cc6CHS77.s:167    .text:00000000000000b4 .LBB55
     /tmp/cc6CHS77.s:178    .text:00000000000000b8 .LBE55
     /tmp/cc6CHS77.s:2051   .debug_loc:00000000000000a2 .LLST9
     /tmp/cc6CHS77.s:180    .text:00000000000000b8 .LBB57
     /tmp/cc6CHS77.s:194    .text:00000000000000c0 .LBE57
     /tmp/cc6CHS77.s:2058   .debug_loc:00000000000000c5 .LLST10
     /tmp/cc6CHS77.s:165    .text:00000000000000b4 .LVL5
     /tmp/cc6CHS77.s:243    .text:00000000000000f4 .LBB38
     /tmp/cc6CHS77.s:317    .text:000000000000012c .LBE38
     /tmp/cc6CHS77.s:2065   .debug_loc:00000000000000e8 .LLST2
     /tmp/cc6CHS77.s:2072   .debug_loc:000000000000010b .LLST3
     /tmp/cc6CHS77.s:245    .text:00000000000000f4 .LBB39
     /tmp/cc6CHS77.s:261    .text:0000000000000100 .LBE39
     /tmp/cc6CHS77.s:263    .text:0000000000000100 .LBB41
     /tmp/cc6CHS77.s:279    .text:000000000000010c .LBE41
     /tmp/cc6CHS77.s:289    .text:0000000000000120 .LBB43
     /tmp/cc6CHS77.s:300    .text:0000000000000124 .LBE43
     /tmp/cc6CHS77.s:2079   .debug_loc:000000000000012e .LLST4
     /tmp/cc6CHS77.s:302    .text:0000000000000124 .LBB45
     /tmp/cc6CHS77.s:316    .text:000000000000012c .LBE45
     /tmp/cc6CHS77.s:2086   .debug_loc:0000000000000151 .LLST5
     /tmp/cc6CHS77.s:287    .text:0000000000000120 .LVL15
     /tmp/cc6CHS77.s:62     .text:0000000000000038 .LBB30
     /tmp/cc6CHS77.s:79     .text:0000000000000044 .LBE30
     /tmp/cc6CHS77.s:211    .text:00000000000000e0 .LBB36
     /tmp/cc6CHS77.s:219    .text:00000000000000e4 .LBE36
     /tmp/cc6CHS77.s:2093   .debug_loc:0000000000000174 .LLST1
     /tmp/cc6CHS77.s:226    .text:00000000000000e8 .LBB47
     /tmp/cc6CHS77.s:241    .text:00000000000000f4 .LBE47
     /tmp/cc6CHS77.s:2100   .debug_loc:0000000000000197 .LLST6
     /tmp/cc6CHS77.s:323    .text:0000000000000134 .LVL18
     /tmp/cc6CHS77.s:10     .text:0000000000000000 .LFB22
     /tmp/cc6CHS77.s:40     .text:0000000000000020 .LFE22
     /tmp/cc6CHS77.s:2309   .debug_str:00000000000005ca .LASF98
     /tmp/cc6CHS77.s:2319   .debug_str:0000000000000611 .LASF86
     /tmp/cc6CHS77.s:2159   .debug_str:00000000000000f9 .LASF99
     /tmp/cc6CHS77.s:77     .text:0000000000000044 .LVL0
     /tmp/cc6CHS77.s:97     .text:000000000000006c .LVL1
     /tmp/cc6CHS77.s:115    .text:0000000000000084 .LVL2
     /tmp/cc6CHS77.s:191    .text:00000000000000c0 .LVL7
     /tmp/cc6CHS77.s:201    .text:00000000000000c8 .LVL8
     /tmp/cc6CHS77.s:313    .text:000000000000012c .LVL17
     /tmp/cc6CHS77.s:139    .text:0000000000000094 .LVL3
     /tmp/cc6CHS77.s:155    .text:00000000000000a0 .LVL4
     /tmp/cc6CHS77.s:175    .text:00000000000000b8 .LVL6
     /tmp/cc6CHS77.s:259    .text:0000000000000100 .LVL13
     /tmp/cc6CHS77.s:277    .text:000000000000010c .LVL14
     /tmp/cc6CHS77.s:297    .text:0000000000000124 .LVL16
     /tmp/cc6CHS77.s:210    .text:00000000000000e0 .LVL9
     /tmp/cc6CHS77.s:217    .text:00000000000000e4 .LVL10
     /tmp/cc6CHS77.s:225    .text:00000000000000e8 .LVL11
     /tmp/cc6CHS77.s:238    .text:00000000000000f4 .LVL12
     /tmp/cc6CHS77.s:335    .debug_info:0000000000000000 .Ldebug_info0

UNDEFINED SYMBOLS
_ZN3TCB16timeSliceCounterE
GAS LISTING /tmp/cc6CHS77.s 			page 17


_ZN3TCB8dispatchEv
_ZN3TCB7runningE
console_handler
