GAS LISTING /tmp/ccUP798w.s 			page 1


   1              		.file	"syscall_c.cpp"
   2              		.option pic
   3              		.option norelax
   4              		.text
   5              	.Ltext0:
   6              		.align	2
   7              		.globl	_Z9mem_allocm
   9              	_Z9mem_allocm:
  10              	.LFB6:
  11              		.file 1 "src/syscall_c.cpp"
   1:src/syscall_c.cpp **** //
   2:src/syscall_c.cpp **** // Created by os on 5/22/22.
   3:src/syscall_c.cpp **** //
   4:src/syscall_c.cpp **** #include "../h/syscall_c.hpp"
   5:src/syscall_c.cpp **** #include "../h/tcb.hpp"
   6:src/syscall_c.cpp **** 
   7:src/syscall_c.cpp **** void* mem_alloc(size_t size){
  12              		.loc 1 7 29
  13              		.cfi_startproc
  14              	.LVL0:
  15 0000 130101FF 		addi	sp,sp,-16
  16              		.cfi_def_cfa_offset 16
  17 0004 23348100 		sd	s0,8(sp)
  18              		.cfi_offset 8, -8
  19 0008 13040101 		addi	s0,sp,16
  20              		.cfi_def_cfa 8, 0
   8:src/syscall_c.cpp ****     size_t arg = 60;
  21              		.loc 1 8 5
  22              	.LVL1:
   9:src/syscall_c.cpp ****     size_t num = 1;
  23              		.loc 1 9 5
  10:src/syscall_c.cpp **** 
  11:src/syscall_c.cpp ****     __asm__ volatile("mv %0, a0" : "=r" (arg));
  24              		.loc 1 11 5
  25              		.loc 1 11 47 is_stmt 0
  26              	#APP
  27              	# 11 "src/syscall_c.cpp" 1
  12              	    __asm__ volatile("mv a0, %0" : : "r" (num));
  28              		mv a5, a0
  29              	# 0 "" 2
  30              	.LVL2:
  31              		.loc 1 12 5 is_stmt 1
  32              		.loc 1 12 48 is_stmt 0
  33              	#NO_APP
  34 0010 13071000 		li	a4,1
  35              	#APP
  36              	# 12 "src/syscall_c.cpp" 1
  13              	    __asm__ volatile("mv a1, %0" : : "r" (arg));
  37              		mv a0, a4
  38              	# 0 "" 2
  39              		.loc 1 13 5 is_stmt 1
  40              		.loc 1 13 48 is_stmt 0
  41              	# 13 "src/syscall_c.cpp" 1
  14              	
  15:src/syscall_c.cpp ****     __asm__ volatile("ecall");
  42              		mv a1, a5
  43              	# 0 "" 2
GAS LISTING /tmp/ccUP798w.s 			page 2


  44              		.loc 1 15 5 is_stmt 1
  45              		.loc 1 15 30 is_stmt 0
  46              	# 15 "src/syscall_c.cpp" 1
  16              	
  17:src/syscall_c.cpp ****     void* ret;
  47              		ecall
  48              	# 0 "" 2
  49              		.loc 1 17 5 is_stmt 1
  18:src/syscall_c.cpp ****     __asm__ volatile("mv %0, a0" : "=r" (ret));
  50              		.loc 1 18 5
  51              		.loc 1 18 47 is_stmt 0
  52              	# 18 "src/syscall_c.cpp" 1
  19              	
  53              		mv a0, a0
  54              	# 0 "" 2
  55              	.LVL3:
  20:src/syscall_c.cpp ****     return ret;
  56              		.loc 1 20 5 is_stmt 1
  21:src/syscall_c.cpp **** 
  22:src/syscall_c.cpp **** }
  57              		.loc 1 22 1 is_stmt 0
  58              	#NO_APP
  59 0024 03348100 		ld	s0,8(sp)
  60              		.cfi_restore 8
  61              		.cfi_def_cfa 2, 16
  62 0028 13010101 		addi	sp,sp,16
  63              		.cfi_def_cfa_offset 0
  64 002c 67800000 		jr	ra
  65              		.cfi_endproc
  66              	.LFE6:
  68              		.align	2
  69              		.globl	_Z8mem_freePv
  71              	_Z8mem_freePv:
  72              	.LFB7:
  23:src/syscall_c.cpp **** 
  24:src/syscall_c.cpp **** int mem_free(void* addr){
  73              		.loc 1 24 25 is_stmt 1
  74              		.cfi_startproc
  75              	.LVL4:
  76 0030 130101FF 		addi	sp,sp,-16
  77              		.cfi_def_cfa_offset 16
  78 0034 23348100 		sd	s0,8(sp)
  79              		.cfi_offset 8, -8
  80 0038 13040101 		addi	s0,sp,16
  81              		.cfi_def_cfa 8, 0
  25:src/syscall_c.cpp ****     void* arg = 0;
  82              		.loc 1 25 5
  83              	.LVL5:
  26:src/syscall_c.cpp ****     int num = 2;
  84              		.loc 1 26 5
  27:src/syscall_c.cpp **** 
  28:src/syscall_c.cpp ****     __asm__ volatile("mv %0, a0" : "=r" (arg));
  85              		.loc 1 28 5
  86              		.loc 1 28 47 is_stmt 0
  87              	#APP
  88              	# 28 "src/syscall_c.cpp" 1
  29              	    __asm__ volatile("mv a0, %0" : : "r" (num));
GAS LISTING /tmp/ccUP798w.s 			page 3


  89              		mv a5, a0
  90              	# 0 "" 2
  91              	.LVL6:
  92              		.loc 1 29 5 is_stmt 1
  93              		.loc 1 29 48 is_stmt 0
  94              	#NO_APP
  95 0040 13072000 		li	a4,2
  96              	#APP
  97              	# 29 "src/syscall_c.cpp" 1
  30              	    __asm__ volatile("mv a1, %0" : : "r" (arg));
  98              		mv a0, a4
  99              	# 0 "" 2
 100              		.loc 1 30 5 is_stmt 1
 101              		.loc 1 30 48 is_stmt 0
 102              	# 30 "src/syscall_c.cpp" 1
  31              	
  32:src/syscall_c.cpp ****     __asm__ volatile("ecall");
 103              		mv a1, a5
 104              	# 0 "" 2
 105              		.loc 1 32 5 is_stmt 1
 106              		.loc 1 32 30 is_stmt 0
 107              	# 32 "src/syscall_c.cpp" 1
  33              	
  34:src/syscall_c.cpp ****     return 1;
 108              		ecall
 109              	# 0 "" 2
 110              		.loc 1 34 5 is_stmt 1
  35:src/syscall_c.cpp **** }
 111              		.loc 1 35 1 is_stmt 0
 112              	#NO_APP
 113 0050 13051000 		li	a0,1
 114              	.LVL7:
 115 0054 03348100 		ld	s0,8(sp)
 116              		.cfi_restore 8
 117              		.cfi_def_cfa 2, 16
 118 0058 13010101 		addi	sp,sp,16
 119              		.cfi_def_cfa_offset 0
 120 005c 67800000 		jr	ra
 121              		.cfi_endproc
 122              	.LFE7:
 124              		.align	2
 125              		.globl	_Z13thread_createPP3TCBPFvPvES2_
 127              	_Z13thread_createPP3TCBPFvPvES2_:
 128              	.LFB8:
  36:src/syscall_c.cpp **** 
  37:src/syscall_c.cpp **** int thread_create (thread_t* handle, void(*start_routine)(void*), void* arg){
 129              		.loc 1 37 77 is_stmt 1
 130              		.cfi_startproc
 131              	.LVL8:
 132 0060 130101FF 		addi	sp,sp,-16
 133              		.cfi_def_cfa_offset 16
 134 0064 23348100 		sd	s0,8(sp)
 135              		.cfi_offset 8, -8
 136 0068 13040101 		addi	s0,sp,16
 137              		.cfi_def_cfa 8, 0
  38:src/syscall_c.cpp ****     thread_t* arg1 = 0;
 138              		.loc 1 38 5
GAS LISTING /tmp/ccUP798w.s 			page 4


 139              	.LVL9:
  39:src/syscall_c.cpp ****     TCB::Body arg2 = 0;
 140              		.loc 1 39 5
  40:src/syscall_c.cpp ****     void* arg3 = 0;
 141              		.loc 1 40 5
  41:src/syscall_c.cpp ****     int num = 11;
 142              		.loc 1 41 5
  42:src/syscall_c.cpp **** 
  43:src/syscall_c.cpp ****     __asm__ volatile("mv %0, a0" : "=r" (arg1));
 143              		.loc 1 43 5
 144              		.loc 1 43 48 is_stmt 0
 145              	#APP
 146              	# 43 "src/syscall_c.cpp" 1
  44              	    __asm__ volatile("mv %0, a1" : "=r" (arg2));
 147              		mv a3, a0
 148              	# 0 "" 2
 149              	.LVL10:
 150              		.loc 1 44 5 is_stmt 1
 151              		.loc 1 44 48 is_stmt 0
 152              	# 44 "src/syscall_c.cpp" 1
  45              	    __asm__ volatile("mv %0, a2" : "=r" (arg3));
 153              		mv a4, a1
 154              	# 0 "" 2
 155              	.LVL11:
 156              		.loc 1 45 5 is_stmt 1
 157              		.loc 1 45 48 is_stmt 0
 158              	# 45 "src/syscall_c.cpp" 1
  46              	    __asm__ volatile("mv a0, %0" : : "r" (num));
 159              		mv a5, a2
 160              	# 0 "" 2
 161              	.LVL12:
 162              		.loc 1 46 5 is_stmt 1
 163              		.loc 1 46 48 is_stmt 0
 164              	#NO_APP
 165 0078 1306B000 		li	a2,11
 166              	.LVL13:
 167              	#APP
 168              	# 46 "src/syscall_c.cpp" 1
  47              	    __asm__ volatile("mv a1, %0" : : "r" (arg1));
 169              		mv a0, a2
 170              	# 0 "" 2
 171              		.loc 1 47 5 is_stmt 1
 172              		.loc 1 47 49 is_stmt 0
 173              	# 47 "src/syscall_c.cpp" 1
  48              	    __asm__ volatile("mv a2, %0" : : "r" (arg2));
 174              		mv a1, a3
 175              	# 0 "" 2
 176              		.loc 1 48 5 is_stmt 1
 177              		.loc 1 48 49 is_stmt 0
 178              	# 48 "src/syscall_c.cpp" 1
  49              	    __asm__ volatile("mv a3, %0" : : "r" (arg3));
 179              		mv a2, a4
 180              	# 0 "" 2
 181              		.loc 1 49 5 is_stmt 1
 182              		.loc 1 49 49 is_stmt 0
 183              	# 49 "src/syscall_c.cpp" 1
  50              	
GAS LISTING /tmp/ccUP798w.s 			page 5


  51:src/syscall_c.cpp ****     __asm__ volatile("ecall");
 184              		mv a3, a5
 185              	# 0 "" 2
 186              		.loc 1 51 5 is_stmt 1
 187              		.loc 1 51 30 is_stmt 0
 188              	# 51 "src/syscall_c.cpp" 1
  52              	
  53:src/syscall_c.cpp ****     return 1;
 189              		ecall
 190              	# 0 "" 2
 191              		.loc 1 53 5 is_stmt 1
  54:src/syscall_c.cpp **** }
 192              		.loc 1 54 1 is_stmt 0
 193              	#NO_APP
 194 0090 13051000 		li	a0,1
 195              	.LVL14:
 196 0094 03348100 		ld	s0,8(sp)
 197              		.cfi_restore 8
 198              		.cfi_def_cfa 2, 16
 199 0098 13010101 		addi	sp,sp,16
 200              		.cfi_def_cfa_offset 0
 201 009c 67800000 		jr	ra
 202              		.cfi_endproc
 203              	.LFE8:
 205              		.align	2
 206              		.globl	_Z11thread_exitv
 208              	_Z11thread_exitv:
 209              	.LFB9:
  55:src/syscall_c.cpp **** 
  56:src/syscall_c.cpp **** int thread_exit (){
 210              		.loc 1 56 19 is_stmt 1
 211              		.cfi_startproc
 212 00a0 130101FF 		addi	sp,sp,-16
 213              		.cfi_def_cfa_offset 16
 214 00a4 23348100 		sd	s0,8(sp)
 215              		.cfi_offset 8, -8
 216 00a8 13040101 		addi	s0,sp,16
 217              		.cfi_def_cfa 8, 0
  57:src/syscall_c.cpp ****     int num = 12;
 218              		.loc 1 57 5
 219              	.LVL15:
  58:src/syscall_c.cpp **** 
  59:src/syscall_c.cpp ****     __asm__ volatile("mv a0, %0" : : "r" (num));
 220              		.loc 1 59 5
 221              		.loc 1 59 48 is_stmt 0
 222 00ac 9307C000 		li	a5,12
 223              	#APP
 224              	# 59 "src/syscall_c.cpp" 1
  60              	
  61:src/syscall_c.cpp ****     __asm__ volatile("ecall");
 225              		mv a0, a5
 226              	# 0 "" 2
 227              		.loc 1 61 5 is_stmt 1
 228              		.loc 1 61 30 is_stmt 0
 229              	# 61 "src/syscall_c.cpp" 1
  62              	
  63:src/syscall_c.cpp ****     return 1;
GAS LISTING /tmp/ccUP798w.s 			page 6


 230              		ecall
 231              	# 0 "" 2
 232              		.loc 1 63 5 is_stmt 1
  64:src/syscall_c.cpp **** }
 233              		.loc 1 64 1 is_stmt 0
 234              	#NO_APP
 235 00b8 13051000 		li	a0,1
 236 00bc 03348100 		ld	s0,8(sp)
 237              		.cfi_restore 8
 238              		.cfi_def_cfa 2, 16
 239 00c0 13010101 		addi	sp,sp,16
 240              		.cfi_def_cfa_offset 0
 241 00c4 67800000 		jr	ra
 242              		.cfi_endproc
 243              	.LFE9:
 245              		.align	2
 246              		.globl	_Z15thread_dispatchv
 248              	_Z15thread_dispatchv:
 249              	.LFB10:
  65:src/syscall_c.cpp **** 
  66:src/syscall_c.cpp **** void thread_dispatch (){
 250              		.loc 1 66 24 is_stmt 1
 251              		.cfi_startproc
 252 00c8 130101FF 		addi	sp,sp,-16
 253              		.cfi_def_cfa_offset 16
 254 00cc 23348100 		sd	s0,8(sp)
 255              		.cfi_offset 8, -8
 256 00d0 13040101 		addi	s0,sp,16
 257              		.cfi_def_cfa 8, 0
  67:src/syscall_c.cpp ****     int num = 13;
 258              		.loc 1 67 5
 259              	.LVL16:
  68:src/syscall_c.cpp **** 
  69:src/syscall_c.cpp ****     __asm__ volatile("mv a0, %0" : : "r" (num));
 260              		.loc 1 69 5
 261              		.loc 1 69 48 is_stmt 0
 262 00d4 9307D000 		li	a5,13
 263              	#APP
 264              	# 69 "src/syscall_c.cpp" 1
  70              	
  71:src/syscall_c.cpp ****     __asm__ volatile("ecall");
 265              		mv a0, a5
 266              	# 0 "" 2
 267              		.loc 1 71 5 is_stmt 1
 268              		.loc 1 71 30 is_stmt 0
 269              	# 71 "src/syscall_c.cpp" 1
  72              	}
 270              		ecall
 271              	# 0 "" 2
 272              		.loc 1 72 1
 273              	#NO_APP
 274 00e0 03348100 		ld	s0,8(sp)
 275              		.cfi_restore 8
 276              		.cfi_def_cfa 2, 16
 277 00e4 13010101 		addi	sp,sp,16
 278              		.cfi_def_cfa_offset 0
 279 00e8 67800000 		jr	ra
GAS LISTING /tmp/ccUP798w.s 			page 7


 280              		.cfi_endproc
 281              	.LFE10:
 283              		.align	2
 284              		.globl	_Z8sem_openPP4_semj
 286              	_Z8sem_openPP4_semj:
 287              	.LFB11:
  73:src/syscall_c.cpp **** 
  74:src/syscall_c.cpp **** int sem_open (sem_t* handle, unsigned init){
 288              		.loc 1 74 44 is_stmt 1
 289              		.cfi_startproc
 290              	.LVL17:
 291 00ec 130101FF 		addi	sp,sp,-16
 292              		.cfi_def_cfa_offset 16
 293 00f0 23348100 		sd	s0,8(sp)
 294              		.cfi_offset 8, -8
 295 00f4 13040101 		addi	s0,sp,16
 296              		.cfi_def_cfa 8, 0
  75:src/syscall_c.cpp ****     sem_t* arg1 = 0;
 297              		.loc 1 75 5
 298              	.LVL18:
  76:src/syscall_c.cpp ****     unsigned arg2 = 0;
 299              		.loc 1 76 5
  77:src/syscall_c.cpp ****     int num = 21;
 300              		.loc 1 77 5
  78:src/syscall_c.cpp **** 
  79:src/syscall_c.cpp ****     __asm__ volatile("mv %0, a0" : "=r" (arg1));
 301              		.loc 1 79 5
 302              		.loc 1 79 48 is_stmt 0
 303              	#APP
 304              	# 79 "src/syscall_c.cpp" 1
  80              	    __asm__ volatile("mv %0, a1" : "=r" (arg2));
 305              		mv a4, a0
 306              	# 0 "" 2
 307              	.LVL19:
 308              		.loc 1 80 5 is_stmt 1
 309              		.loc 1 80 48 is_stmt 0
 310              	# 80 "src/syscall_c.cpp" 1
  81              	    __asm__ volatile("mv a0, %0" : : "r" (num));
 311              		mv a5, a1
 312              	# 0 "" 2
 313              	.LVL20:
 314              		.loc 1 81 5 is_stmt 1
 315              		.loc 1 81 48 is_stmt 0
 316              	#NO_APP
 317 0100 93065001 		li	a3,21
 318              	#APP
 319              	# 81 "src/syscall_c.cpp" 1
  82              	    __asm__ volatile("mv a1, %0" : : "r" (arg1));
 320              		mv a0, a3
 321              	# 0 "" 2
 322              		.loc 1 82 5 is_stmt 1
 323              		.loc 1 82 49 is_stmt 0
 324              	# 82 "src/syscall_c.cpp" 1
  83              	    __asm__ volatile("mv a2, %0" : : "r" (arg2));
 325              		mv a1, a4
 326              	# 0 "" 2
 327              		.loc 1 83 5 is_stmt 1
GAS LISTING /tmp/ccUP798w.s 			page 8


 328              		.loc 1 83 49 is_stmt 0
 329              	# 83 "src/syscall_c.cpp" 1
  84              	
  85:src/syscall_c.cpp ****     __asm__ volatile("ecall");
 330              		mv a2, a5
 331              	# 0 "" 2
 332              		.loc 1 85 5 is_stmt 1
 333              		.loc 1 85 30 is_stmt 0
 334              	# 85 "src/syscall_c.cpp" 1
  86              	
  87:src/syscall_c.cpp ****     return 1;
 335              		ecall
 336              	# 0 "" 2
 337              		.loc 1 87 5 is_stmt 1
  88:src/syscall_c.cpp **** 
  89:src/syscall_c.cpp **** }
 338              		.loc 1 89 1 is_stmt 0
 339              	#NO_APP
 340 0114 13051000 		li	a0,1
 341              	.LVL21:
 342 0118 03348100 		ld	s0,8(sp)
 343              		.cfi_restore 8
 344              		.cfi_def_cfa 2, 16
 345 011c 13010101 		addi	sp,sp,16
 346              		.cfi_def_cfa_offset 0
 347 0120 67800000 		jr	ra
 348              		.cfi_endproc
 349              	.LFE11:
 351              		.align	2
 352              		.globl	_Z9sem_closeP4_sem
 354              	_Z9sem_closeP4_sem:
 355              	.LFB12:
  90:src/syscall_c.cpp **** 
  91:src/syscall_c.cpp **** int sem_close (sem_t handle){
 356              		.loc 1 91 29 is_stmt 1
 357              		.cfi_startproc
 358              	.LVL22:
 359 0124 130101FF 		addi	sp,sp,-16
 360              		.cfi_def_cfa_offset 16
 361 0128 23348100 		sd	s0,8(sp)
 362              		.cfi_offset 8, -8
 363 012c 13040101 		addi	s0,sp,16
 364              		.cfi_def_cfa 8, 0
  92:src/syscall_c.cpp ****     sem_t arg1 = 0;
 365              		.loc 1 92 5
 366              	.LVL23:
  93:src/syscall_c.cpp ****     int num = 22;
 367              		.loc 1 93 5
  94:src/syscall_c.cpp **** 
  95:src/syscall_c.cpp ****     __asm__ volatile("mv %0, a0" : "=r" (arg1));
 368              		.loc 1 95 5
 369              		.loc 1 95 48 is_stmt 0
 370              	#APP
 371              	# 95 "src/syscall_c.cpp" 1
  96              	    __asm__ volatile("mv a0, %0" : : "r" (num));
 372              		mv a5, a0
 373              	# 0 "" 2
GAS LISTING /tmp/ccUP798w.s 			page 9


 374              	.LVL24:
 375              		.loc 1 96 5 is_stmt 1
 376              		.loc 1 96 48 is_stmt 0
 377              	#NO_APP
 378 0134 13076001 		li	a4,22
 379              	#APP
 380              	# 96 "src/syscall_c.cpp" 1
  97              	    __asm__ volatile("mv a1, %0" : : "r" (arg1));
 381              		mv a0, a4
 382              	# 0 "" 2
 383              		.loc 1 97 5 is_stmt 1
 384              		.loc 1 97 49 is_stmt 0
 385              	# 97 "src/syscall_c.cpp" 1
  98              	
  99:src/syscall_c.cpp ****     __asm__ volatile("ecall");
 386              		mv a1, a5
 387              	# 0 "" 2
 388              		.loc 1 99 5 is_stmt 1
 389              		.loc 1 99 30 is_stmt 0
 390              	# 99 "src/syscall_c.cpp" 1
 100              	
 101:src/syscall_c.cpp ****     return 1;
 391              		ecall
 392              	# 0 "" 2
 393              		.loc 1 101 5 is_stmt 1
 102:src/syscall_c.cpp **** }
 394              		.loc 1 102 1 is_stmt 0
 395              	#NO_APP
 396 0144 13051000 		li	a0,1
 397              	.LVL25:
 398 0148 03348100 		ld	s0,8(sp)
 399              		.cfi_restore 8
 400              		.cfi_def_cfa 2, 16
 401 014c 13010101 		addi	sp,sp,16
 402              		.cfi_def_cfa_offset 0
 403 0150 67800000 		jr	ra
 404              		.cfi_endproc
 405              	.LFE12:
 407              		.align	2
 408              		.globl	_Z8sem_waitP4_sem
 410              	_Z8sem_waitP4_sem:
 411              	.LFB13:
 103:src/syscall_c.cpp **** 
 104:src/syscall_c.cpp **** int sem_wait (sem_t id){
 412              		.loc 1 104 24 is_stmt 1
 413              		.cfi_startproc
 414              	.LVL26:
 415 0154 130101FF 		addi	sp,sp,-16
 416              		.cfi_def_cfa_offset 16
 417 0158 23348100 		sd	s0,8(sp)
 418              		.cfi_offset 8, -8
 419 015c 13040101 		addi	s0,sp,16
 420              		.cfi_def_cfa 8, 0
 105:src/syscall_c.cpp ****     sem_t arg1 = 0;
 421              		.loc 1 105 5
 422              	.LVL27:
 106:src/syscall_c.cpp ****     int num = 23;
GAS LISTING /tmp/ccUP798w.s 			page 10


 423              		.loc 1 106 5
 107:src/syscall_c.cpp **** 
 108:src/syscall_c.cpp ****     __asm__ volatile("mv %0, a0" : "=r" (arg1));
 424              		.loc 1 108 5
 425              		.loc 1 108 48 is_stmt 0
 426              	#APP
 427              	# 108 "src/syscall_c.cpp" 1
 109              	    __asm__ volatile("mv a0, %0" : : "r" (num));
 428              		mv a5, a0
 429              	# 0 "" 2
 430              	.LVL28:
 431              		.loc 1 109 5 is_stmt 1
 432              		.loc 1 109 48 is_stmt 0
 433              	#NO_APP
 434 0164 13077001 		li	a4,23
 435              	#APP
 436              	# 109 "src/syscall_c.cpp" 1
 110              	    __asm__ volatile("mv a1, %0" : : "r" (arg1));
 437              		mv a0, a4
 438              	# 0 "" 2
 439              		.loc 1 110 5 is_stmt 1
 440              		.loc 1 110 49 is_stmt 0
 441              	# 110 "src/syscall_c.cpp" 1
 111              	
 112:src/syscall_c.cpp ****     __asm__ volatile("ecall");
 442              		mv a1, a5
 443              	# 0 "" 2
 444              		.loc 1 112 5 is_stmt 1
 445              		.loc 1 112 30 is_stmt 0
 446              	# 112 "src/syscall_c.cpp" 1
 113              	
 114:src/syscall_c.cpp ****     return 1;
 447              		ecall
 448              	# 0 "" 2
 449              		.loc 1 114 5 is_stmt 1
 115:src/syscall_c.cpp **** }
 450              		.loc 1 115 1 is_stmt 0
 451              	#NO_APP
 452 0174 13051000 		li	a0,1
 453              	.LVL29:
 454 0178 03348100 		ld	s0,8(sp)
 455              		.cfi_restore 8
 456              		.cfi_def_cfa 2, 16
 457 017c 13010101 		addi	sp,sp,16
 458              		.cfi_def_cfa_offset 0
 459 0180 67800000 		jr	ra
 460              		.cfi_endproc
 461              	.LFE13:
 463              		.align	2
 464              		.globl	_Z10sem_signalP4_sem
 466              	_Z10sem_signalP4_sem:
 467              	.LFB14:
 116:src/syscall_c.cpp **** 
 117:src/syscall_c.cpp **** int sem_signal (sem_t id){
 468              		.loc 1 117 26 is_stmt 1
 469              		.cfi_startproc
 470              	.LVL30:
GAS LISTING /tmp/ccUP798w.s 			page 11


 471 0184 130101FF 		addi	sp,sp,-16
 472              		.cfi_def_cfa_offset 16
 473 0188 23348100 		sd	s0,8(sp)
 474              		.cfi_offset 8, -8
 475 018c 13040101 		addi	s0,sp,16
 476              		.cfi_def_cfa 8, 0
 118:src/syscall_c.cpp ****     sem_t arg1 = 0;
 477              		.loc 1 118 5
 478              	.LVL31:
 119:src/syscall_c.cpp ****     int num = 24;
 479              		.loc 1 119 5
 120:src/syscall_c.cpp **** 
 121:src/syscall_c.cpp ****     __asm__ volatile("mv %0, a0" : "=r" (arg1));
 480              		.loc 1 121 5
 481              		.loc 1 121 48 is_stmt 0
 482              	#APP
 483              	# 121 "src/syscall_c.cpp" 1
 122              	    __asm__ volatile("mv a0, %0" : : "r" (num));
 484              		mv a5, a0
 485              	# 0 "" 2
 486              	.LVL32:
 487              		.loc 1 122 5 is_stmt 1
 488              		.loc 1 122 48 is_stmt 0
 489              	#NO_APP
 490 0194 13078001 		li	a4,24
 491              	#APP
 492              	# 122 "src/syscall_c.cpp" 1
 123              	    __asm__ volatile("mv a1, %0" : : "r" (arg1));
 493              		mv a0, a4
 494              	# 0 "" 2
 495              		.loc 1 123 5 is_stmt 1
 496              		.loc 1 123 49 is_stmt 0
 497              	# 123 "src/syscall_c.cpp" 1
 124              	
 125:src/syscall_c.cpp ****     __asm__ volatile("ecall");
 498              		mv a1, a5
 499              	# 0 "" 2
 500              		.loc 1 125 5 is_stmt 1
 501              		.loc 1 125 30 is_stmt 0
 502              	# 125 "src/syscall_c.cpp" 1
 126              	
 127:src/syscall_c.cpp ****     return 1;
 503              		ecall
 504              	# 0 "" 2
 505              		.loc 1 127 5 is_stmt 1
 128:src/syscall_c.cpp **** }...
 506              		.loc 1 128 1 is_stmt 0
 507              	#NO_APP
 508 01a4 13051000 		li	a0,1
 509              	.LVL33:
 510 01a8 03348100 		ld	s0,8(sp)
 511              		.cfi_restore 8
 512              		.cfi_def_cfa 2, 16
 513 01ac 13010101 		addi	sp,sp,16
 514              		.cfi_def_cfa_offset 0
 515 01b0 67800000 		jr	ra
 516              		.cfi_endproc
GAS LISTING /tmp/ccUP798w.s 			page 12


 517              	.LFE14:
 519              	.Letext0:
 520              		.file 2 "src/../h/../lib/hw.h"
 521              		.file 3 "src/../h/tcb.hpp"
 522              		.file 4 "src/../h/syscall_c.hpp"
GAS LISTING /tmp/ccUP798w.s 			page 13

