GAS LISTING /tmp/ccU5mqWI.s 			page 1


   1              		.file	"tcb.cpp"
   2              		.option pic
   3              		.option norelax
   4              		.text
   5              	.Ltext0:
   6              		.align	2
   7              		.globl	_ZN3TCBC2EPFvvEm
   9              	_ZN3TCBC2EPFvvEm:
  10              	.LFB31:
  11              		.file 1 "src/tcb.cpp"
   1:src/tcb.cpp   **** //
   2:src/tcb.cpp   **** // Created by os on 4/26/22.
   3:src/tcb.cpp   **** //
   4:src/tcb.cpp   **** 
   5:src/tcb.cpp   **** #include "../h/tcb.hpp"
   6:src/tcb.cpp   **** #include "../h/scheduler.hpp"
   7:src/tcb.cpp   **** #include "../h/riscv.hpp"
   8:src/tcb.cpp   **** 
   9:src/tcb.cpp   **** 
  10:src/tcb.cpp   **** TCB *TCB::running = nullptr;
  11:src/tcb.cpp   **** uint64 TCB::timeSliceCounter = 0;
  12:src/tcb.cpp   **** 
  13:src/tcb.cpp   **** TCB::TCB(Body body, uint64 timeSlice) : body(body),
  12              		.loc 1 13 1
  13              		.cfi_startproc
  14              	.LVL0:
  15 0000 130101FD 		addi	sp,sp,-48
  16              		.cfi_def_cfa_offset 48
  17 0004 23341102 		sd	ra,40(sp)
  18 0008 23308102 		sd	s0,32(sp)
  19 000c 233C9100 		sd	s1,24(sp)
  20 0010 23382101 		sd	s2,16(sp)
  21 0014 23343101 		sd	s3,8(sp)
  22              		.cfi_offset 1, -8
  23              		.cfi_offset 8, -16
  24              		.cfi_offset 9, -24
  25              		.cfi_offset 18, -32
  26              		.cfi_offset 19, -40
  27 0018 13040103 		addi	s0,sp,48
  28              		.cfi_def_cfa 8, 0
  29 001c 93040500 		mv	s1,a0
  30 0020 13890500 		mv	s2,a1
  31 0024 93090600 		mv	s3,a2
  32              	.LBB10:
  14:src/tcb.cpp   **** stack(body != nullptr ? new uint64[STACK_SIZE] : nullptr),
  15:src/tcb.cpp   **** context({(uint64) &threadWrapper,
  16:src/tcb.cpp   ****          stack != nullptr ? (uint64) &stack[STACK_SIZE] : 0 }),
  17:src/tcb.cpp   **** timeSlice(timeSlice),
  18:src/tcb.cpp   **** finished(false) {
  33              		.loc 1 18 15 is_stmt 0
  34 0028 2330B500 		sd	a1,0(a0)
  14:src/tcb.cpp   **** stack(body != nullptr ? new uint64[STACK_SIZE] : nullptr),
  35              		.loc 1 14 23
  36 002c 63820506 		beqz	a1,.L5
  14:src/tcb.cpp   **** stack(body != nullptr ? new uint64[STACK_SIZE] : nullptr),
  37              		.loc 1 14 46 discriminator 1
  38 0030 37250000 		li	a0,8192
GAS LISTING /tmp/ccU5mqWI.s 			page 2


  39              	.LVL1:
  40 0034 97000000 		call	_Znam@plt
  40      E7800000 
  41              	.LVL2:
  42              	.L2:
  43              		.loc 1 18 15
  44 003c 23B4A400 		sd	a0,8(s1)
  45 0040 97070000 		lla	a5,_ZN3TCB13threadWrapperEv
  45      93870700 
  46 0048 23B8F400 		sd	a5,16(s1)
  16:src/tcb.cpp   **** timeSlice(timeSlice),
  47              		.loc 1 16 27
  48 004c 63060504 		beqz	a0,.L6
  16:src/tcb.cpp   **** timeSlice(timeSlice),
  49              		.loc 1 16 38 discriminator 1
  50 0050 B7270000 		li	a5,8192
  51 0054 3305F500 		add	a0,a0,a5
  52              	.L3:
  53              		.loc 1 18 15
  54 0058 23BCA400 		sd	a0,24(s1)
  55 005c 23B03403 		sd	s3,32(s1)
  56 0060 23840402 		sb	zero,40(s1)
  19:src/tcb.cpp   ****     if (body != nullptr) { Scheduler::put(this); }
  57              		.loc 1 19 5 is_stmt 1
  58 0064 63080900 		beqz	s2,.L1
  59              		.loc 1 19 28 discriminator 1
  60              		.loc 1 19 42 is_stmt 0 discriminator 1
  61 0068 13850400 		mv	a0,s1
  62 006c 97000000 		call	_ZN9Scheduler3putEP3TCB@plt
  62      E7800000 
  63              	.LVL3:
  64              	.L1:
  65              	.LBE10:
  20:src/tcb.cpp   **** }
  66              		.loc 1 20 1
  67 0074 83308102 		ld	ra,40(sp)
  68              		.cfi_remember_state
  69              		.cfi_restore 1
  70 0078 03340102 		ld	s0,32(sp)
  71              		.cfi_restore 8
  72              		.cfi_def_cfa 2, 48
  73 007c 83348101 		ld	s1,24(sp)
  74              		.cfi_restore 9
  75              	.LVL4:
  76 0080 03390101 		ld	s2,16(sp)
  77              		.cfi_restore 18
  78              	.LVL5:
  79 0084 83398100 		ld	s3,8(sp)
  80              		.cfi_restore 19
  81              	.LVL6:
  82 0088 13010103 		addi	sp,sp,48
  83              		.cfi_def_cfa_offset 0
  84 008c 67800000 		jr	ra
  85              	.LVL7:
  86              	.L5:
  87              		.cfi_restore_state
  88              	.LBB11:
GAS LISTING /tmp/ccU5mqWI.s 			page 3


  14:src/tcb.cpp   **** context({(uint64) &threadWrapper,
  89              		.loc 1 14 23
  90 0090 13050000 		li	a0,0
  91 0094 6FF09FFA 		j	.L2
  92              	.LVL8:
  93              	.L6:
  16:src/tcb.cpp   **** timeSlice(timeSlice),
  94              		.loc 1 16 27
  95 0098 13050000 		li	a0,0
  96 009c 6FF0DFFB 		j	.L3
  97              	.LBE11:
  98              		.cfi_endproc
  99              	.LFE31:
 101              		.globl	_ZN3TCBC1EPFvvEm
 102              		.set	_ZN3TCBC1EPFvvEm,_ZN3TCBC2EPFvvEm
 103              		.align	2
 104              		.globl	_ZN3TCB12createThreadEPFvvE
 106              	_ZN3TCB12createThreadEPFvvE:
 107              	.LFB33:
  21:src/tcb.cpp   **** 
  22:src/tcb.cpp   **** TCB *TCB::createThread(Body body) {
 108              		.loc 1 22 35 is_stmt 1
 109              		.cfi_startproc
 110              		.cfi_personality 0x9b,DW.ref.__gxx_personality_v0
 111              		.cfi_lsda 0x1b,.LLSDA33
 112              	.LVL9:
 113 00a0 130101FE 		addi	sp,sp,-32
 114              		.cfi_def_cfa_offset 32
 115 00a4 233C1100 		sd	ra,24(sp)
 116 00a8 23388100 		sd	s0,16(sp)
 117 00ac 23349100 		sd	s1,8(sp)
 118 00b0 23302101 		sd	s2,0(sp)
 119              		.cfi_offset 1, -8
 120              		.cfi_offset 8, -16
 121              		.cfi_offset 9, -24
 122              		.cfi_offset 18, -32
 123 00b4 13040102 		addi	s0,sp,32
 124              		.cfi_def_cfa 8, 0
 125 00b8 13090500 		mv	s2,a0
  23:src/tcb.cpp   ****     return new TCB(body, TIME_SLICE);
 126              		.loc 1 23 5
 127              		.loc 1 23 36 is_stmt 0
 128 00bc 13050003 		li	a0,48
 129              	.LVL10:
 130              	.LEHB0:
 131 00c0 97000000 		call	_Znwm@plt
 131      E7800000 
 132              	.LVL11:
 133              	.LEHE0:
 134 00c8 93040500 		mv	s1,a0
 135 00cc 13062000 		li	a2,2
 136 00d0 93050900 		mv	a1,s2
 137              	.LEHB1:
 138 00d4 97000000 		call	_ZN3TCBC1EPFvvEm
 138      E7800000 
 139              	.LVL12:
 140              	.LEHE1:
GAS LISTING /tmp/ccU5mqWI.s 			page 4


 141 00dc 6F000002 		j	.L13
 142              	.L10:
 143 00e0 13090500 		mv	s2,a0
 144              	.LVL13:
 145 00e4 13850400 		mv	a0,s1
 146 00e8 97000000 		call	_ZdlPv@plt
 146      E7800000 
 147              	.LVL14:
 148 00f0 13050900 		mv	a0,s2
 149              	.LEHB2:
 150 00f4 97000000 		call	_Unwind_Resume@plt
 150      E7800000 
 151              	.LVL15:
 152              	.LEHE2:
 153              	.L13:
  24:src/tcb.cpp   **** }
 154              		.loc 1 24 1
 155 00fc 13850400 		mv	a0,s1
 156 0100 83308101 		ld	ra,24(sp)
 157              		.cfi_restore 1
 158 0104 03340101 		ld	s0,16(sp)
 159              		.cfi_restore 8
 160              		.cfi_def_cfa 2, 32
 161 0108 83348100 		ld	s1,8(sp)
 162              		.cfi_restore 9
 163 010c 03390100 		ld	s2,0(sp)
 164              		.cfi_restore 18
 165              	.LVL16:
 166 0110 13010102 		addi	sp,sp,32
 167              		.cfi_def_cfa_offset 0
 168 0114 67800000 		jr	ra
 169              		.cfi_endproc
 170              	.LFE33:
 171              		.globl	__gxx_personality_v0
 172              		.section	.gcc_except_table,"a",@progbits
 173              	.LLSDA33:
 174 0000 FF       		.byte	0xff
 175 0001 FF       		.byte	0xff
 176 0002 03       		.byte	0x3
 177 0003 27       		.byte	0x27
 178 0004 00000000 		.4byte	.LEHB0-.LFB33
 179 0008 00000000 		.4byte	.LEHE0-.LEHB0
 180 000c 00000000 		.4byte	0
 181 0010 00       		.byte	0
 182 0011 00000000 		.4byte	.LEHB1-.LFB33
 183 0015 00000000 		.4byte	.LEHE1-.LEHB1
 184 0019 00000000 		.4byte	.L10-.LFB33
 185 001d 00       		.byte	0
 186 001e 00000000 		.4byte	.LEHB2-.LFB33
 187 0022 00000000 		.4byte	.LEHE2-.LEHB2
 188 0026 00000000 		.4byte	0
 189 002a 00       		.byte	0
 190              		.text
 192              		.align	2
 193              		.globl	_ZN3TCB5yieldEv
 195              	_ZN3TCB5yieldEv:
 196              	.LFB34:
GAS LISTING /tmp/ccU5mqWI.s 			page 5


  25:src/tcb.cpp   **** 
  26:src/tcb.cpp   **** void TCB::yield() { __asm__ volatile ("ecall"); }
 197              		.loc 1 26 19 is_stmt 1
 198              		.cfi_startproc
 199 0118 130101FF 		addi	sp,sp,-16
 200              		.cfi_def_cfa_offset 16
 201 011c 23348100 		sd	s0,8(sp)
 202              		.cfi_offset 8, -8
 203 0120 13040101 		addi	s0,sp,16
 204              		.cfi_def_cfa 8, 0
 205              		.loc 1 26 21
 206              		.loc 1 26 47 is_stmt 0
 207              	#APP
 208              	# 26 "src/tcb.cpp" 1
  27              	
  26:src/tcb.cpp   **** void TCB::yield() { __asm__ volatile ("ecall"); }
 209              		ecall
 210              	# 0 "" 2
 211              		.loc 1 26 49
 212              	#NO_APP
 213 0128 03348100 		ld	s0,8(sp)
 214              		.cfi_restore 8
 215              		.cfi_def_cfa 2, 16
 216 012c 13010101 		addi	sp,sp,16
 217              		.cfi_def_cfa_offset 0
 218 0130 67800000 		jr	ra
 219              		.cfi_endproc
 220              	.LFE34:
 222              		.align	2
 223              		.globl	_ZN3TCB13threadWrapperEv
 225              	_ZN3TCB13threadWrapperEv:
 226              	.LFB36:
  28:src/tcb.cpp   **** void TCB::dispatch() {
  29:src/tcb.cpp   ****     TCB *old = running;
  30:src/tcb.cpp   ****     uint64 sstatus = Riscv::r_sstatus();
  31:src/tcb.cpp   ****     if (!old->isFinished()) { Scheduler::put(old); }
  32:src/tcb.cpp   ****     running = Scheduler::get();
  33:src/tcb.cpp   ****     Riscv::w_sstatus(sstatus);
  34:src/tcb.cpp   ****     TCB::contextSwitch(&old->context, &running->context);
  35:src/tcb.cpp   **** }
  36:src/tcb.cpp   **** 
  37:src/tcb.cpp   **** void TCB::threadWrapper() {
 227              		.loc 1 37 27 is_stmt 1
 228              		.cfi_startproc
 229 0134 130101FE 		addi	sp,sp,-32
 230              		.cfi_def_cfa_offset 32
 231 0138 233C1100 		sd	ra,24(sp)
 232 013c 23388100 		sd	s0,16(sp)
 233 0140 23349100 		sd	s1,8(sp)
 234              		.cfi_offset 1, -8
 235              		.cfi_offset 8, -16
 236              		.cfi_offset 9, -24
 237 0144 13040102 		addi	s0,sp,32
 238              		.cfi_def_cfa 8, 0
  38:src/tcb.cpp   ****     Riscv::popSppSpie();
 239              		.loc 1 38 5
 240              		.loc 1 38 22 is_stmt 0
GAS LISTING /tmp/ccU5mqWI.s 			page 6


 241 0148 97000000 		call	_ZN5Riscv10popSppSpieEv@plt
 241      E7800000 
 242              	.LVL17:
  39:src/tcb.cpp   ****     running->body();
 243              		.loc 1 39 5 is_stmt 1
 244              		.loc 1 39 14 is_stmt 0
 245 0150 97040000 		lla	s1,.LANCHOR0
 245      93840400 
 246 0158 83B70400 		ld	a5,0(s1)
 247 015c 83B70700 		ld	a5,0(a5)
 248              		.loc 1 39 18
 249 0160 E7800700 		jalr	a5
 250              	.LVL18:
  40:src/tcb.cpp   ****     running->setFinished(true);
 251              		.loc 1 40 5 is_stmt 1
 252              		.loc 1 40 25 is_stmt 0
 253 0164 83B70400 		ld	a5,0(s1)
 254              	.LVL19:
 255              	.LBB12:
 256              	.LBB13:
 257              		.file 2 "src/../h/tcb.hpp"
   1:src/../h/tcb.hpp **** //
   2:src/../h/tcb.hpp **** // Created by os on 4/26/22.
   3:src/../h/tcb.hpp **** //
   4:src/../h/tcb.hpp **** 
   5:src/../h/tcb.hpp **** #ifndef PROJECT_BASE_V1_0_TCB_HPP
   6:src/../h/tcb.hpp **** #define PROJECT_BASE_V1_0_TCB_HPP
   7:src/../h/tcb.hpp **** 
   8:src/../h/tcb.hpp **** #include "../lib/hw.h"
   9:src/../h/tcb.hpp **** 
  10:src/../h/tcb.hpp **** class TCB {
  11:src/../h/tcb.hpp ****         public:
  12:src/../h/tcb.hpp ****         ~TCB() { delete[] stack; }
  13:src/../h/tcb.hpp ****         bool isFinished() const { return finished; }
  14:src/../h/tcb.hpp ****         void setFinished(bool value) { finished = value; }
 258              		.loc 2 14 40 is_stmt 1
 259              		.loc 2 14 49 is_stmt 0
 260 0168 13071000 		li	a4,1
 261 016c 2384E702 		sb	a4,40(a5)
 262              	.LVL20:
 263              	.LBE13:
 264              	.LBE12:
  41:src/tcb.cpp   ****     TCB::yield();
 265              		.loc 1 41 5 is_stmt 1
 266              		.loc 1 41 15 is_stmt 0
 267 0170 97000000 		call	_ZN3TCB5yieldEv
 267      E7800000 
 268              	.LVL21:
  42:src/tcb.cpp   **** }
 269              		.loc 1 42 1
 270 0178 83308101 		ld	ra,24(sp)
 271              		.cfi_restore 1
 272 017c 03340101 		ld	s0,16(sp)
 273              		.cfi_restore 8
 274              		.cfi_def_cfa 2, 32
 275 0180 83348100 		ld	s1,8(sp)
 276              		.cfi_restore 9
GAS LISTING /tmp/ccU5mqWI.s 			page 7


 277 0184 13010102 		addi	sp,sp,32
 278              		.cfi_def_cfa_offset 0
 279 0188 67800000 		jr	ra
 280              		.cfi_endproc
 281              	.LFE36:
 283              		.align	2
 284              		.globl	_ZN3TCB8dispatchEv
 286              	_ZN3TCB8dispatchEv:
 287              	.LFB35:
  28:src/tcb.cpp   ****     TCB *old = running;
 288              		.loc 1 28 22 is_stmt 1
 289              		.cfi_startproc
 290 018c 130101FD 		addi	sp,sp,-48
 291              		.cfi_def_cfa_offset 48
 292 0190 23341102 		sd	ra,40(sp)
 293 0194 23308102 		sd	s0,32(sp)
 294 0198 233C9100 		sd	s1,24(sp)
 295 019c 23382101 		sd	s2,16(sp)
 296              		.cfi_offset 1, -8
 297              		.cfi_offset 8, -16
 298              		.cfi_offset 9, -24
 299              		.cfi_offset 18, -32
 300 01a0 13040103 		addi	s0,sp,48
 301              		.cfi_def_cfa 8, 0
  29:src/tcb.cpp   ****     uint64 sstatus = Riscv::r_sstatus();
 302              		.loc 1 29 5
  29:src/tcb.cpp   ****     uint64 sstatus = Riscv::r_sstatus();
 303              		.loc 1 29 10 is_stmt 0
 304 01a4 97040000 		ld	s1,.LANCHOR0
 304      83B40400 
 305              	.LVL22:
  30:src/tcb.cpp   ****     if (!old->isFinished()) { Scheduler::put(old); }
 306              		.loc 1 30 5 is_stmt 1
 307              	.LBB14:
 308              	.LBB15:
 309              		.file 3 "src/../h/riscv.hpp"
   1:src/../h/riscv.hpp **** //
   2:src/../h/riscv.hpp **** // Created by os on 4/26/22.
   3:src/../h/riscv.hpp **** //
   4:src/../h/riscv.hpp **** 
   5:src/../h/riscv.hpp **** #ifndef PROJECT_BASE_V1_0_RISCV_HPP
   6:src/../h/riscv.hpp **** #define PROJECT_BASE_V1_0_RISCV_HPP
   7:src/../h/riscv.hpp **** 
   8:src/../h/riscv.hpp **** #include "../lib/hw.h"
   9:src/../h/riscv.hpp **** 
  10:src/../h/riscv.hpp **** class Riscv{
  11:src/../h/riscv.hpp **** public:
  12:src/../h/riscv.hpp **** 
  13:src/../h/riscv.hpp ****     static void popSppSpie();
  14:src/../h/riscv.hpp **** 
  15:src/../h/riscv.hpp ****     //read
  16:src/../h/riscv.hpp ****     static uint64 r_scause();
  17:src/../h/riscv.hpp **** 
  18:src/../h/riscv.hpp ****     //write
  19:src/../h/riscv.hpp ****     static void w_scause(uint64 scause);
  20:src/../h/riscv.hpp **** 
  21:src/../h/riscv.hpp ****     static uint64 r_sepc();
GAS LISTING /tmp/ccU5mqWI.s 			page 8


  22:src/../h/riscv.hpp **** 
  23:src/../h/riscv.hpp ****     static void w_sepc(uint64 sepc);
  24:src/../h/riscv.hpp **** 
  25:src/../h/riscv.hpp ****     static uint64 r_stvec();
  26:src/../h/riscv.hpp **** 
  27:src/../h/riscv.hpp ****     static void w_stvec(uint64 stvec);
  28:src/../h/riscv.hpp **** 
  29:src/../h/riscv.hpp ****     static uint64 r_stval();
  30:src/../h/riscv.hpp **** 
  31:src/../h/riscv.hpp ****     static void w_stval(uint64 stval);
  32:src/../h/riscv.hpp **** 
  33:src/../h/riscv.hpp ****     enum BitMaskSip{
  34:src/../h/riscv.hpp ****         SIP_SSIP = (1 << 1),
  35:src/../h/riscv.hpp ****         SIP_STIP = (1 << 5),
  36:src/../h/riscv.hpp ****         SIP_SEIP = (1 << 9),
  37:src/../h/riscv.hpp ****     };
  38:src/../h/riscv.hpp ****     // mask set
  39:src/../h/riscv.hpp ****     static void ms_sip(uint64 mask);
  40:src/../h/riscv.hpp ****     // mask clear
  41:src/../h/riscv.hpp ****     static void mc_sip(uint64 mask);
  42:src/../h/riscv.hpp **** 
  43:src/../h/riscv.hpp ****     static uint64 r_sip();
  44:src/../h/riscv.hpp **** 
  45:src/../h/riscv.hpp ****     static void w_sip(uint64 sip);
  46:src/../h/riscv.hpp **** 
  47:src/../h/riscv.hpp ****     enum BitMaskSstatus{
  48:src/../h/riscv.hpp ****         SSTATUS_SIE = (1 << 1),
  49:src/../h/riscv.hpp ****         SSTATUS_SPIE = (1 << 5),
  50:src/../h/riscv.hpp ****         SSTATUS_SPP = (1 << 8),
  51:src/../h/riscv.hpp ****     };
  52:src/../h/riscv.hpp **** 
  53:src/../h/riscv.hpp ****     static void ms_sstatus(uint64 mask);
  54:src/../h/riscv.hpp **** 
  55:src/../h/riscv.hpp ****     static void mc_sstatus(uint64 mask);
  56:src/../h/riscv.hpp **** 
  57:src/../h/riscv.hpp ****     static uint64 r_sstatus();
  58:src/../h/riscv.hpp **** 
  59:src/../h/riscv.hpp ****     static void w_sstatus(uint64 sstatus);
  60:src/../h/riscv.hpp **** 
  61:src/../h/riscv.hpp ****     static void supervisorTrap();
  62:src/../h/riscv.hpp **** 
  63:src/../h/riscv.hpp **** private:
  64:src/../h/riscv.hpp ****     static void handleSupervisorTrap();
  65:src/../h/riscv.hpp **** };
  66:src/../h/riscv.hpp **** 
  67:src/../h/riscv.hpp **** inline uint64 Riscv::r_scause() {
  68:src/../h/riscv.hpp ****     uint64 volatile scause;
  69:src/../h/riscv.hpp ****     __asm__ volatile ("csrr %[scause], scause" : [scause] "=r"(scause));
  70:src/../h/riscv.hpp ****     return scause;
  71:src/../h/riscv.hpp **** }
  72:src/../h/riscv.hpp **** 
  73:src/../h/riscv.hpp **** inline void Riscv::w_scause(uint64 scause) {
  74:src/../h/riscv.hpp ****     __asm__ volatile ("csrw scause, %[scause]" : : [scause] "r"(scause));
  75:src/../h/riscv.hpp **** }
  76:src/../h/riscv.hpp **** 
  77:src/../h/riscv.hpp **** inline uint64 Riscv::r_sepc() {
  78:src/../h/riscv.hpp ****     uint64 volatile sepc;
GAS LISTING /tmp/ccU5mqWI.s 			page 9


  79:src/../h/riscv.hpp ****     __asm__ volatile ("csrr %[sepc], sepc" : [sepc] "=r"(sepc));
  80:src/../h/riscv.hpp ****     return sepc;
  81:src/../h/riscv.hpp **** }
  82:src/../h/riscv.hpp **** 
  83:src/../h/riscv.hpp **** inline void Riscv::w_sepc(uint64 sepc) {
  84:src/../h/riscv.hpp ****     __asm__ volatile ("csrw sepc, %[sepc]" : : [sepc] "r"(sepc));
  85:src/../h/riscv.hpp **** }
  86:src/../h/riscv.hpp **** 
  87:src/../h/riscv.hpp **** inline uint64 Riscv::r_stvec() {
  88:src/../h/riscv.hpp ****     uint64 volatile stvec;
  89:src/../h/riscv.hpp ****     __asm__ volatile ("csrr %[stvec], stvec" : [stvec] "=r"(stvec));
  90:src/../h/riscv.hpp ****     return stvec;
  91:src/../h/riscv.hpp **** }
  92:src/../h/riscv.hpp **** 
  93:src/../h/riscv.hpp **** inline void Riscv::w_stvec(uint64 stvec) {
  94:src/../h/riscv.hpp ****     __asm__ volatile ("csrw stvec, %[stvec]" : : [stvec] "r"(stvec));
  95:src/../h/riscv.hpp **** }
  96:src/../h/riscv.hpp **** 
  97:src/../h/riscv.hpp **** inline uint64 Riscv::r_stval() {
  98:src/../h/riscv.hpp ****     uint64 volatile stval;
  99:src/../h/riscv.hpp ****     __asm__ volatile ("csrr %[stval], stval" : [stval] "=r"(stval));
 100:src/../h/riscv.hpp ****     return stval;
 101:src/../h/riscv.hpp **** }
 102:src/../h/riscv.hpp **** 
 103:src/../h/riscv.hpp **** inline void Riscv::w_stval(uint64 stval) {
 104:src/../h/riscv.hpp ****     __asm__ volatile ("csrw stval, %[stval]" : : [stval] "r"(stval));
 105:src/../h/riscv.hpp **** }
 106:src/../h/riscv.hpp **** 
 107:src/../h/riscv.hpp **** inline void Riscv::ms_sip(uint64 mask) {
 108:src/../h/riscv.hpp ****     __asm__ volatile ("csrs sip, %[mask]" : : [mask] "r"(mask));
 109:src/../h/riscv.hpp **** }
 110:src/../h/riscv.hpp **** 
 111:src/../h/riscv.hpp **** inline void Riscv::mc_sip(uint64 mask) {
 112:src/../h/riscv.hpp ****     __asm__ volatile ("csrc sip, %[mask]" : : [mask] "r"(mask));
 113:src/../h/riscv.hpp **** }
 114:src/../h/riscv.hpp **** 
 115:src/../h/riscv.hpp **** inline uint64 Riscv::r_sip() {
 116:src/../h/riscv.hpp ****     uint64 volatile sip;
 117:src/../h/riscv.hpp ****     __asm__ volatile ("csrr %[sip], sip" : [sip] "=r"(sip));
 118:src/../h/riscv.hpp ****     return sip;
 119:src/../h/riscv.hpp **** }
 120:src/../h/riscv.hpp **** 
 121:src/../h/riscv.hpp **** inline void Riscv::w_sip(uint64 sip) {
 122:src/../h/riscv.hpp ****     __asm__ volatile ("csrw sip, %[sip]" : : [sip] "r"(sip));
 123:src/../h/riscv.hpp **** }
 124:src/../h/riscv.hpp **** 
 125:src/../h/riscv.hpp **** inline void Riscv::ms_sstatus(uint64 mask) {
 126:src/../h/riscv.hpp ****     __asm__ volatile ("csrs sstatus, %[mask]" : : [mask] "r"(mask));
 127:src/../h/riscv.hpp **** }
 128:src/../h/riscv.hpp **** 
 129:src/../h/riscv.hpp **** inline void Riscv::mc_sstatus(uint64 mask) {
 130:src/../h/riscv.hpp ****     __asm__ volatile ("csrc sstatus, %[mask]" : : [mask] "r"(mask));
 131:src/../h/riscv.hpp **** }
 132:src/../h/riscv.hpp **** 
 133:src/../h/riscv.hpp **** inline uint64 Riscv::r_sstatus() {
 134:src/../h/riscv.hpp ****     uint64 volatile sstatus;
 310              		.loc 3 134 5
GAS LISTING /tmp/ccU5mqWI.s 			page 10


 135:src/../h/riscv.hpp ****     __asm__ volatile ("csrr %[sstatus], sstatus" : [sstatus] "=r"(sstatus));
 311              		.loc 3 135 5
 312              		.loc 3 135 76 is_stmt 0
 313              	#APP
 314              	# 135 "src/../h/riscv.hpp" 1
 136              	    return sstatus;
 315              		csrr a5, sstatus
 316              	# 0 "" 2
 317              	#NO_APP
 318 01b0 233CF4FC 		sd	a5,-40(s0)
 319              		.loc 3 136 5 is_stmt 1
 320              		.loc 3 136 12 is_stmt 0
 321 01b4 033984FD 		ld	s2,-40(s0)
 322              	.LVL23:
 323              	.LBE15:
 324              	.LBE14:
  31:src/tcb.cpp   ****     running = Scheduler::get();
 325              		.loc 1 31 5 is_stmt 1
 326              	.LBB16:
 327              	.LBB17:
  13:src/../h/tcb.hpp ****         void setFinished(bool value) { finished = value; }
 328              		.loc 2 13 35
  13:src/../h/tcb.hpp ****         void setFinished(bool value) { finished = value; }
 329              		.loc 2 13 42 is_stmt 0
 330 01b8 83C78402 		lbu	a5,40(s1)
 331              	.LVL24:
 332              	.LBE17:
 333              	.LBE16:
  31:src/tcb.cpp   ****     running = Scheduler::get();
 334              		.loc 1 31 5
 335 01bc 63800704 		beqz	a5,.L21
 336              	.L19:
  32:src/tcb.cpp   ****     Riscv::w_sstatus(sstatus);
 337              		.loc 1 32 5 is_stmt 1
  32:src/tcb.cpp   ****     Riscv::w_sstatus(sstatus);
 338              		.loc 1 32 29 is_stmt 0
 339 01c0 97000000 		call	_ZN9Scheduler3getEv@plt
 339      E7800000 
 340              	.LVL25:
  32:src/tcb.cpp   ****     Riscv::w_sstatus(sstatus);
 341              		.loc 1 32 13
 342 01c8 97070000 		sd	a0,.LANCHOR0,a5
 342      23B0A700 
  33:src/tcb.cpp   ****     TCB::contextSwitch(&old->context, &running->context);
 343              		.loc 1 33 5 is_stmt 1
 344              	.LVL26:
 345              	.LBB18:
 346              	.LBB19:
 137:src/../h/riscv.hpp **** }
 138:src/../h/riscv.hpp **** inline void Riscv::w_sstatus(uint64 sstatus) {
 139:src/../h/riscv.hpp ****     __asm__ volatile ("csrw sstatus, %[sstatus]" : : [sstatus] "r"(sstatus));
 347              		.loc 3 139 5
 348              		.loc 3 139 77 is_stmt 0
 349              	#APP
 350              	# 139 "src/../h/riscv.hpp" 1
 140              	}
 351              		csrw sstatus, s2
GAS LISTING /tmp/ccU5mqWI.s 			page 11


 352              	# 0 "" 2
 353              	.LVL27:
 354              	#NO_APP
 355              	.LBE19:
 356              	.LBE18:
  34:src/tcb.cpp   **** }
 357              		.loc 1 34 5 is_stmt 1
  34:src/tcb.cpp   **** }
 358              		.loc 1 34 23 is_stmt 0
 359 01d4 93050501 		addi	a1,a0,16
 360 01d8 13850401 		addi	a0,s1,16
 361 01dc 97000000 		call	_ZN3TCB13contextSwitchEPNS_7ContextES1_@plt
 361      E7800000 
 362              	.LVL28:
  35:src/tcb.cpp   **** 
 363              		.loc 1 35 1
 364 01e4 83308102 		ld	ra,40(sp)
 365              		.cfi_remember_state
 366              		.cfi_restore 1
 367 01e8 03340102 		ld	s0,32(sp)
 368              		.cfi_restore 8
 369              		.cfi_def_cfa 2, 48
 370 01ec 83348101 		ld	s1,24(sp)
 371              		.cfi_restore 9
 372              	.LVL29:
 373 01f0 03390101 		ld	s2,16(sp)
 374              		.cfi_restore 18
 375              	.LVL30:
 376 01f4 13010103 		addi	sp,sp,48
 377              		.cfi_def_cfa_offset 0
 378 01f8 67800000 		jr	ra
 379              	.LVL31:
 380              	.L21:
 381              		.cfi_restore_state
  31:src/tcb.cpp   ****     running = Scheduler::get();
 382              		.loc 1 31 31 is_stmt 1 discriminator 1
  31:src/tcb.cpp   ****     running = Scheduler::get();
 383              		.loc 1 31 45 is_stmt 0 discriminator 1
 384 01fc 13850400 		mv	a0,s1
 385 0200 97000000 		call	_ZN9Scheduler3putEP3TCB@plt
 385      E7800000 
 386              	.LVL32:
 387 0208 6FF09FFB 		j	.L19
 388              		.cfi_endproc
 389              	.LFE35:
 391              		.align	2
 392              		.globl	_ZN3TCB9checkBodyEv
 394              	_ZN3TCB9checkBodyEv:
 395              	.LFB37:
  43:src/tcb.cpp   **** 
  44:src/tcb.cpp   **** bool TCB::checkBody() {
 396              		.loc 1 44 23 is_stmt 1
 397              		.cfi_startproc
 398              	.LVL33:
 399 020c 130101FF 		addi	sp,sp,-16
 400              		.cfi_def_cfa_offset 16
 401 0210 23348100 		sd	s0,8(sp)
GAS LISTING /tmp/ccU5mqWI.s 			page 12


 402              		.cfi_offset 8, -8
 403 0214 13040101 		addi	s0,sp,16
 404              		.cfi_def_cfa 8, 0
  45:src/tcb.cpp   ****     if(this->body != nullptr){
 405              		.loc 1 45 5
 406              		.loc 1 45 14 is_stmt 0
 407 0218 83370500 		ld	a5,0(a0)
 408              		.loc 1 45 5
 409 021c 638A0700 		beqz	a5,.L24
  46:src/tcb.cpp   ****         return true;
 410              		.loc 1 46 16
 411 0220 13051000 		li	a0,1
 412              	.LVL34:
 413              	.L23:
  47:src/tcb.cpp   ****     }else{
  48:src/tcb.cpp   ****         return false;
  49:src/tcb.cpp   ****     }
  50:src/tcb.cpp   **** }
 414              		.loc 1 50 1
 415 0224 03348100 		ld	s0,8(sp)
 416              		.cfi_remember_state
 417              		.cfi_restore 8
 418              		.cfi_def_cfa 2, 16
 419 0228 13010101 		addi	sp,sp,16
 420              		.cfi_def_cfa_offset 0
 421 022c 67800000 		jr	ra
 422              	.LVL35:
 423              	.L24:
 424              		.cfi_restore_state
  48:src/tcb.cpp   ****     }
 425              		.loc 1 48 16
 426 0230 13050000 		li	a0,0
 427              	.LVL36:
 428 0234 6FF01FFF 		j	.L23
 429              		.cfi_endproc
 430              	.LFE37:
 432              		.globl	_ZN3TCB16timeSliceCounterE
 433              		.globl	_ZN3TCB7runningE
 434              		.bss
 435              		.align	3
 436              		.set	.LANCHOR0,. + 0
 439              	_ZN3TCB7runningE:
 440 0000 00000000 		.zero	8
 440      00000000 
 443              	_ZN3TCB16timeSliceCounterE:
 444 0008 00000000 		.zero	8
 444      00000000 
 445              		.text
 446              	.Letext0:
 447              		.file 4 "src/../h/../lib/hw.h"
 448              		.file 5 "src/../h/scheduler.hpp"
 2816              		.align	3
 2819              	DW.ref.__gxx_personality_v0:
 2820 0000 00000000 		.dword	__gxx_personality_v0
 2820      00000000 
 2821              		.ident	"GCC: (Ubuntu 9.4.0-1ubuntu1~20.04) 9.4.0"
 2822              		.section	.note.GNU-stack,"",@progbits
GAS LISTING /tmp/ccU5mqWI.s 			page 13


GAS LISTING /tmp/ccU5mqWI.s 			page 14


DEFINED SYMBOLS
                            *ABS*:0000000000000000 tcb.cpp
     /tmp/ccU5mqWI.s:9      .text:0000000000000000 _ZN3TCBC2EPFvvEm
     /tmp/ccU5mqWI.s:13     .text:0000000000000000 .L0 
     /tmp/ccU5mqWI.s:15     .text:0000000000000000 .L0 
     /tmp/ccU5mqWI.s:16     .text:0000000000000004 .L0 
     /tmp/ccU5mqWI.s:22     .text:0000000000000018 .L0 
     /tmp/ccU5mqWI.s:23     .text:0000000000000018 .L0 
     /tmp/ccU5mqWI.s:24     .text:0000000000000018 .L0 
     /tmp/ccU5mqWI.s:25     .text:0000000000000018 .L0 
     /tmp/ccU5mqWI.s:26     .text:0000000000000018 .L0 
     /tmp/ccU5mqWI.s:28     .text:000000000000001c .L0 
     /tmp/ccU5mqWI.s:34     .text:0000000000000028 .L0 
     /tmp/ccU5mqWI.s:36     .text:000000000000002c .L0 
     /tmp/ccU5mqWI.s:38     .text:0000000000000030 .L0 
     /tmp/ccU5mqWI.s:44     .text:000000000000003c .L0 
     /tmp/ccU5mqWI.s:225    .text:0000000000000134 _ZN3TCB13threadWrapperEv
     /tmp/ccU5mqWI.s:48     .text:000000000000004c .L0 
     /tmp/ccU5mqWI.s:50     .text:0000000000000050 .L0 
     /tmp/ccU5mqWI.s:54     .text:0000000000000058 .L0 
     /tmp/ccU5mqWI.s:58     .text:0000000000000064 .L0 
     /tmp/ccU5mqWI.s:60     .text:0000000000000068 .L0 
     /tmp/ccU5mqWI.s:61     .text:0000000000000068 .L0 
     /tmp/ccU5mqWI.s:67     .text:0000000000000074 .L0 
     /tmp/ccU5mqWI.s:68     .text:0000000000000078 .L0 
     /tmp/ccU5mqWI.s:69     .text:0000000000000078 .L0 
     /tmp/ccU5mqWI.s:71     .text:000000000000007c .L0 
     /tmp/ccU5mqWI.s:72     .text:000000000000007c .L0 
     /tmp/ccU5mqWI.s:74     .text:0000000000000080 .L0 
     /tmp/ccU5mqWI.s:77     .text:0000000000000084 .L0 
     /tmp/ccU5mqWI.s:80     .text:0000000000000088 .L0 
     /tmp/ccU5mqWI.s:83     .text:000000000000008c .L0 
     /tmp/ccU5mqWI.s:87     .text:0000000000000090 .L0 
     /tmp/ccU5mqWI.s:90     .text:0000000000000090 .L0 
     /tmp/ccU5mqWI.s:95     .text:0000000000000098 .L0 
     /tmp/ccU5mqWI.s:98     .text:00000000000000a0 .L0 
     /tmp/ccU5mqWI.s:9      .text:0000000000000000 _ZN3TCBC1EPFvvEm
     /tmp/ccU5mqWI.s:106    .text:00000000000000a0 _ZN3TCB12createThreadEPFvvE
     /tmp/ccU5mqWI.s:109    .text:00000000000000a0 .L0 
     /tmp/ccU5mqWI.s:2819   .data.rel.local.DW.ref.__gxx_personality_v0:0000000000000000 DW.ref.__gxx_personality_v0
     /tmp/ccU5mqWI.s:113    .text:00000000000000a0 .L0 
     /tmp/ccU5mqWI.s:114    .text:00000000000000a4 .L0 
     /tmp/ccU5mqWI.s:119    .text:00000000000000b4 .L0 
     /tmp/ccU5mqWI.s:120    .text:00000000000000b4 .L0 
     /tmp/ccU5mqWI.s:121    .text:00000000000000b4 .L0 
     /tmp/ccU5mqWI.s:122    .text:00000000000000b4 .L0 
     /tmp/ccU5mqWI.s:124    .text:00000000000000b8 .L0 
     /tmp/ccU5mqWI.s:127    .text:00000000000000bc .L0 
     /tmp/ccU5mqWI.s:128    .text:00000000000000bc .L0 
     /tmp/ccU5mqWI.s:155    .text:00000000000000fc .L0 
     /tmp/ccU5mqWI.s:157    .text:0000000000000104 .L0 
     /tmp/ccU5mqWI.s:159    .text:0000000000000108 .L0 
     /tmp/ccU5mqWI.s:160    .text:0000000000000108 .L0 
     /tmp/ccU5mqWI.s:162    .text:000000000000010c .L0 
     /tmp/ccU5mqWI.s:164    .text:0000000000000110 .L0 
     /tmp/ccU5mqWI.s:167    .text:0000000000000114 .L0 
     /tmp/ccU5mqWI.s:169    .text:0000000000000118 .L0 
GAS LISTING /tmp/ccU5mqWI.s 			page 15


     /tmp/ccU5mqWI.s:195    .text:0000000000000118 _ZN3TCB5yieldEv
     /tmp/ccU5mqWI.s:198    .text:0000000000000118 .L0 
     /tmp/ccU5mqWI.s:199    .text:0000000000000118 .L0 
     /tmp/ccU5mqWI.s:200    .text:000000000000011c .L0 
     /tmp/ccU5mqWI.s:202    .text:0000000000000120 .L0 
     /tmp/ccU5mqWI.s:204    .text:0000000000000124 .L0 
     /tmp/ccU5mqWI.s:206    .text:0000000000000124 .L0 
         src/tcb.cpp:26     .text:0000000000000124 .L0 
     /tmp/ccU5mqWI.s:213    .text:0000000000000128 .L0 
     /tmp/ccU5mqWI.s:214    .text:000000000000012c .L0 
     /tmp/ccU5mqWI.s:215    .text:000000000000012c .L0 
     /tmp/ccU5mqWI.s:217    .text:0000000000000130 .L0 
     /tmp/ccU5mqWI.s:219    .text:0000000000000134 .L0 
     /tmp/ccU5mqWI.s:228    .text:0000000000000134 .L0 
     /tmp/ccU5mqWI.s:229    .text:0000000000000134 .L0 
     /tmp/ccU5mqWI.s:230    .text:0000000000000138 .L0 
     /tmp/ccU5mqWI.s:234    .text:0000000000000144 .L0 
     /tmp/ccU5mqWI.s:235    .text:0000000000000144 .L0 
     /tmp/ccU5mqWI.s:236    .text:0000000000000144 .L0 
     /tmp/ccU5mqWI.s:238    .text:0000000000000148 .L0 
     /tmp/ccU5mqWI.s:240    .text:0000000000000148 .L0 
     /tmp/ccU5mqWI.s:241    .text:0000000000000148 .L0 
     /tmp/ccU5mqWI.s:244    .text:0000000000000150 .L0 
     /tmp/ccU5mqWI.s:245    .text:0000000000000150 .L0 
     /tmp/ccU5mqWI.s:249    .text:0000000000000160 .L0 
     /tmp/ccU5mqWI.s:252    .text:0000000000000164 .L0 
     /tmp/ccU5mqWI.s:253    .text:0000000000000164 .L0 
     /tmp/ccU5mqWI.s:259    .text:0000000000000168 .L0 
     /tmp/ccU5mqWI.s:260    .text:0000000000000168 .L0 
     /tmp/ccU5mqWI.s:266    .text:0000000000000170 .L0 
     /tmp/ccU5mqWI.s:267    .text:0000000000000170 .L0 
     /tmp/ccU5mqWI.s:270    .text:0000000000000178 .L0 
     /tmp/ccU5mqWI.s:271    .text:000000000000017c .L0 
     /tmp/ccU5mqWI.s:273    .text:0000000000000180 .L0 
     /tmp/ccU5mqWI.s:274    .text:0000000000000180 .L0 
     /tmp/ccU5mqWI.s:276    .text:0000000000000184 .L0 
     /tmp/ccU5mqWI.s:278    .text:0000000000000188 .L0 
     /tmp/ccU5mqWI.s:280    .text:000000000000018c .L0 
     /tmp/ccU5mqWI.s:286    .text:000000000000018c _ZN3TCB8dispatchEv
     /tmp/ccU5mqWI.s:289    .text:000000000000018c .L0 
     /tmp/ccU5mqWI.s:290    .text:000000000000018c .L0 
     /tmp/ccU5mqWI.s:291    .text:0000000000000190 .L0 
     /tmp/ccU5mqWI.s:296    .text:00000000000001a0 .L0 
     /tmp/ccU5mqWI.s:297    .text:00000000000001a0 .L0 
     /tmp/ccU5mqWI.s:298    .text:00000000000001a0 .L0 
     /tmp/ccU5mqWI.s:299    .text:00000000000001a0 .L0 
     /tmp/ccU5mqWI.s:301    .text:00000000000001a4 .L0 
     /tmp/ccU5mqWI.s:303    .text:00000000000001a4 .L0 
     /tmp/ccU5mqWI.s:304    .text:00000000000001a4 .L0 
     /tmp/ccU5mqWI.s:310    .text:00000000000001ac .L0 
     /tmp/ccU5mqWI.s:311    .text:00000000000001ac .L0 
     /tmp/ccU5mqWI.s:312    .text:00000000000001ac .L0 
  src/../h/riscv.hpp:135    .text:00000000000001ac .L0 
     /tmp/ccU5mqWI.s:320    .text:00000000000001b4 .L0 
     /tmp/ccU5mqWI.s:321    .text:00000000000001b4 .L0 
     /tmp/ccU5mqWI.s:328    .text:00000000000001b8 .L0 
     /tmp/ccU5mqWI.s:329    .text:00000000000001b8 .L0 
GAS LISTING /tmp/ccU5mqWI.s 			page 16


     /tmp/ccU5mqWI.s:330    .text:00000000000001b8 .L0 
     /tmp/ccU5mqWI.s:335    .text:00000000000001bc .L0 
     /tmp/ccU5mqWI.s:338    .text:00000000000001c0 .L0 
     /tmp/ccU5mqWI.s:339    .text:00000000000001c0 .L0 
     /tmp/ccU5mqWI.s:342    .text:00000000000001c8 .L0 
     /tmp/ccU5mqWI.s:347    .text:00000000000001d0 .L0 
     /tmp/ccU5mqWI.s:348    .text:00000000000001d0 .L0 
  src/../h/riscv.hpp:139    .text:00000000000001d0 .L0 
     /tmp/ccU5mqWI.s:358    .text:00000000000001d4 .L0 
     /tmp/ccU5mqWI.s:359    .text:00000000000001d4 .L0 
     /tmp/ccU5mqWI.s:364    .text:00000000000001e4 .L0 
     /tmp/ccU5mqWI.s:365    .text:00000000000001e8 .L0 
     /tmp/ccU5mqWI.s:366    .text:00000000000001e8 .L0 
     /tmp/ccU5mqWI.s:368    .text:00000000000001ec .L0 
     /tmp/ccU5mqWI.s:369    .text:00000000000001ec .L0 
     /tmp/ccU5mqWI.s:371    .text:00000000000001f0 .L0 
     /tmp/ccU5mqWI.s:374    .text:00000000000001f4 .L0 
     /tmp/ccU5mqWI.s:377    .text:00000000000001f8 .L0 
     /tmp/ccU5mqWI.s:381    .text:00000000000001fc .L0 
     /tmp/ccU5mqWI.s:383    .text:00000000000001fc .L0 
     /tmp/ccU5mqWI.s:384    .text:00000000000001fc .L0 
     /tmp/ccU5mqWI.s:388    .text:000000000000020c .L0 
     /tmp/ccU5mqWI.s:394    .text:000000000000020c _ZN3TCB9checkBodyEv
     /tmp/ccU5mqWI.s:397    .text:000000000000020c .L0 
     /tmp/ccU5mqWI.s:399    .text:000000000000020c .L0 
     /tmp/ccU5mqWI.s:400    .text:0000000000000210 .L0 
     /tmp/ccU5mqWI.s:402    .text:0000000000000214 .L0 
     /tmp/ccU5mqWI.s:404    .text:0000000000000218 .L0 
     /tmp/ccU5mqWI.s:406    .text:0000000000000218 .L0 
     /tmp/ccU5mqWI.s:407    .text:0000000000000218 .L0 
     /tmp/ccU5mqWI.s:409    .text:000000000000021c .L0 
     /tmp/ccU5mqWI.s:411    .text:0000000000000220 .L0 
     /tmp/ccU5mqWI.s:415    .text:0000000000000224 .L0 
     /tmp/ccU5mqWI.s:416    .text:0000000000000228 .L0 
     /tmp/ccU5mqWI.s:417    .text:0000000000000228 .L0 
     /tmp/ccU5mqWI.s:418    .text:0000000000000228 .L0 
     /tmp/ccU5mqWI.s:420    .text:000000000000022c .L0 
     /tmp/ccU5mqWI.s:424    .text:0000000000000230 .L0 
     /tmp/ccU5mqWI.s:426    .text:0000000000000230 .L0 
     /tmp/ccU5mqWI.s:429    .text:0000000000000238 .L0 
     /tmp/ccU5mqWI.s:443    .bss:0000000000000008 _ZN3TCB16timeSliceCounterE
     /tmp/ccU5mqWI.s:439    .bss:0000000000000000 _ZN3TCB7runningE
     /tmp/ccU5mqWI.s:436    .bss:0000000000000000 .LANCHOR0
     /tmp/ccU5mqWI.s:449    .text:0000000000000238 .L0 
     /tmp/ccU5mqWI.s:45     .text:0000000000000040 .L0 
     /tmp/ccU5mqWI.s:245    .text:0000000000000150 .L0 
     /tmp/ccU5mqWI.s:304    .text:00000000000001a4 .L0 
     /tmp/ccU5mqWI.s:342    .text:00000000000001c8 .L0 
     /tmp/ccU5mqWI.s:86     .text:0000000000000090 .L5
     /tmp/ccU5mqWI.s:93     .text:0000000000000098 .L6
     /tmp/ccU5mqWI.s:64     .text:0000000000000074 .L1
     /tmp/ccU5mqWI.s:42     .text:000000000000003c .L2
     /tmp/ccU5mqWI.s:52     .text:0000000000000058 .L3
     /tmp/ccU5mqWI.s:153    .text:00000000000000fc .L13
     /tmp/ccU5mqWI.s:380    .text:00000000000001fc .L21
     /tmp/ccU5mqWI.s:336    .text:00000000000001c0 .L19
     /tmp/ccU5mqWI.s:423    .text:0000000000000230 .L24
GAS LISTING /tmp/ccU5mqWI.s 			page 17


     /tmp/ccU5mqWI.s:413    .text:0000000000000224 .L23
     /tmp/ccU5mqWI.s:130    .text:00000000000000c0 .LEHB0
     /tmp/ccU5mqWI.s:107    .text:00000000000000a0 .LFB33
     /tmp/ccU5mqWI.s:133    .text:00000000000000c8 .LEHE0
     /tmp/ccU5mqWI.s:137    .text:00000000000000d4 .LEHB1
     /tmp/ccU5mqWI.s:140    .text:00000000000000dc .LEHE1
     /tmp/ccU5mqWI.s:142    .text:00000000000000e0 .L10
     /tmp/ccU5mqWI.s:149    .text:00000000000000f4 .LEHB2
     /tmp/ccU5mqWI.s:152    .text:00000000000000fc .LEHE2
     /tmp/ccU5mqWI.s:1408   .debug_abbrev:0000000000000000 .Ldebug_abbrev0
     /tmp/ccU5mqWI.s:2795   .debug_str:00000000000005e6 .LASF99
     /tmp/ccU5mqWI.s:2703   .debug_str:0000000000000342 .LASF100
     /tmp/ccU5mqWI.s:2771   .debug_str:000000000000051a .LASF101
     /tmp/ccU5mqWI.s:5      .text:0000000000000000 .Ltext0
     /tmp/ccU5mqWI.s:446    .text:0000000000000238 .Letext0
     /tmp/ccU5mqWI.s:2589   .debug_line:0000000000000000 .Ldebug_line0
     /tmp/ccU5mqWI.s:2717   .debug_str:000000000000039c .LASF0
     /tmp/ccU5mqWI.s:2727   .debug_str:00000000000003c9 .LASF1
     /tmp/ccU5mqWI.s:2707   .debug_str:0000000000000355 .LASF2
     /tmp/ccU5mqWI.s:2679   .debug_str:00000000000002ac .LASF4
     /tmp/ccU5mqWI.s:2763   .debug_str:00000000000004dc .LASF3
     /tmp/ccU5mqWI.s:2613   .debug_str:0000000000000084 .LASF5
     /tmp/ccU5mqWI.s:2729   .debug_str:00000000000003dc .LASF6
     /tmp/ccU5mqWI.s:2715   .debug_str:0000000000000389 .LASF7
     /tmp/ccU5mqWI.s:2789   .debug_str:00000000000005b4 .LASF8
     /tmp/ccU5mqWI.s:2665   .debug_str:0000000000000216 .LASF9
     /tmp/ccU5mqWI.s:2741   .debug_str:000000000000044c .LASF10
     /tmp/ccU5mqWI.s:2787   .debug_str:00000000000005a5 .LASF11
     /tmp/ccU5mqWI.s:2615   .debug_str:000000000000008b .LASF12
     /tmp/ccU5mqWI.s:2595   .debug_str:0000000000000012 .LASF13
     /tmp/ccU5mqWI.s:2625   .debug_str:00000000000000ed .LASF14
     /tmp/ccU5mqWI.s:2755   .debug_str:0000000000000498 .LASF15
     /tmp/ccU5mqWI.s:2633   .debug_str:000000000000012c .LASF16
     /tmp/ccU5mqWI.s:2601   .debug_str:0000000000000031 .LASF102
     /tmp/ccU5mqWI.s:2641   .debug_str:0000000000000179 .LASF17
     /tmp/ccU5mqWI.s:2747   .debug_str:0000000000000474 .LASF19
     /tmp/ccU5mqWI.s:2731   .debug_str:00000000000003ef .LASF21
     /tmp/ccU5mqWI.s:2663   .debug_str:00000000000001ff .LASF23
     /tmp/ccU5mqWI.s:2709   .debug_str:0000000000000363 .LASF18
     /tmp/ccU5mqWI.s:2675   .debug_str:000000000000026d .LASF20
     /tmp/ccU5mqWI.s:2701   .debug_str:0000000000000335 .LASF22
     /tmp/ccU5mqWI.s:2611   .debug_str:000000000000006b .LASF24
     /tmp/ccU5mqWI.s:2691   .debug_str:00000000000002e9 .LASF25
     /tmp/ccU5mqWI.s:2699   .debug_str:0000000000000319 .LASF26
     /tmp/ccU5mqWI.s:2751   .debug_str:0000000000000488 .LASF103
     /tmp/ccU5mqWI.s:2757   .debug_str:00000000000004ae .LASF46
     /tmp/ccU5mqWI.s:2713   .debug_str:0000000000000379 .LASF48
     /tmp/ccU5mqWI.s:2645   .debug_str:0000000000000187 .LASF104
     /tmp/ccU5mqWI.s:2591   .debug_str:0000000000000000 .LASF27
     /tmp/ccU5mqWI.s:2607   .debug_str:0000000000000046 .LASF28
     /tmp/ccU5mqWI.s:2773   .debug_str:0000000000000535 .LASF105
     /tmp/ccU5mqWI.s:2685   .debug_str:00000000000002d1 .LASF29
     /tmp/ccU5mqWI.s:2723   .debug_str:00000000000003b9 .LASF30
     /tmp/ccU5mqWI.s:2689   .debug_str:00000000000002e1 .LASF31
     /tmp/ccU5mqWI.s:2725   .debug_str:00000000000003bf .LASF32
     /tmp/ccU5mqWI.s:2683   .debug_str:00000000000002c8 .LASF33
     /tmp/ccU5mqWI.s:2695   .debug_str:0000000000000301 .LASF34
GAS LISTING /tmp/ccU5mqWI.s 			page 18


     /tmp/ccU5mqWI.s:2669   .debug_str:000000000000023a .LASF36
     /tmp/ccU5mqWI.s:2793   .debug_str:00000000000005d8 .LASF44
     /tmp/ccU5mqWI.s:2677   .debug_str:0000000000000284 .LASF106
     /tmp/ccU5mqWI.s:2721   .debug_str:00000000000003b0 .LASF35
     /tmp/ccU5mqWI.s:2651   .debug_str:00000000000001ab .LASF37
     /tmp/ccU5mqWI.s:2765   .debug_str:00000000000004ee .LASF42
     /tmp/ccU5mqWI.s:2693   .debug_str:00000000000002f6 .LASF38
     /tmp/ccU5mqWI.s:2671   .debug_str:0000000000000253 .LASF39
     /tmp/ccU5mqWI.s:2653   .debug_str:00000000000001be .LASF40
     /tmp/ccU5mqWI.s:2739   .debug_str:0000000000000442 .LASF41
     /tmp/ccU5mqWI.s:2791   .debug_str:00000000000005c4 .LASF43
     /tmp/ccU5mqWI.s:2639   .debug_str:0000000000000165 .LASF107
     /tmp/ccU5mqWI.s:2621   .debug_str:00000000000000cb .LASF108
     /tmp/ccU5mqWI.s:2697   .debug_str:000000000000030f .LASF109
     /tmp/ccU5mqWI.s:2627   .debug_str:00000000000000f9 .LASF45
     /tmp/ccU5mqWI.s:2753   .debug_str:000000000000048d .LASF47
     /tmp/ccU5mqWI.s:2803   .debug_str:00000000000006ad .LASF49
     /tmp/ccU5mqWI.s:2597   .debug_str:0000000000000022 .LASF50
     /tmp/ccU5mqWI.s:2777   .debug_str:000000000000054c .LASF53
     /tmp/ccU5mqWI.s:2643   .debug_str:000000000000017e .LASF51
     /tmp/ccU5mqWI.s:2629   .debug_str:00000000000000ff .LASF56
     /tmp/ccU5mqWI.s:2767   .debug_str:00000000000004ff .LASF52
     /tmp/ccU5mqWI.s:2745   .debug_str:0000000000000461 .LASF54
     /tmp/ccU5mqWI.s:2785   .debug_str:000000000000059e .LASF55
     /tmp/ccU5mqWI.s:2781   .debug_str:0000000000000579 .LASF57
     /tmp/ccU5mqWI.s:2659   .debug_str:00000000000001f1 .LASF58
     /tmp/ccU5mqWI.s:2635   .debug_str:0000000000000142 .LASF59
     /tmp/ccU5mqWI.s:2593   .debug_str:000000000000000a .LASF60
     /tmp/ccU5mqWI.s:2769   .debug_str:0000000000000506 .LASF61
     /tmp/ccU5mqWI.s:2647   .debug_str:000000000000018f .LASF62
     /tmp/ccU5mqWI.s:2617   .debug_str:000000000000009b .LASF63
     /tmp/ccU5mqWI.s:2807   .debug_str:00000000000006d0 .LASF64
     /tmp/ccU5mqWI.s:2649   .debug_str:0000000000000197 .LASF65
     /tmp/ccU5mqWI.s:2719   .debug_str:00000000000003a9 .LASF66
     /tmp/ccU5mqWI.s:2799   .debug_str:0000000000000695 .LASF67
     /tmp/ccU5mqWI.s:2605   .debug_str:000000000000003f .LASF68
     /tmp/ccU5mqWI.s:2657   .debug_str:00000000000001de .LASF69
     /tmp/ccU5mqWI.s:2661   .debug_str:00000000000001f9 .LASF70
     /tmp/ccU5mqWI.s:2783   .debug_str:000000000000058c .LASF71
     /tmp/ccU5mqWI.s:2603   .debug_str:0000000000000039 .LASF72
     /tmp/ccU5mqWI.s:2811   .debug_str:00000000000006e9 .LASF73
     /tmp/ccU5mqWI.s:2805   .debug_str:00000000000006c5 .LASF74
     /tmp/ccU5mqWI.s:2761   .debug_str:00000000000004c4 .LASF75
     /tmp/ccU5mqWI.s:2687   .debug_str:00000000000002d6 .LASF76
     /tmp/ccU5mqWI.s:2779   .debug_str:0000000000000561 .LASF77
     /tmp/ccU5mqWI.s:2623   .debug_str:00000000000000e3 .LASF78
     /tmp/ccU5mqWI.s:2737   .debug_str:000000000000042c .LASF79
     /tmp/ccU5mqWI.s:2711   .debug_str:000000000000036f .LASF80
     /tmp/ccU5mqWI.s:2667   .debug_str:0000000000000224 .LASF81
     /tmp/ccU5mqWI.s:2637   .debug_str:0000000000000156 .LASF82
     /tmp/ccU5mqWI.s:2619   .debug_str:00000000000000af .LASF83
     /tmp/ccU5mqWI.s:2681   .debug_str:00000000000002b3 .LASF84
     /tmp/ccU5mqWI.s:2733   .debug_str:00000000000003fa .LASF85
     /tmp/ccU5mqWI.s:2809   .debug_str:00000000000006d8 .LASF86
     /tmp/ccU5mqWI.s:2655   .debug_str:00000000000001c3 .LASF87
     /tmp/ccU5mqWI.s:395    .text:000000000000020c .LFB37
     /tmp/ccU5mqWI.s:430    .text:0000000000000238 .LFE37
GAS LISTING /tmp/ccU5mqWI.s 			page 19


     /tmp/ccU5mqWI.s:2801   .debug_str:00000000000006a8 .LASF89
     /tmp/ccU5mqWI.s:2397   .debug_loc:0000000000000000 .LLST10
     /tmp/ccU5mqWI.s:226    .text:0000000000000134 .LFB36
     /tmp/ccU5mqWI.s:281    .text:000000000000018c .LFE36
     /tmp/ccU5mqWI.s:255    .text:0000000000000168 .LBB12
     /tmp/ccU5mqWI.s:264    .text:0000000000000170 .LBE12
     /tmp/ccU5mqWI.s:2422   .debug_loc:0000000000000062 .LLST4
     /tmp/ccU5mqWI.s:2430   .debug_loc:0000000000000086 .LLST5
     /tmp/ccU5mqWI.s:242    .text:0000000000000150 .LVL17
     /tmp/ccU5mqWI.s:268    .text:0000000000000178 .LVL21
     /tmp/ccU5mqWI.s:287    .text:000000000000018c .LFB35
     /tmp/ccU5mqWI.s:389    .text:000000000000020c .LFE35
     /tmp/ccU5mqWI.s:2437   .debug_loc:00000000000000a9 .LLST6
     /tmp/ccU5mqWI.s:2749   .debug_str:0000000000000480 .LASF88
     /tmp/ccU5mqWI.s:2448   .debug_loc:00000000000000df .LLST7
     /tmp/ccU5mqWI.s:307    .text:00000000000001ac .LBB14
     /tmp/ccU5mqWI.s:324    .text:00000000000001b8 .LBE14
     /tmp/ccU5mqWI.s:326    .text:00000000000001b8 .LBB16
     /tmp/ccU5mqWI.s:333    .text:00000000000001bc .LBE16
     /tmp/ccU5mqWI.s:2459   .debug_loc:0000000000000115 .LLST8
     /tmp/ccU5mqWI.s:345    .text:00000000000001d0 .LBB18
     /tmp/ccU5mqWI.s:356    .text:00000000000001d4 .LBE18
     /tmp/ccU5mqWI.s:2466   .debug_loc:0000000000000138 .LLST9
     /tmp/ccU5mqWI.s:340    .text:00000000000001c8 .LVL25
     /tmp/ccU5mqWI.s:362    .text:00000000000001e4 .LVL28
     /tmp/ccU5mqWI.s:386    .text:0000000000000208 .LVL32
     /tmp/ccU5mqWI.s:196    .text:0000000000000118 .LFB34
     /tmp/ccU5mqWI.s:220    .text:0000000000000134 .LFE34
     /tmp/ccU5mqWI.s:170    .text:0000000000000118 .LFE33
     /tmp/ccU5mqWI.s:2473   .debug_loc:000000000000015b .LLST3
     /tmp/ccU5mqWI.s:132    .text:00000000000000c8 .LVL11
     /tmp/ccU5mqWI.s:139    .text:00000000000000dc .LVL12
     /tmp/ccU5mqWI.s:147    .text:00000000000000f0 .LVL14
     /tmp/ccU5mqWI.s:151    .text:00000000000000fc .LVL15
     /tmp/ccU5mqWI.s:2609   .debug_str:000000000000005a .LASF110
     /tmp/ccU5mqWI.s:10     .text:0000000000000000 .LFB31
     /tmp/ccU5mqWI.s:99     .text:00000000000000a0 .LFE31
     /tmp/ccU5mqWI.s:2502   .debug_loc:00000000000001d0 .LLST0
     /tmp/ccU5mqWI.s:2524   .debug_loc:000000000000022f .LLST1
     /tmp/ccU5mqWI.s:2550   .debug_loc:00000000000002a1 .LLST2
     /tmp/ccU5mqWI.s:41     .text:000000000000003c .LVL2
     /tmp/ccU5mqWI.s:63     .text:0000000000000074 .LVL3
     /tmp/ccU5mqWI.s:2743   .debug_str:000000000000045b .LASF90
     /tmp/ccU5mqWI.s:2599   .debug_str:000000000000002b .LASF91
     /tmp/ccU5mqWI.s:2797   .debug_str:0000000000000688 .LASF93
     /tmp/ccU5mqWI.s:2705   .debug_str:000000000000034e .LASF92
     /tmp/ccU5mqWI.s:2735   .debug_str:000000000000041c .LASF94
     /tmp/ccU5mqWI.s:2673   .debug_str:000000000000025e .LASF95
     /tmp/ccU5mqWI.s:2631   .debug_str:0000000000000114 .LASF96
     /tmp/ccU5mqWI.s:2775   .debug_str:0000000000000546 .LASF97
     /tmp/ccU5mqWI.s:2759   .debug_str:00000000000004b4 .LASF98
     /tmp/ccU5mqWI.s:398    .text:000000000000020c .LVL33
     /tmp/ccU5mqWI.s:412    .text:0000000000000224 .LVL34
     /tmp/ccU5mqWI.s:422    .text:0000000000000230 .LVL35
     /tmp/ccU5mqWI.s:427    .text:0000000000000234 .LVL36
     /tmp/ccU5mqWI.s:254    .text:0000000000000168 .LVL19
     /tmp/ccU5mqWI.s:262    .text:0000000000000170 .LVL20
GAS LISTING /tmp/ccU5mqWI.s 			page 20


     /tmp/ccU5mqWI.s:305    .text:00000000000001ac .LVL22
     /tmp/ccU5mqWI.s:372    .text:00000000000001f0 .LVL29
     /tmp/ccU5mqWI.s:379    .text:00000000000001fc .LVL31
     /tmp/ccU5mqWI.s:322    .text:00000000000001b8 .LVL23
     /tmp/ccU5mqWI.s:375    .text:00000000000001f4 .LVL30
     /tmp/ccU5mqWI.s:331    .text:00000000000001bc .LVL24
     /tmp/ccU5mqWI.s:344    .text:00000000000001d0 .LVL26
     /tmp/ccU5mqWI.s:353    .text:00000000000001d4 .LVL27
     /tmp/ccU5mqWI.s:112    .text:00000000000000a0 .LVL9
     /tmp/ccU5mqWI.s:129    .text:00000000000000c0 .LVL10
     /tmp/ccU5mqWI.s:144    .text:00000000000000e4 .LVL13
     /tmp/ccU5mqWI.s:165    .text:0000000000000110 .LVL16
     /tmp/ccU5mqWI.s:14     .text:0000000000000000 .LVL0
     /tmp/ccU5mqWI.s:39     .text:0000000000000034 .LVL1
     /tmp/ccU5mqWI.s:75     .text:0000000000000080 .LVL4
     /tmp/ccU5mqWI.s:85     .text:0000000000000090 .LVL7
     /tmp/ccU5mqWI.s:78     .text:0000000000000084 .LVL5
     /tmp/ccU5mqWI.s:92     .text:0000000000000098 .LVL8
     /tmp/ccU5mqWI.s:81     .text:0000000000000088 .LVL6
     /tmp/ccU5mqWI.s:450    .debug_info:0000000000000000 .Ldebug_info0
     /tmp/ccU5mqWI.s:173    .gcc_except_table:0000000000000000 .LLSDA33

UNDEFINED SYMBOLS
_Znam
_ZN9Scheduler3putEP3TCB
_Znwm
_ZdlPv
_Unwind_Resume
__gxx_personality_v0
_ZN5Riscv10popSppSpieEv
_ZN9Scheduler3getEv
_ZN3TCB13contextSwitchEPNS_7ContextES1_
