GAS LISTING /tmp/ccZJ4CeA.s 			page 1


   1              		.file	"tcb.cpp"
   2              		.option pic
   3              		.option norelax
   4              		.text
   5              	.Ltext0:
   6              		.align	2
   7              		.globl	_ZN3TCB13threadWrapperEv
   9              	_ZN3TCB13threadWrapperEv:
  10              	.LFB41:
  11              		.file 1 "src/tcb.cpp"
   1:src/tcb.cpp   **** //
   2:src/tcb.cpp   **** // Created by os on 4/26/22.
   3:src/tcb.cpp   **** //
   4:src/tcb.cpp   **** 
   5:src/tcb.cpp   **** #include "../h/tcb.hpp"
   6:src/tcb.cpp   **** #include "../h/scheduler.hpp"
   7:src/tcb.cpp   **** #include "../h/riscv.hpp"
   8:src/tcb.cpp   **** #include "../h/printing.hpp"
   9:src/tcb.cpp   **** 
  10:src/tcb.cpp   **** 
  11:src/tcb.cpp   **** TCB *TCB::running = nullptr;
  12:src/tcb.cpp   **** uint64 TCB::timeSliceCounter = 0;
  13:src/tcb.cpp   **** 
  14:src/tcb.cpp   **** TCB::TCB(Body body, uint64 timeSlice) : body(body),
  15:src/tcb.cpp   **** stack(new uint64[STACK_SIZE]),
  16:src/tcb.cpp   **** context({(uint64) &threadWrapper,
  17:src/tcb.cpp   ****          (uint64) &stack[STACK_SIZE]}),
  18:src/tcb.cpp   **** timeSlice(timeSlice),
  19:src/tcb.cpp   **** finished(false), blocked(false) {
  20:src/tcb.cpp   ****     if (body != nullptr) { Scheduler::put(this); }
  21:src/tcb.cpp   ****     myThread = nullptr;
  22:src/tcb.cpp   **** }
  23:src/tcb.cpp   **** 
  24:src/tcb.cpp   **** TCB *TCB::createThread(Body body) {
  25:src/tcb.cpp   ****     return new TCB(body, TIME_SLICE);
  26:src/tcb.cpp   **** }
  27:src/tcb.cpp   **** 
  28:src/tcb.cpp   **** void TCB::yield() { __asm__ volatile ("ecall"); }
  29:src/tcb.cpp   **** 
  30:src/tcb.cpp   **** void TCB::dispatch() {
  31:src/tcb.cpp   ****     TCB *old = running;
  32:src/tcb.cpp   ****     uint64 sstatus = Riscv::r_sstatus();
  33:src/tcb.cpp   ****     if (!old->isBlocked() && !old->isFinished()) { Scheduler::put(old); }
  34:src/tcb.cpp   ****     running = Scheduler::get();
  35:src/tcb.cpp   ****     Riscv::w_sstatus(sstatus);
  36:src/tcb.cpp   ****     TCB::contextSwitch(&old->context, &running->context);
  37:src/tcb.cpp   **** }
  38:src/tcb.cpp   **** 
  39:src/tcb.cpp   **** void TCB::threadWrapper() {
  12              		.loc 1 39 27
  13              		.cfi_startproc
  14 0000 130101FF 		addi	sp,sp,-16
  15              		.cfi_def_cfa_offset 16
  16 0004 23341100 		sd	ra,8(sp)
  17 0008 23308100 		sd	s0,0(sp)
  18              		.cfi_offset 1, -8
  19              		.cfi_offset 8, -16
GAS LISTING /tmp/ccZJ4CeA.s 			page 2


  20 000c 13040101 		addi	s0,sp,16
  21              		.cfi_def_cfa 8, 0
  40:src/tcb.cpp   ****     Riscv::popSppSpie();
  22              		.loc 1 40 5
  23              		.loc 1 40 22 is_stmt 0
  24 0010 97000000 		call	_ZN5Riscv10popSppSpieEv@plt
  24      E7800000 
  25              	.LVL0:
  41:src/tcb.cpp   ****     if(running->myThread != nullptr){
  26              		.loc 1 41 5 is_stmt 1
  27              		.loc 1 41 17 is_stmt 0
  28 0018 97070000 		ld	a5,.LANCHOR0
  28      83B70700 
  29 0020 03B50703 		ld	a0,48(a5)
  30              		.loc 1 41 5
  31 0024 63080500 		beqz	a0,.L2
  42:src/tcb.cpp   ****         running->myThread->run();
  32              		.loc 1 42 9 is_stmt 1
  33              		.loc 1 42 32 is_stmt 0
  34 0028 83370500 		ld	a5,0(a0)
  35 002c 83B70701 		ld	a5,16(a5)
  36              		.loc 1 42 31
  37 0030 E7800700 		jalr	a5
  38              	.LVL1:
  39              	.L2:
  43:src/tcb.cpp   ****     }
  44:src/tcb.cpp   ****     thread_exit();
  40              		.loc 1 44 5 is_stmt 1
  41              		.loc 1 44 16 is_stmt 0
  42 0034 97000000 		call	_Z11thread_exitv@plt
  42      E7800000 
  43              	.LVL2:
  45:src/tcb.cpp   ****     /*running->body();
  46:src/tcb.cpp   ****     running->setFinished(true);
  47:src/tcb.cpp   ****     TCB::yield();*/
  48:src/tcb.cpp   **** 
  49:src/tcb.cpp   **** }
  44              		.loc 1 49 1
  45 003c 83308100 		ld	ra,8(sp)
  46              		.cfi_restore 1
  47 0040 03340100 		ld	s0,0(sp)
  48              		.cfi_restore 8
  49              		.cfi_def_cfa 2, 16
  50 0044 13010101 		addi	sp,sp,16
  51              		.cfi_def_cfa_offset 0
  52 0048 67800000 		jr	ra
  53              		.cfi_endproc
  54              	.LFE41:
  56              		.align	2
  57              		.globl	_ZN3TCBC2EPFvvEm
  59              	_ZN3TCBC2EPFvvEm:
  60              	.LFB36:
  14:src/tcb.cpp   **** stack(new uint64[STACK_SIZE]),
  61              		.loc 1 14 1 is_stmt 1
  62              		.cfi_startproc
  63              	.LVL3:
  64 004c 130101FD 		addi	sp,sp,-48
GAS LISTING /tmp/ccZJ4CeA.s 			page 3


  65              		.cfi_def_cfa_offset 48
  66 0050 23341102 		sd	ra,40(sp)
  67 0054 23308102 		sd	s0,32(sp)
  68 0058 233C9100 		sd	s1,24(sp)
  69 005c 23382101 		sd	s2,16(sp)
  70 0060 23343101 		sd	s3,8(sp)
  71              		.cfi_offset 1, -8
  72              		.cfi_offset 8, -16
  73              		.cfi_offset 9, -24
  74              		.cfi_offset 18, -32
  75              		.cfi_offset 19, -40
  76 0064 13040103 		addi	s0,sp,48
  77              		.cfi_def_cfa 8, 0
  78 0068 93040500 		mv	s1,a0
  79 006c 13890500 		mv	s2,a1
  80 0070 93090600 		mv	s3,a2
  81              	.LBB12:
  19:src/tcb.cpp   ****     if (body != nullptr) { Scheduler::put(this); }
  82              		.loc 1 19 31 is_stmt 0
  83 0074 2330B500 		sd	a1,0(a0)
  15:src/tcb.cpp   **** context({(uint64) &threadWrapper,
  84              		.loc 1 15 28
  85 0078 37250000 		li	a0,8192
  86              	.LVL4:
  87 007c 97000000 		call	_Znam@plt
  87      E7800000 
  88              	.LVL5:
  19:src/tcb.cpp   ****     if (body != nullptr) { Scheduler::put(this); }
  89              		.loc 1 19 31
  90 0084 23B4A400 		sd	a0,8(s1)
  91 0088 97070000 		lla	a5,_ZN3TCB13threadWrapperEv
  91      93870700 
  92 0090 23B8F400 		sd	a5,16(s1)
  17:src/tcb.cpp   **** timeSlice(timeSlice),
  93              		.loc 1 17 19
  94 0094 B7270000 		li	a5,8192
  95 0098 3305F500 		add	a0,a0,a5
  19:src/tcb.cpp   ****     if (body != nullptr) { Scheduler::put(this); }
  96              		.loc 1 19 31
  97 009c 23BCA400 		sd	a0,24(s1)
  98 00a0 23B03403 		sd	s3,32(s1)
  99 00a4 23840402 		sb	zero,40(s1)
 100 00a8 A3840402 		sb	zero,41(s1)
  20:src/tcb.cpp   ****     myThread = nullptr;
 101              		.loc 1 20 5 is_stmt 1
 102 00ac 63080900 		beqz	s2,.L5
  20:src/tcb.cpp   ****     myThread = nullptr;
 103              		.loc 1 20 28 discriminator 1
  20:src/tcb.cpp   ****     myThread = nullptr;
 104              		.loc 1 20 42 is_stmt 0 discriminator 1
 105 00b0 13850400 		mv	a0,s1
 106 00b4 97000000 		call	_ZN9Scheduler3putEP3TCB@plt
 106      E7800000 
 107              	.LVL6:
 108              	.L5:
  21:src/tcb.cpp   **** }
 109              		.loc 1 21 5 is_stmt 1
GAS LISTING /tmp/ccZJ4CeA.s 			page 4


  21:src/tcb.cpp   **** }
 110              		.loc 1 21 14 is_stmt 0
 111 00bc 23B80402 		sd	zero,48(s1)
 112              	.LBE12:
  22:src/tcb.cpp   **** 
 113              		.loc 1 22 1
 114 00c0 83308102 		ld	ra,40(sp)
 115              		.cfi_restore 1
 116 00c4 03340102 		ld	s0,32(sp)
 117              		.cfi_restore 8
 118              		.cfi_def_cfa 2, 48
 119 00c8 83348101 		ld	s1,24(sp)
 120              		.cfi_restore 9
 121              	.LVL7:
 122 00cc 03390101 		ld	s2,16(sp)
 123              		.cfi_restore 18
 124              	.LVL8:
 125 00d0 83398100 		ld	s3,8(sp)
 126              		.cfi_restore 19
 127              	.LVL9:
 128 00d4 13010103 		addi	sp,sp,48
 129              		.cfi_def_cfa_offset 0
 130 00d8 67800000 		jr	ra
 131              		.cfi_endproc
 132              	.LFE36:
 134              		.globl	_ZN3TCBC1EPFvvEm
 135              		.set	_ZN3TCBC1EPFvvEm,_ZN3TCBC2EPFvvEm
 136              		.align	2
 137              		.globl	_ZN3TCB12createThreadEPFvvE
 139              	_ZN3TCB12createThreadEPFvvE:
 140              	.LFB38:
  24:src/tcb.cpp   ****     return new TCB(body, TIME_SLICE);
 141              		.loc 1 24 35 is_stmt 1
 142              		.cfi_startproc
 143              		.cfi_personality 0x9b,DW.ref.__gxx_personality_v0
 144              		.cfi_lsda 0x1b,.LLSDA38
 145              	.LVL10:
 146 00dc 130101FE 		addi	sp,sp,-32
 147              		.cfi_def_cfa_offset 32
 148 00e0 233C1100 		sd	ra,24(sp)
 149 00e4 23388100 		sd	s0,16(sp)
 150 00e8 23349100 		sd	s1,8(sp)
 151 00ec 23302101 		sd	s2,0(sp)
 152              		.cfi_offset 1, -8
 153              		.cfi_offset 8, -16
 154              		.cfi_offset 9, -24
 155              		.cfi_offset 18, -32
 156 00f0 13040102 		addi	s0,sp,32
 157              		.cfi_def_cfa 8, 0
 158 00f4 13090500 		mv	s2,a0
  25:src/tcb.cpp   **** }
 159              		.loc 1 25 5
  25:src/tcb.cpp   **** }
 160              		.loc 1 25 36 is_stmt 0
 161 00f8 13058003 		li	a0,56
 162              	.LVL11:
 163              	.LEHB0:
GAS LISTING /tmp/ccZJ4CeA.s 			page 5


 164 00fc 97000000 		call	_Znwm@plt
 164      E7800000 
 165              	.LVL12:
 166              	.LEHE0:
 167 0104 93040500 		mv	s1,a0
 168 0108 13062000 		li	a2,2
 169 010c 93050900 		mv	a1,s2
 170              	.LEHB1:
 171 0110 97000000 		call	_ZN3TCBC1EPFvvEm
 171      E7800000 
 172              	.LVL13:
 173              	.LEHE1:
 174 0118 6F000002 		j	.L12
 175              	.L9:
 176 011c 13090500 		mv	s2,a0
 177              	.LVL14:
 178 0120 13850400 		mv	a0,s1
 179 0124 97000000 		call	_ZdlPv@plt
 179      E7800000 
 180              	.LVL15:
 181 012c 13050900 		mv	a0,s2
 182              	.LEHB2:
 183 0130 97000000 		call	_Unwind_Resume@plt
 183      E7800000 
 184              	.LVL16:
 185              	.LEHE2:
 186              	.L12:
  26:src/tcb.cpp   **** 
 187              		.loc 1 26 1
 188 0138 13850400 		mv	a0,s1
 189 013c 83308101 		ld	ra,24(sp)
 190              		.cfi_restore 1
 191 0140 03340101 		ld	s0,16(sp)
 192              		.cfi_restore 8
 193              		.cfi_def_cfa 2, 32
 194 0144 83348100 		ld	s1,8(sp)
 195              		.cfi_restore 9
 196 0148 03390100 		ld	s2,0(sp)
 197              		.cfi_restore 18
 198              	.LVL17:
 199 014c 13010102 		addi	sp,sp,32
 200              		.cfi_def_cfa_offset 0
 201 0150 67800000 		jr	ra
 202              		.cfi_endproc
 203              	.LFE38:
 204              		.globl	__gxx_personality_v0
 205              		.section	.gcc_except_table,"a",@progbits
 206              	.LLSDA38:
 207 0000 FF       		.byte	0xff
 208 0001 FF       		.byte	0xff
 209 0002 03       		.byte	0x3
 210 0003 27       		.byte	0x27
 211 0004 00000000 		.4byte	.LEHB0-.LFB38
 212 0008 00000000 		.4byte	.LEHE0-.LEHB0
 213 000c 00000000 		.4byte	0
 214 0010 00       		.byte	0
 215 0011 00000000 		.4byte	.LEHB1-.LFB38
GAS LISTING /tmp/ccZJ4CeA.s 			page 6


 216 0015 00000000 		.4byte	.LEHE1-.LEHB1
 217 0019 00000000 		.4byte	.L9-.LFB38
 218 001d 00       		.byte	0
 219 001e 00000000 		.4byte	.LEHB2-.LFB38
 220 0022 00000000 		.4byte	.LEHE2-.LEHB2
 221 0026 00000000 		.4byte	0
 222 002a 00       		.byte	0
 223              		.text
 225              		.align	2
 226              		.globl	_ZN3TCB5yieldEv
 228              	_ZN3TCB5yieldEv:
 229              	.LFB39:
  28:src/tcb.cpp   **** 
 230              		.loc 1 28 19 is_stmt 1
 231              		.cfi_startproc
 232 0154 130101FF 		addi	sp,sp,-16
 233              		.cfi_def_cfa_offset 16
 234 0158 23348100 		sd	s0,8(sp)
 235              		.cfi_offset 8, -8
 236 015c 13040101 		addi	s0,sp,16
 237              		.cfi_def_cfa 8, 0
  28:src/tcb.cpp   **** 
 238              		.loc 1 28 21
  28:src/tcb.cpp   **** 
 239              		.loc 1 28 47 is_stmt 0
 240              	#APP
 241              	# 28 "src/tcb.cpp" 1
  28:src/tcb.cpp   **** 
 242              		ecall
 243              	# 0 "" 2
 244              		.loc 1 28 49
 245              	#NO_APP
 246 0164 03348100 		ld	s0,8(sp)
 247              		.cfi_restore 8
 248              		.cfi_def_cfa 2, 16
 249 0168 13010101 		addi	sp,sp,16
 250              		.cfi_def_cfa_offset 0
 251 016c 67800000 		jr	ra
 252              		.cfi_endproc
 253              	.LFE39:
 255              		.align	2
 256              		.globl	_ZN3TCB8dispatchEv
 258              	_ZN3TCB8dispatchEv:
 259              	.LFB40:
  30:src/tcb.cpp   ****     TCB *old = running;
 260              		.loc 1 30 22 is_stmt 1
 261              		.cfi_startproc
 262 0170 130101FD 		addi	sp,sp,-48
 263              		.cfi_def_cfa_offset 48
 264 0174 23341102 		sd	ra,40(sp)
 265 0178 23308102 		sd	s0,32(sp)
 266 017c 233C9100 		sd	s1,24(sp)
 267 0180 23382101 		sd	s2,16(sp)
 268              		.cfi_offset 1, -8
 269              		.cfi_offset 8, -16
 270              		.cfi_offset 9, -24
 271              		.cfi_offset 18, -32
GAS LISTING /tmp/ccZJ4CeA.s 			page 7


 272 0184 13040103 		addi	s0,sp,48
 273              		.cfi_def_cfa 8, 0
  31:src/tcb.cpp   ****     uint64 sstatus = Riscv::r_sstatus();
 274              		.loc 1 31 5
  31:src/tcb.cpp   ****     uint64 sstatus = Riscv::r_sstatus();
 275              		.loc 1 31 10 is_stmt 0
 276 0188 97040000 		ld	s1,.LANCHOR0
 276      83B40400 
 277              	.LVL18:
  32:src/tcb.cpp   ****     if (!old->isBlocked() && !old->isFinished()) { Scheduler::put(old); }
 278              		.loc 1 32 5 is_stmt 1
 279              	.LBB13:
 280              	.LBB14:
 281              		.file 2 "src/../h/riscv.hpp"
   1:src/../h/riscv.hpp **** //
   2:src/../h/riscv.hpp **** // Created by os on 4/26/22.
   3:src/../h/riscv.hpp **** //
   4:src/../h/riscv.hpp **** 
   5:src/../h/riscv.hpp **** #ifndef PROJECT_BASE_V1_0_RISCV_HPP
   6:src/../h/riscv.hpp **** #define PROJECT_BASE_V1_0_RISCV_HPP
   7:src/../h/riscv.hpp **** 
   8:src/../h/riscv.hpp **** #include "../lib/hw.h"
   9:src/../h/riscv.hpp **** 
  10:src/../h/riscv.hpp **** class Riscv{
  11:src/../h/riscv.hpp **** public:
  12:src/../h/riscv.hpp **** 
  13:src/../h/riscv.hpp ****     static void popSppSpie();
  14:src/../h/riscv.hpp **** 
  15:src/../h/riscv.hpp ****     //read
  16:src/../h/riscv.hpp ****     static uint64 r_scause();
  17:src/../h/riscv.hpp **** 
  18:src/../h/riscv.hpp ****     //write
  19:src/../h/riscv.hpp ****     static void w_scause(uint64 scause);
  20:src/../h/riscv.hpp **** 
  21:src/../h/riscv.hpp ****     static uint64 r_sepc();
  22:src/../h/riscv.hpp **** 
  23:src/../h/riscv.hpp ****     static void w_sepc(uint64 sepc);
  24:src/../h/riscv.hpp **** 
  25:src/../h/riscv.hpp ****     static uint64 r_stvec();
  26:src/../h/riscv.hpp **** 
  27:src/../h/riscv.hpp ****     static void w_stvec(uint64 stvec);
  28:src/../h/riscv.hpp **** 
  29:src/../h/riscv.hpp ****     static uint64 r_stval();
  30:src/../h/riscv.hpp **** 
  31:src/../h/riscv.hpp ****     static void w_stval(uint64 stval);
  32:src/../h/riscv.hpp **** 
  33:src/../h/riscv.hpp ****     enum BitMaskSip{
  34:src/../h/riscv.hpp ****         SIP_SSIP = (1 << 1),
  35:src/../h/riscv.hpp ****         SIP_STIP = (1 << 5),
  36:src/../h/riscv.hpp ****         SIP_SEIP = (1 << 9),
  37:src/../h/riscv.hpp ****     };
  38:src/../h/riscv.hpp ****     // mask set
  39:src/../h/riscv.hpp ****     static void ms_sip(uint64 mask);
  40:src/../h/riscv.hpp ****     // mask clear
  41:src/../h/riscv.hpp ****     static void mc_sip(uint64 mask);
  42:src/../h/riscv.hpp **** 
  43:src/../h/riscv.hpp ****     static uint64 r_sip();
GAS LISTING /tmp/ccZJ4CeA.s 			page 8


  44:src/../h/riscv.hpp **** 
  45:src/../h/riscv.hpp ****     static void w_sip(uint64 sip);
  46:src/../h/riscv.hpp **** 
  47:src/../h/riscv.hpp ****     enum BitMaskSstatus{
  48:src/../h/riscv.hpp ****         SSTATUS_SIE = (1 << 1),
  49:src/../h/riscv.hpp ****         SSTATUS_SPIE = (1 << 5),
  50:src/../h/riscv.hpp ****         SSTATUS_SPP = (1 << 8),
  51:src/../h/riscv.hpp ****     };
  52:src/../h/riscv.hpp **** 
  53:src/../h/riscv.hpp ****     static void ms_sstatus(uint64 mask);
  54:src/../h/riscv.hpp **** 
  55:src/../h/riscv.hpp ****     static void mc_sstatus(uint64 mask);
  56:src/../h/riscv.hpp **** 
  57:src/../h/riscv.hpp ****     static uint64 r_sstatus();
  58:src/../h/riscv.hpp **** 
  59:src/../h/riscv.hpp ****     static void w_sstatus(uint64 sstatus);
  60:src/../h/riscv.hpp **** 
  61:src/../h/riscv.hpp ****     static void supervisorTrap();
  62:src/../h/riscv.hpp **** 
  63:src/../h/riscv.hpp **** private:
  64:src/../h/riscv.hpp ****     static void handleSupervisorTrap();
  65:src/../h/riscv.hpp **** };
  66:src/../h/riscv.hpp **** 
  67:src/../h/riscv.hpp **** inline uint64 Riscv::r_scause() {
  68:src/../h/riscv.hpp ****     uint64 volatile scause;
  69:src/../h/riscv.hpp ****     __asm__ volatile ("csrr %[scause], scause" : [scause] "=r"(scause));
  70:src/../h/riscv.hpp ****     return scause;
  71:src/../h/riscv.hpp **** }
  72:src/../h/riscv.hpp **** 
  73:src/../h/riscv.hpp **** inline void Riscv::w_scause(uint64 scause) {
  74:src/../h/riscv.hpp ****     __asm__ volatile ("csrw scause, %[scause]" : : [scause] "r"(scause));
  75:src/../h/riscv.hpp **** }
  76:src/../h/riscv.hpp **** 
  77:src/../h/riscv.hpp **** inline uint64 Riscv::r_sepc() {
  78:src/../h/riscv.hpp ****     uint64 volatile sepc;
  79:src/../h/riscv.hpp ****     __asm__ volatile ("csrr %[sepc], sepc" : [sepc] "=r"(sepc));
  80:src/../h/riscv.hpp ****     return sepc;
  81:src/../h/riscv.hpp **** }
  82:src/../h/riscv.hpp **** 
  83:src/../h/riscv.hpp **** inline void Riscv::w_sepc(uint64 sepc) {
  84:src/../h/riscv.hpp ****     __asm__ volatile ("csrw sepc, %[sepc]" : : [sepc] "r"(sepc));
  85:src/../h/riscv.hpp **** }
  86:src/../h/riscv.hpp **** 
  87:src/../h/riscv.hpp **** inline uint64 Riscv::r_stvec() {
  88:src/../h/riscv.hpp ****     uint64 volatile stvec;
  89:src/../h/riscv.hpp ****     __asm__ volatile ("csrr %[stvec], stvec" : [stvec] "=r"(stvec));
  90:src/../h/riscv.hpp ****     return stvec;
  91:src/../h/riscv.hpp **** }
  92:src/../h/riscv.hpp **** 
  93:src/../h/riscv.hpp **** inline void Riscv::w_stvec(uint64 stvec) {
  94:src/../h/riscv.hpp ****     __asm__ volatile ("csrw stvec, %[stvec]" : : [stvec] "r"(stvec));
  95:src/../h/riscv.hpp **** }
  96:src/../h/riscv.hpp **** 
  97:src/../h/riscv.hpp **** inline uint64 Riscv::r_stval() {
  98:src/../h/riscv.hpp ****     uint64 volatile stval;
  99:src/../h/riscv.hpp ****     __asm__ volatile ("csrr %[stval], stval" : [stval] "=r"(stval));
 100:src/../h/riscv.hpp ****     return stval;
GAS LISTING /tmp/ccZJ4CeA.s 			page 9


 101:src/../h/riscv.hpp **** }
 102:src/../h/riscv.hpp **** 
 103:src/../h/riscv.hpp **** inline void Riscv::w_stval(uint64 stval) {
 104:src/../h/riscv.hpp ****     __asm__ volatile ("csrw stval, %[stval]" : : [stval] "r"(stval));
 105:src/../h/riscv.hpp **** }
 106:src/../h/riscv.hpp **** 
 107:src/../h/riscv.hpp **** inline void Riscv::ms_sip(uint64 mask) {
 108:src/../h/riscv.hpp ****     __asm__ volatile ("csrs sip, %[mask]" : : [mask] "r"(mask));
 109:src/../h/riscv.hpp **** }
 110:src/../h/riscv.hpp **** 
 111:src/../h/riscv.hpp **** inline void Riscv::mc_sip(uint64 mask) {
 112:src/../h/riscv.hpp ****     __asm__ volatile ("csrc sip, %[mask]" : : [mask] "r"(mask));
 113:src/../h/riscv.hpp **** }
 114:src/../h/riscv.hpp **** 
 115:src/../h/riscv.hpp **** inline uint64 Riscv::r_sip() {
 116:src/../h/riscv.hpp ****     uint64 volatile sip;
 117:src/../h/riscv.hpp ****     __asm__ volatile ("csrr %[sip], sip" : [sip] "=r"(sip));
 118:src/../h/riscv.hpp ****     return sip;
 119:src/../h/riscv.hpp **** }
 120:src/../h/riscv.hpp **** 
 121:src/../h/riscv.hpp **** inline void Riscv::w_sip(uint64 sip) {
 122:src/../h/riscv.hpp ****     __asm__ volatile ("csrw sip, %[sip]" : : [sip] "r"(sip));
 123:src/../h/riscv.hpp **** }
 124:src/../h/riscv.hpp **** 
 125:src/../h/riscv.hpp **** inline void Riscv::ms_sstatus(uint64 mask) {
 126:src/../h/riscv.hpp ****     __asm__ volatile ("csrs sstatus, %[mask]" : : [mask] "r"(mask));
 127:src/../h/riscv.hpp **** }
 128:src/../h/riscv.hpp **** 
 129:src/../h/riscv.hpp **** inline void Riscv::mc_sstatus(uint64 mask) {
 130:src/../h/riscv.hpp ****     __asm__ volatile ("csrc sstatus, %[mask]" : : [mask] "r"(mask));
 131:src/../h/riscv.hpp **** }
 132:src/../h/riscv.hpp **** 
 133:src/../h/riscv.hpp **** inline uint64 Riscv::r_sstatus() {
 134:src/../h/riscv.hpp ****     uint64 volatile sstatus;
 282              		.loc 2 134 5
 135:src/../h/riscv.hpp ****     __asm__ volatile ("csrr %[sstatus], sstatus" : [sstatus] "=r"(sstatus));
 283              		.loc 2 135 5
 284              		.loc 2 135 76 is_stmt 0
 285              	#APP
 286              	# 135 "src/../h/riscv.hpp" 1
 136              	    return sstatus;
 287              		csrr a5, sstatus
 288              	# 0 "" 2
 289              	#NO_APP
 290 0194 233CF4FC 		sd	a5,-40(s0)
 291              		.loc 2 136 5 is_stmt 1
 292              		.loc 2 136 12 is_stmt 0
 293 0198 033984FD 		ld	s2,-40(s0)
 294              	.LVL19:
 295              	.LBE14:
 296              	.LBE13:
  33:src/tcb.cpp   ****     running = Scheduler::get();
 297              		.loc 1 33 5 is_stmt 1
 298              	.LBB15:
 299              	.LBB16:
 300              		.file 3 "src/../h/tcb.hpp"
   1:src/../h/tcb.hpp **** //
GAS LISTING /tmp/ccZJ4CeA.s 			page 10


   2:src/../h/tcb.hpp **** // Created by os on 4/26/22.
   3:src/../h/tcb.hpp **** //
   4:src/../h/tcb.hpp **** 
   5:src/../h/tcb.hpp **** #ifndef PROJECT_BASE_V1_0_TCB_HPP
   6:src/../h/tcb.hpp **** #define PROJECT_BASE_V1_0_TCB_HPP
   7:src/../h/tcb.hpp **** 
   8:src/../h/tcb.hpp **** #include "../lib/hw.h"
   9:src/../h/tcb.hpp **** #include "../h/syscall_cpp.hpp"
  10:src/../h/tcb.hpp **** 
  11:src/../h/tcb.hpp **** class Thread;
  12:src/../h/tcb.hpp **** 
  13:src/../h/tcb.hpp **** class TCB {
  14:src/../h/tcb.hpp ****         public:
  15:src/../h/tcb.hpp ****         ~TCB() { delete[] stack; }
  16:src/../h/tcb.hpp ****         bool isFinished() const { return finished; }
  17:src/../h/tcb.hpp ****         void setFinished(bool value) { finished = value; }
  18:src/../h/tcb.hpp ****         uint64 getTimeSlice() const { return timeSlice; }
  19:src/../h/tcb.hpp ****         using Body = void (*)();
  20:src/../h/tcb.hpp ****         static TCB *createThread(Body body);
  21:src/../h/tcb.hpp ****         static void yield();
  22:src/../h/tcb.hpp ****         static TCB *running;
  23:src/../h/tcb.hpp **** 
  24:src/../h/tcb.hpp ****         bool checkBody();
  25:src/../h/tcb.hpp ****         bool isBlocked() const { return blocked; }
 301              		.loc 3 25 34
 302              		.loc 3 25 41 is_stmt 0
 303 019c 83C79402 		lbu	a5,41(s1)
 304              	.LVL20:
 305              	.LBE16:
 306              	.LBE15:
  33:src/tcb.cpp   ****     running = Scheduler::get();
 307              		.loc 1 33 27
 308 01a0 63960700 		bnez	a5,.L16
 309              	.LVL21:
 310              	.LBB17:
 311              	.LBB18:
  16:src/../h/tcb.hpp ****         void setFinished(bool value) { finished = value; }
 312              		.loc 3 16 35 is_stmt 1
  16:src/../h/tcb.hpp ****         void setFinished(bool value) { finished = value; }
 313              		.loc 3 16 42 is_stmt 0
 314 01a4 83C78402 		lbu	a5,40(s1)
 315              	.LVL22:
 316              	.LBE18:
 317              	.LBE17:
  33:src/tcb.cpp   ****     running = Scheduler::get();
 318              		.loc 1 33 27
 319 01a8 63800704 		beqz	a5,.L18
 320              	.L16:
  34:src/tcb.cpp   ****     Riscv::w_sstatus(sstatus);
 321              		.loc 1 34 5 is_stmt 1
  34:src/tcb.cpp   ****     Riscv::w_sstatus(sstatus);
 322              		.loc 1 34 29 is_stmt 0
 323 01ac 97000000 		call	_ZN9Scheduler3getEv@plt
 323      E7800000 
 324              	.LVL23:
  34:src/tcb.cpp   ****     Riscv::w_sstatus(sstatus);
 325              		.loc 1 34 13
GAS LISTING /tmp/ccZJ4CeA.s 			page 11


 326 01b4 97070000 		sd	a0,.LANCHOR0,a5
 326      23B0A700 
  35:src/tcb.cpp   ****     TCB::contextSwitch(&old->context, &running->context);
 327              		.loc 1 35 5 is_stmt 1
 328              	.LVL24:
 329              	.LBB19:
 330              	.LBB20:
 137:src/../h/riscv.hpp **** }
 138:src/../h/riscv.hpp **** inline void Riscv::w_sstatus(uint64 sstatus) {
 139:src/../h/riscv.hpp ****     __asm__ volatile ("csrw sstatus, %[sstatus]" : : [sstatus] "r"(sstatus));
 331              		.loc 2 139 5
 332              		.loc 2 139 77 is_stmt 0
 333              	#APP
 334              	# 139 "src/../h/riscv.hpp" 1
 140              	}
 335              		csrw sstatus, s2
 336              	# 0 "" 2
 337              	.LVL25:
 338              	#NO_APP
 339              	.LBE20:
 340              	.LBE19:
  36:src/tcb.cpp   **** }
 341              		.loc 1 36 5 is_stmt 1
  36:src/tcb.cpp   **** }
 342              		.loc 1 36 23 is_stmt 0
 343 01c0 93050501 		addi	a1,a0,16
 344 01c4 13850401 		addi	a0,s1,16
 345 01c8 97000000 		call	_ZN3TCB13contextSwitchEPNS_7ContextES1_@plt
 345      E7800000 
 346              	.LVL26:
  37:src/tcb.cpp   **** 
 347              		.loc 1 37 1
 348 01d0 83308102 		ld	ra,40(sp)
 349              		.cfi_remember_state
 350              		.cfi_restore 1
 351 01d4 03340102 		ld	s0,32(sp)
 352              		.cfi_restore 8
 353              		.cfi_def_cfa 2, 48
 354 01d8 83348101 		ld	s1,24(sp)
 355              		.cfi_restore 9
 356              	.LVL27:
 357 01dc 03390101 		ld	s2,16(sp)
 358              		.cfi_restore 18
 359              	.LVL28:
 360 01e0 13010103 		addi	sp,sp,48
 361              		.cfi_def_cfa_offset 0
 362 01e4 67800000 		jr	ra
 363              	.LVL29:
 364              	.L18:
 365              		.cfi_restore_state
  33:src/tcb.cpp   ****     running = Scheduler::get();
 366              		.loc 1 33 52 is_stmt 1
  33:src/tcb.cpp   ****     running = Scheduler::get();
 367              		.loc 1 33 66 is_stmt 0
 368 01e8 13850400 		mv	a0,s1
 369 01ec 97000000 		call	_ZN9Scheduler3putEP3TCB@plt
 369      E7800000 
GAS LISTING /tmp/ccZJ4CeA.s 			page 12


 370              	.LVL30:
 371 01f4 6FF09FFB 		j	.L16
 372              		.cfi_endproc
 373              	.LFE40:
 375              		.section	.rodata.str1.8,"aMS",@progbits,1
 376              		.align	3
 377              	.LC0:
 378 0000 496D616D 		.string	"Imam body.\n"
 378      20626F64 
 378      792E0A00 
 379 000c 00000000 		.align	3
 380              	.LC1:
 381 0010 4E656D61 		.string	"Nemam body.\n"
 381      6D20626F 
 381      64792E0A 
 381      00
 382              		.text
 383              		.align	2
 384              		.globl	_ZN3TCB9checkBodyEv
 386              	_ZN3TCB9checkBodyEv:
 387              	.LFB42:
  50:src/tcb.cpp   **** 
  51:src/tcb.cpp   **** bool TCB::checkBody() {
 388              		.loc 1 51 23 is_stmt 1
 389              		.cfi_startproc
 390              	.LVL31:
 391 01f8 130101FF 		addi	sp,sp,-16
 392              		.cfi_def_cfa_offset 16
 393 01fc 23341100 		sd	ra,8(sp)
 394 0200 23308100 		sd	s0,0(sp)
 395              		.cfi_offset 1, -8
 396              		.cfi_offset 8, -16
 397 0204 13040101 		addi	s0,sp,16
 398              		.cfi_def_cfa 8, 0
  52:src/tcb.cpp   ****     if(this->body != nullptr){
 399              		.loc 1 52 5
 400              		.loc 1 52 14 is_stmt 0
 401 0208 83370500 		ld	a5,0(a0)
 402              		.loc 1 52 5
 403 020c 63840702 		beqz	a5,.L20
  53:src/tcb.cpp   ****         printString("Imam body.\n");
 404              		.loc 1 53 9 is_stmt 1
 405              		.loc 1 53 20 is_stmt 0
 406 0210 17050000 		lla	a0,.LC0
 406      13050500 
 407              	.LVL32:
 408 0218 97000000 		call	_Z11printStringPKc@plt
 408      E7800000 
 409              	.LVL33:
  54:src/tcb.cpp   ****         return true;
 410              		.loc 1 54 9 is_stmt 1
 411              		.loc 1 54 16 is_stmt 0
 412 0220 13051000 		li	a0,1
 413              	.L21:
  55:src/tcb.cpp   ****     }else{
  56:src/tcb.cpp   ****         printString("Nemam body.\n");
  57:src/tcb.cpp   ****         return false;
GAS LISTING /tmp/ccZJ4CeA.s 			page 13


  58:src/tcb.cpp   ****     }
  59:src/tcb.cpp   **** }
 414              		.loc 1 59 1
 415 0224 83308100 		ld	ra,8(sp)
 416              		.cfi_remember_state
 417              		.cfi_restore 1
 418 0228 03340100 		ld	s0,0(sp)
 419              		.cfi_restore 8
 420              		.cfi_def_cfa 2, 16
 421 022c 13010101 		addi	sp,sp,16
 422              		.cfi_def_cfa_offset 0
 423 0230 67800000 		jr	ra
 424              	.LVL34:
 425              	.L20:
 426              		.cfi_restore_state
  56:src/tcb.cpp   ****         return false;
 427              		.loc 1 56 9 is_stmt 1
  56:src/tcb.cpp   ****         return false;
 428              		.loc 1 56 20 is_stmt 0
 429 0234 17050000 		lla	a0,.LC1
 429      13050500 
 430              	.LVL35:
 431 023c 97000000 		call	_Z11printStringPKc@plt
 431      E7800000 
 432              	.LVL36:
  57:src/tcb.cpp   ****     }
 433              		.loc 1 57 9 is_stmt 1
  57:src/tcb.cpp   ****     }
 434              		.loc 1 57 16 is_stmt 0
 435 0244 13050000 		li	a0,0
 436 0248 6FF0DFFD 		j	.L21
 437              		.cfi_endproc
 438              	.LFE42:
 440              		.align	2
 441              		.globl	_ZN3TCB7setBodyEPFvvE
 443              	_ZN3TCB7setBodyEPFvvE:
 444              	.LFB43:
  60:src/tcb.cpp   **** 
  61:src/tcb.cpp   **** void TCB::setBody(TCB::Body body) {
 445              		.loc 1 61 35 is_stmt 1
 446              		.cfi_startproc
 447              	.LVL37:
 448 024c 130101FF 		addi	sp,sp,-16
 449              		.cfi_def_cfa_offset 16
 450 0250 23348100 		sd	s0,8(sp)
 451              		.cfi_offset 8, -8
 452 0254 13040101 		addi	s0,sp,16
 453              		.cfi_def_cfa 8, 0
  62:src/tcb.cpp   ****     this->body = body;
 454              		.loc 1 62 5
 455              		.loc 1 62 16 is_stmt 0
 456 0258 2330B500 		sd	a1,0(a0)
  63:src/tcb.cpp   **** }
 457              		.loc 1 63 1
 458 025c 03348100 		ld	s0,8(sp)
 459              		.cfi_restore 8
 460              		.cfi_def_cfa 2, 16
GAS LISTING /tmp/ccZJ4CeA.s 			page 14


 461 0260 13010101 		addi	sp,sp,16
 462              		.cfi_def_cfa_offset 0
 463 0264 67800000 		jr	ra
 464              		.cfi_endproc
 465              	.LFE43:
 467              		.align	2
 468              		.globl	_ZN3TCB7exitTCBEv
 470              	_ZN3TCB7exitTCBEv:
 471              	.LFB44:
  64:src/tcb.cpp   **** 
  65:src/tcb.cpp   **** void TCB::exitTCB() {
 472              		.loc 1 65 21 is_stmt 1
 473              		.cfi_startproc
 474 0268 130101FF 		addi	sp,sp,-16
 475              		.cfi_def_cfa_offset 16
 476 026c 23341100 		sd	ra,8(sp)
 477 0270 23308100 		sd	s0,0(sp)
 478              		.cfi_offset 1, -8
 479              		.cfi_offset 8, -16
 480 0274 13040101 		addi	s0,sp,16
 481              		.cfi_def_cfa 8, 0
  66:src/tcb.cpp   ****     running->setFinished(true);
 482              		.loc 1 66 5
 483              	.LVL38:
 484              	.LBB21:
 485              	.LBB22:
  17:src/../h/tcb.hpp ****         uint64 getTimeSlice() const { return timeSlice; }
 486              		.loc 3 17 40
  17:src/../h/tcb.hpp ****         uint64 getTimeSlice() const { return timeSlice; }
 487              		.loc 3 17 49 is_stmt 0
 488 0278 97070000 		ld	a5,.LANCHOR0
 488      83B70700 
 489 0280 13071000 		li	a4,1
 490 0284 2384E702 		sb	a4,40(a5)
 491              	.LVL39:
 492              	.LBE22:
 493              	.LBE21:
  67:src/tcb.cpp   ****     thread_dispatch();
 494              		.loc 1 67 5 is_stmt 1
 495              		.loc 1 67 20 is_stmt 0
 496 0288 97000000 		call	_Z15thread_dispatchv@plt
 496      E7800000 
 497              	.LVL40:
  68:src/tcb.cpp   **** }
 498              		.loc 1 68 1
 499 0290 83308100 		ld	ra,8(sp)
 500              		.cfi_restore 1
 501 0294 03340100 		ld	s0,0(sp)
 502              		.cfi_restore 8
 503              		.cfi_def_cfa 2, 16
 504 0298 13010101 		addi	sp,sp,16
 505              		.cfi_def_cfa_offset 0
 506 029c 67800000 		jr	ra
 507              		.cfi_endproc
 508              	.LFE44:
 510              		.globl	_ZN3TCB16timeSliceCounterE
 511              		.globl	_ZN3TCB7runningE
GAS LISTING /tmp/ccZJ4CeA.s 			page 15


 512              		.bss
 513              		.align	3
 514              		.set	.LANCHOR0,. + 0
 517              	_ZN3TCB7runningE:
 518 0000 00000000 		.zero	8
 518      00000000 
 521              	_ZN3TCB16timeSliceCounterE:
 522 0008 00000000 		.zero	8
 522      00000000 
 523              		.text
 524              	.Letext0:
 525              		.file 4 "src/../h/../lib/hw.h"
 526              		.file 5 "src/../h/../h/list.hpp"
 527              		.file 6 "src/../h/scheduler.hpp"
 528              		.file 7 "src/../h/../h/syscall_c.hpp"
 529              		.file 8 "src/../h/printing.hpp"
 3463              		.align	3
 3466              	DW.ref.__gxx_personality_v0:
 3467 0000 00000000 		.dword	__gxx_personality_v0
 3467      00000000 
 3468              		.ident	"GCC: (Ubuntu 9.4.0-1ubuntu1~20.04) 9.4.0"
 3469              		.section	.note.GNU-stack,"",@progbits
GAS LISTING /tmp/ccZJ4CeA.s 			page 16


DEFINED SYMBOLS
                            *ABS*:0000000000000000 tcb.cpp
     /tmp/ccZJ4CeA.s:9      .text:0000000000000000 _ZN3TCB13threadWrapperEv
     /tmp/ccZJ4CeA.s:13     .text:0000000000000000 .L0 
     /tmp/ccZJ4CeA.s:14     .text:0000000000000000 .L0 
     /tmp/ccZJ4CeA.s:15     .text:0000000000000004 .L0 
     /tmp/ccZJ4CeA.s:18     .text:000000000000000c .L0 
     /tmp/ccZJ4CeA.s:19     .text:000000000000000c .L0 
     /tmp/ccZJ4CeA.s:21     .text:0000000000000010 .L0 
     /tmp/ccZJ4CeA.s:23     .text:0000000000000010 .L0 
     /tmp/ccZJ4CeA.s:24     .text:0000000000000010 .L0 
     /tmp/ccZJ4CeA.s:27     .text:0000000000000018 .L0 
     /tmp/ccZJ4CeA.s:28     .text:0000000000000018 .L0 
     /tmp/ccZJ4CeA.s:31     .text:0000000000000024 .L0 
     /tmp/ccZJ4CeA.s:33     .text:0000000000000028 .L0 
     /tmp/ccZJ4CeA.s:34     .text:0000000000000028 .L0 
     /tmp/ccZJ4CeA.s:37     .text:0000000000000030 .L0 
     /tmp/ccZJ4CeA.s:41     .text:0000000000000034 .L0 
     /tmp/ccZJ4CeA.s:42     .text:0000000000000034 .L0 
     /tmp/ccZJ4CeA.s:45     .text:000000000000003c .L0 
     /tmp/ccZJ4CeA.s:46     .text:0000000000000040 .L0 
     /tmp/ccZJ4CeA.s:48     .text:0000000000000044 .L0 
     /tmp/ccZJ4CeA.s:49     .text:0000000000000044 .L0 
     /tmp/ccZJ4CeA.s:51     .text:0000000000000048 .L0 
     /tmp/ccZJ4CeA.s:53     .text:000000000000004c .L0 
     /tmp/ccZJ4CeA.s:59     .text:000000000000004c _ZN3TCBC2EPFvvEm
     /tmp/ccZJ4CeA.s:62     .text:000000000000004c .L0 
     /tmp/ccZJ4CeA.s:64     .text:000000000000004c .L0 
     /tmp/ccZJ4CeA.s:65     .text:0000000000000050 .L0 
     /tmp/ccZJ4CeA.s:71     .text:0000000000000064 .L0 
     /tmp/ccZJ4CeA.s:72     .text:0000000000000064 .L0 
     /tmp/ccZJ4CeA.s:73     .text:0000000000000064 .L0 
     /tmp/ccZJ4CeA.s:74     .text:0000000000000064 .L0 
     /tmp/ccZJ4CeA.s:75     .text:0000000000000064 .L0 
     /tmp/ccZJ4CeA.s:77     .text:0000000000000068 .L0 
     /tmp/ccZJ4CeA.s:83     .text:0000000000000074 .L0 
     /tmp/ccZJ4CeA.s:85     .text:0000000000000078 .L0 
     /tmp/ccZJ4CeA.s:90     .text:0000000000000084 .L0 
     /tmp/ccZJ4CeA.s:94     .text:0000000000000094 .L0 
     /tmp/ccZJ4CeA.s:97     .text:000000000000009c .L0 
     /tmp/ccZJ4CeA.s:102    .text:00000000000000ac .L0 
     /tmp/ccZJ4CeA.s:104    .text:00000000000000b0 .L0 
     /tmp/ccZJ4CeA.s:105    .text:00000000000000b0 .L0 
     /tmp/ccZJ4CeA.s:110    .text:00000000000000bc .L0 
     /tmp/ccZJ4CeA.s:111    .text:00000000000000bc .L0 
     /tmp/ccZJ4CeA.s:114    .text:00000000000000c0 .L0 
     /tmp/ccZJ4CeA.s:115    .text:00000000000000c4 .L0 
     /tmp/ccZJ4CeA.s:117    .text:00000000000000c8 .L0 
     /tmp/ccZJ4CeA.s:118    .text:00000000000000c8 .L0 
     /tmp/ccZJ4CeA.s:120    .text:00000000000000cc .L0 
     /tmp/ccZJ4CeA.s:123    .text:00000000000000d0 .L0 
     /tmp/ccZJ4CeA.s:126    .text:00000000000000d4 .L0 
     /tmp/ccZJ4CeA.s:129    .text:00000000000000d8 .L0 
     /tmp/ccZJ4CeA.s:131    .text:00000000000000dc .L0 
     /tmp/ccZJ4CeA.s:59     .text:000000000000004c _ZN3TCBC1EPFvvEm
     /tmp/ccZJ4CeA.s:139    .text:00000000000000dc _ZN3TCB12createThreadEPFvvE
     /tmp/ccZJ4CeA.s:142    .text:00000000000000dc .L0 
GAS LISTING /tmp/ccZJ4CeA.s 			page 17


     /tmp/ccZJ4CeA.s:3466   .data.rel.local.DW.ref.__gxx_personality_v0:0000000000000000 DW.ref.__gxx_personality_v0
     /tmp/ccZJ4CeA.s:146    .text:00000000000000dc .L0 
     /tmp/ccZJ4CeA.s:147    .text:00000000000000e0 .L0 
     /tmp/ccZJ4CeA.s:152    .text:00000000000000f0 .L0 
     /tmp/ccZJ4CeA.s:153    .text:00000000000000f0 .L0 
     /tmp/ccZJ4CeA.s:154    .text:00000000000000f0 .L0 
     /tmp/ccZJ4CeA.s:155    .text:00000000000000f0 .L0 
     /tmp/ccZJ4CeA.s:157    .text:00000000000000f4 .L0 
     /tmp/ccZJ4CeA.s:160    .text:00000000000000f8 .L0 
     /tmp/ccZJ4CeA.s:161    .text:00000000000000f8 .L0 
     /tmp/ccZJ4CeA.s:188    .text:0000000000000138 .L0 
     /tmp/ccZJ4CeA.s:190    .text:0000000000000140 .L0 
     /tmp/ccZJ4CeA.s:192    .text:0000000000000144 .L0 
     /tmp/ccZJ4CeA.s:193    .text:0000000000000144 .L0 
     /tmp/ccZJ4CeA.s:195    .text:0000000000000148 .L0 
     /tmp/ccZJ4CeA.s:197    .text:000000000000014c .L0 
     /tmp/ccZJ4CeA.s:200    .text:0000000000000150 .L0 
     /tmp/ccZJ4CeA.s:202    .text:0000000000000154 .L0 
     /tmp/ccZJ4CeA.s:228    .text:0000000000000154 _ZN3TCB5yieldEv
     /tmp/ccZJ4CeA.s:231    .text:0000000000000154 .L0 
     /tmp/ccZJ4CeA.s:232    .text:0000000000000154 .L0 
     /tmp/ccZJ4CeA.s:233    .text:0000000000000158 .L0 
     /tmp/ccZJ4CeA.s:235    .text:000000000000015c .L0 
     /tmp/ccZJ4CeA.s:237    .text:0000000000000160 .L0 
     /tmp/ccZJ4CeA.s:239    .text:0000000000000160 .L0 
         src/tcb.cpp:28     .text:0000000000000160 .L0 
     /tmp/ccZJ4CeA.s:246    .text:0000000000000164 .L0 
     /tmp/ccZJ4CeA.s:247    .text:0000000000000168 .L0 
     /tmp/ccZJ4CeA.s:248    .text:0000000000000168 .L0 
     /tmp/ccZJ4CeA.s:250    .text:000000000000016c .L0 
     /tmp/ccZJ4CeA.s:252    .text:0000000000000170 .L0 
     /tmp/ccZJ4CeA.s:258    .text:0000000000000170 _ZN3TCB8dispatchEv
     /tmp/ccZJ4CeA.s:261    .text:0000000000000170 .L0 
     /tmp/ccZJ4CeA.s:262    .text:0000000000000170 .L0 
     /tmp/ccZJ4CeA.s:263    .text:0000000000000174 .L0 
     /tmp/ccZJ4CeA.s:268    .text:0000000000000184 .L0 
     /tmp/ccZJ4CeA.s:269    .text:0000000000000184 .L0 
     /tmp/ccZJ4CeA.s:270    .text:0000000000000184 .L0 
     /tmp/ccZJ4CeA.s:271    .text:0000000000000184 .L0 
     /tmp/ccZJ4CeA.s:273    .text:0000000000000188 .L0 
     /tmp/ccZJ4CeA.s:275    .text:0000000000000188 .L0 
     /tmp/ccZJ4CeA.s:276    .text:0000000000000188 .L0 
     /tmp/ccZJ4CeA.s:282    .text:0000000000000190 .L0 
     /tmp/ccZJ4CeA.s:283    .text:0000000000000190 .L0 
     /tmp/ccZJ4CeA.s:284    .text:0000000000000190 .L0 
  src/../h/riscv.hpp:135    .text:0000000000000190 .L0 
     /tmp/ccZJ4CeA.s:292    .text:0000000000000198 .L0 
     /tmp/ccZJ4CeA.s:293    .text:0000000000000198 .L0 
     /tmp/ccZJ4CeA.s:301    .text:000000000000019c .L0 
     /tmp/ccZJ4CeA.s:302    .text:000000000000019c .L0 
     /tmp/ccZJ4CeA.s:303    .text:000000000000019c .L0 
     /tmp/ccZJ4CeA.s:308    .text:00000000000001a0 .L0 
     /tmp/ccZJ4CeA.s:313    .text:00000000000001a4 .L0 
     /tmp/ccZJ4CeA.s:314    .text:00000000000001a4 .L0 
     /tmp/ccZJ4CeA.s:319    .text:00000000000001a8 .L0 
     /tmp/ccZJ4CeA.s:322    .text:00000000000001ac .L0 
     /tmp/ccZJ4CeA.s:323    .text:00000000000001ac .L0 
GAS LISTING /tmp/ccZJ4CeA.s 			page 18


     /tmp/ccZJ4CeA.s:326    .text:00000000000001b4 .L0 
     /tmp/ccZJ4CeA.s:331    .text:00000000000001bc .L0 
     /tmp/ccZJ4CeA.s:332    .text:00000000000001bc .L0 
  src/../h/riscv.hpp:139    .text:00000000000001bc .L0 
     /tmp/ccZJ4CeA.s:342    .text:00000000000001c0 .L0 
     /tmp/ccZJ4CeA.s:343    .text:00000000000001c0 .L0 
     /tmp/ccZJ4CeA.s:348    .text:00000000000001d0 .L0 
     /tmp/ccZJ4CeA.s:349    .text:00000000000001d4 .L0 
     /tmp/ccZJ4CeA.s:350    .text:00000000000001d4 .L0 
     /tmp/ccZJ4CeA.s:352    .text:00000000000001d8 .L0 
     /tmp/ccZJ4CeA.s:353    .text:00000000000001d8 .L0 
     /tmp/ccZJ4CeA.s:355    .text:00000000000001dc .L0 
     /tmp/ccZJ4CeA.s:358    .text:00000000000001e0 .L0 
     /tmp/ccZJ4CeA.s:361    .text:00000000000001e4 .L0 
     /tmp/ccZJ4CeA.s:365    .text:00000000000001e8 .L0 
     /tmp/ccZJ4CeA.s:367    .text:00000000000001e8 .L0 
     /tmp/ccZJ4CeA.s:368    .text:00000000000001e8 .L0 
     /tmp/ccZJ4CeA.s:372    .text:00000000000001f8 .L0 
     /tmp/ccZJ4CeA.s:386    .text:00000000000001f8 _ZN3TCB9checkBodyEv
     /tmp/ccZJ4CeA.s:389    .text:00000000000001f8 .L0 
     /tmp/ccZJ4CeA.s:391    .text:00000000000001f8 .L0 
     /tmp/ccZJ4CeA.s:392    .text:00000000000001fc .L0 
     /tmp/ccZJ4CeA.s:395    .text:0000000000000204 .L0 
     /tmp/ccZJ4CeA.s:396    .text:0000000000000204 .L0 
     /tmp/ccZJ4CeA.s:398    .text:0000000000000208 .L0 
     /tmp/ccZJ4CeA.s:400    .text:0000000000000208 .L0 
     /tmp/ccZJ4CeA.s:401    .text:0000000000000208 .L0 
     /tmp/ccZJ4CeA.s:403    .text:000000000000020c .L0 
     /tmp/ccZJ4CeA.s:405    .text:0000000000000210 .L0 
     /tmp/ccZJ4CeA.s:406    .text:0000000000000210 .L0 
     /tmp/ccZJ4CeA.s:411    .text:0000000000000220 .L0 
     /tmp/ccZJ4CeA.s:412    .text:0000000000000220 .L0 
     /tmp/ccZJ4CeA.s:415    .text:0000000000000224 .L0 
     /tmp/ccZJ4CeA.s:416    .text:0000000000000228 .L0 
     /tmp/ccZJ4CeA.s:417    .text:0000000000000228 .L0 
     /tmp/ccZJ4CeA.s:419    .text:000000000000022c .L0 
     /tmp/ccZJ4CeA.s:420    .text:000000000000022c .L0 
     /tmp/ccZJ4CeA.s:422    .text:0000000000000230 .L0 
     /tmp/ccZJ4CeA.s:426    .text:0000000000000234 .L0 
     /tmp/ccZJ4CeA.s:428    .text:0000000000000234 .L0 
     /tmp/ccZJ4CeA.s:429    .text:0000000000000234 .L0 
     /tmp/ccZJ4CeA.s:434    .text:0000000000000244 .L0 
     /tmp/ccZJ4CeA.s:435    .text:0000000000000244 .L0 
     /tmp/ccZJ4CeA.s:437    .text:000000000000024c .L0 
     /tmp/ccZJ4CeA.s:443    .text:000000000000024c _ZN3TCB7setBodyEPFvvE
     /tmp/ccZJ4CeA.s:446    .text:000000000000024c .L0 
     /tmp/ccZJ4CeA.s:448    .text:000000000000024c .L0 
     /tmp/ccZJ4CeA.s:449    .text:0000000000000250 .L0 
     /tmp/ccZJ4CeA.s:451    .text:0000000000000254 .L0 
     /tmp/ccZJ4CeA.s:453    .text:0000000000000258 .L0 
     /tmp/ccZJ4CeA.s:455    .text:0000000000000258 .L0 
     /tmp/ccZJ4CeA.s:456    .text:0000000000000258 .L0 
     /tmp/ccZJ4CeA.s:458    .text:000000000000025c .L0 
     /tmp/ccZJ4CeA.s:459    .text:0000000000000260 .L0 
     /tmp/ccZJ4CeA.s:460    .text:0000000000000260 .L0 
     /tmp/ccZJ4CeA.s:462    .text:0000000000000264 .L0 
     /tmp/ccZJ4CeA.s:464    .text:0000000000000268 .L0 
GAS LISTING /tmp/ccZJ4CeA.s 			page 19


     /tmp/ccZJ4CeA.s:470    .text:0000000000000268 _ZN3TCB7exitTCBEv
     /tmp/ccZJ4CeA.s:473    .text:0000000000000268 .L0 
     /tmp/ccZJ4CeA.s:474    .text:0000000000000268 .L0 
     /tmp/ccZJ4CeA.s:475    .text:000000000000026c .L0 
     /tmp/ccZJ4CeA.s:478    .text:0000000000000274 .L0 
     /tmp/ccZJ4CeA.s:479    .text:0000000000000274 .L0 
     /tmp/ccZJ4CeA.s:481    .text:0000000000000278 .L0 
     /tmp/ccZJ4CeA.s:486    .text:0000000000000278 .L0 
     /tmp/ccZJ4CeA.s:487    .text:0000000000000278 .L0 
     /tmp/ccZJ4CeA.s:488    .text:0000000000000278 .L0 
     /tmp/ccZJ4CeA.s:495    .text:0000000000000288 .L0 
     /tmp/ccZJ4CeA.s:496    .text:0000000000000288 .L0 
     /tmp/ccZJ4CeA.s:499    .text:0000000000000290 .L0 
     /tmp/ccZJ4CeA.s:500    .text:0000000000000294 .L0 
     /tmp/ccZJ4CeA.s:502    .text:0000000000000298 .L0 
     /tmp/ccZJ4CeA.s:503    .text:0000000000000298 .L0 
     /tmp/ccZJ4CeA.s:505    .text:000000000000029c .L0 
     /tmp/ccZJ4CeA.s:507    .text:00000000000002a0 .L0 
     /tmp/ccZJ4CeA.s:521    .bss:0000000000000008 _ZN3TCB16timeSliceCounterE
     /tmp/ccZJ4CeA.s:517    .bss:0000000000000000 _ZN3TCB7runningE
     /tmp/ccZJ4CeA.s:514    .bss:0000000000000000 .LANCHOR0
     /tmp/ccZJ4CeA.s:530    .text:00000000000002a0 .L0 
     /tmp/ccZJ4CeA.s:28     .text:0000000000000018 .L0 
     /tmp/ccZJ4CeA.s:91     .text:0000000000000088 .L0 
     /tmp/ccZJ4CeA.s:276    .text:0000000000000188 .L0 
     /tmp/ccZJ4CeA.s:326    .text:00000000000001b4 .L0 
     /tmp/ccZJ4CeA.s:377    .rodata.str1.8:0000000000000000 .LC0
     /tmp/ccZJ4CeA.s:406    .text:0000000000000210 .L0 
     /tmp/ccZJ4CeA.s:380    .rodata.str1.8:0000000000000010 .LC1
     /tmp/ccZJ4CeA.s:429    .text:0000000000000234 .L0 
     /tmp/ccZJ4CeA.s:488    .text:0000000000000278 .L0 
     /tmp/ccZJ4CeA.s:39     .text:0000000000000034 .L2
     /tmp/ccZJ4CeA.s:108    .text:00000000000000bc .L5
     /tmp/ccZJ4CeA.s:186    .text:0000000000000138 .L12
     /tmp/ccZJ4CeA.s:320    .text:00000000000001ac .L16
     /tmp/ccZJ4CeA.s:364    .text:00000000000001e8 .L18
     /tmp/ccZJ4CeA.s:425    .text:0000000000000234 .L20
     /tmp/ccZJ4CeA.s:413    .text:0000000000000224 .L21
     /tmp/ccZJ4CeA.s:163    .text:00000000000000fc .LEHB0
     /tmp/ccZJ4CeA.s:140    .text:00000000000000dc .LFB38
     /tmp/ccZJ4CeA.s:166    .text:0000000000000104 .LEHE0
     /tmp/ccZJ4CeA.s:170    .text:0000000000000110 .LEHB1
     /tmp/ccZJ4CeA.s:173    .text:0000000000000118 .LEHE1
     /tmp/ccZJ4CeA.s:175    .text:000000000000011c .L9
     /tmp/ccZJ4CeA.s:182    .text:0000000000000130 .LEHB2
     /tmp/ccZJ4CeA.s:185    .text:0000000000000138 .LEHE2
     /tmp/ccZJ4CeA.s:1838   .debug_abbrev:0000000000000000 .Ldebug_abbrev0
     /tmp/ccZJ4CeA.s:3410   .debug_str:0000000000000740 .LASF136
     /tmp/ccZJ4CeA.s:3316   .debug_str:0000000000000495 .LASF137
     /tmp/ccZJ4CeA.s:3394   .debug_str:00000000000006b3 .LASF138
     /tmp/ccZJ4CeA.s:5      .text:0000000000000000 .Ltext0
     /tmp/ccZJ4CeA.s:524    .text:00000000000002a0 .Letext0
     /tmp/ccZJ4CeA.s:3156   .debug_line:0000000000000000 .Ldebug_line0
     /tmp/ccZJ4CeA.s:3334   .debug_str:00000000000004fe .LASF0
     /tmp/ccZJ4CeA.s:3346   .debug_str:0000000000000536 .LASF1
     /tmp/ccZJ4CeA.s:3320   .debug_str:00000000000004a8 .LASF2
     /tmp/ccZJ4CeA.s:3284   .debug_str:00000000000003bd .LASF4
GAS LISTING /tmp/ccZJ4CeA.s 			page 20


     /tmp/ccZJ4CeA.s:3386   .debug_str:000000000000067e .LASF3
     /tmp/ccZJ4CeA.s:3192   .debug_str:00000000000000f2 .LASF5
     /tmp/ccZJ4CeA.s:3350   .debug_str:000000000000055a .LASF6
     /tmp/ccZJ4CeA.s:3332   .debug_str:00000000000004eb .LASF7
     /tmp/ccZJ4CeA.s:3428   .debug_str:0000000000000869 .LASF8
     /tmp/ccZJ4CeA.s:3262   .debug_str:00000000000002f4 .LASF9
     /tmp/ccZJ4CeA.s:3360   .debug_str:00000000000005a8 .LASF10
     /tmp/ccZJ4CeA.s:3414   .debug_str:0000000000000810 .LASF11
     /tmp/ccZJ4CeA.s:3198   .debug_str:000000000000010c .LASF12
     /tmp/ccZJ4CeA.s:3166   .debug_str:0000000000000038 .LASF13
     /tmp/ccZJ4CeA.s:3214   .debug_str:0000000000000192 .LASF14
     /tmp/ccZJ4CeA.s:3378   .debug_str:000000000000063a .LASF15
     /tmp/ccZJ4CeA.s:3224   .debug_str:00000000000001e3 .LASF16
     /tmp/ccZJ4CeA.s:3310   .debug_str:0000000000000479 .LASF34
     /tmp/ccZJ4CeA.s:3312   .debug_str:0000000000000483 .LASF139
     /tmp/ccZJ4CeA.s:3228   .debug_str:000000000000020d .LASF17
     /tmp/ccZJ4CeA.s:3324   .debug_str:00000000000004c2 .LASF18
     /tmp/ccZJ4CeA.s:3282   .debug_str:00000000000003b8 .LASF19
     /tmp/ccZJ4CeA.s:3404   .debug_str:0000000000000712 .LASF21
     /tmp/ccZJ4CeA.s:3376   .debug_str:0000000000000623 .LASF26
     /tmp/ccZJ4CeA.s:3330   .debug_str:00000000000004e1 .LASF140
     /tmp/ccZJ4CeA.s:3268   .debug_str:000000000000032a .LASF141
     /tmp/ccZJ4CeA.s:3408   .debug_str:0000000000000737 .LASF20
     /tmp/ccZJ4CeA.s:3234   .debug_str:0000000000000241 .LASF22
     /tmp/ccZJ4CeA.s:3260   .debug_str:00000000000002ec .LASF23
     /tmp/ccZJ4CeA.s:3232   .debug_str:0000000000000225 .LASF24
     /tmp/ccZJ4CeA.s:3412   .debug_str:0000000000000804 .LASF25
     /tmp/ccZJ4CeA.s:3164   .debug_str:000000000000001a .LASF27
     /tmp/ccZJ4CeA.s:3208   .debug_str:0000000000000166 .LASF28
     /tmp/ccZJ4CeA.s:3300   .debug_str:0000000000000410 .LASF29
     /tmp/ccZJ4CeA.s:3342   .debug_str:0000000000000521 .LASF30
     /tmp/ccZJ4CeA.s:3182   .debug_str:0000000000000090 .LASF31
     /tmp/ccZJ4CeA.s:3304   .debug_str:0000000000000440 .LASF32
     /tmp/ccZJ4CeA.s:3440   .debug_str:00000000000008d0 .LASF33
     /tmp/ccZJ4CeA.s:3176   .debug_str:0000000000000076 .LASF142
     /tmp/ccZJ4CeA.s:3236   .debug_str:000000000000025e .LASF35
     /tmp/ccZJ4CeA.s:3370   .debug_str:000000000000060a .LASF36
     /tmp/ccZJ4CeA.s:3352   .debug_str:000000000000056d .LASF37
     /tmp/ccZJ4CeA.s:3220   .debug_str:00000000000001b4 .LASF38
     /tmp/ccZJ4CeA.s:3322   .debug_str:00000000000004b6 .LASF39
     /tmp/ccZJ4CeA.s:3278   .debug_str:0000000000000379 .LASF40
     /tmp/ccZJ4CeA.s:3314   .debug_str:0000000000000488 .LASF41
     /tmp/ccZJ4CeA.s:3190   .debug_str:00000000000000d9 .LASF42
     /tmp/ccZJ4CeA.s:3298   .debug_str:0000000000000403 .LASF43
     /tmp/ccZJ4CeA.s:3362   .debug_str:00000000000005b7 .LASF44
     /tmp/ccZJ4CeA.s:3374   .debug_str:000000000000061e .LASF143
     /tmp/ccZJ4CeA.s:3380   .debug_str:0000000000000650 .LASF55
     /tmp/ccZJ4CeA.s:3328   .debug_str:00000000000004d1 .LASF57
     /tmp/ccZJ4CeA.s:3240   .debug_str:000000000000026c .LASF144
     /tmp/ccZJ4CeA.s:3158   .debug_str:0000000000000000 .LASF45
     /tmp/ccZJ4CeA.s:3186   .debug_str:00000000000000b4 .LASF46
     /tmp/ccZJ4CeA.s:3174   .debug_str:000000000000006c .LASF47
     /tmp/ccZJ4CeA.s:3302   .debug_str:000000000000042b .LASF48
     /tmp/ccZJ4CeA.s:3288   .debug_str:00000000000003d7 .LASF49
     /tmp/ccZJ4CeA.s:3438   .debug_str:00000000000008ba .LASF50
     /tmp/ccZJ4CeA.s:3194   .debug_str:00000000000000f9 .LASF51
     /tmp/ccZJ4CeA.s:3264   .debug_str:0000000000000302 .LASF52
GAS LISTING /tmp/ccZJ4CeA.s 			page 21


     /tmp/ccZJ4CeA.s:3416   .debug_str:000000000000081f .LASF53
     /tmp/ccZJ4CeA.s:3424   .debug_str:000000000000084a .LASF54
     /tmp/ccZJ4CeA.s:3252   .debug_str:00000000000002c3 .LASF56
     /tmp/ccZJ4CeA.s:3436   .debug_str:00000000000008a8 .LASF58
     /tmp/ccZJ4CeA.s:3396   .debug_str:00000000000006ce .LASF145
     /tmp/ccZJ4CeA.s:3292   .debug_str:00000000000003eb .LASF59
     /tmp/ccZJ4CeA.s:3340   .debug_str:000000000000051b .LASF60
     /tmp/ccZJ4CeA.s:3296   .debug_str:00000000000003fb .LASF61
     /tmp/ccZJ4CeA.s:3344   .debug_str:000000000000052c .LASF62
     /tmp/ccZJ4CeA.s:3290   .debug_str:00000000000003e2 .LASF63
     /tmp/ccZJ4CeA.s:3160   .debug_str:000000000000000a .LASF64
     /tmp/ccZJ4CeA.s:3426   .debug_str:0000000000000860 .LASF65
     /tmp/ccZJ4CeA.s:3306   .debug_str:0000000000000449 .LASF66
     /tmp/ccZJ4CeA.s:3270   .debug_str:0000000000000341 .LASF68
     /tmp/ccZJ4CeA.s:3432   .debug_str:000000000000088d .LASF77
     /tmp/ccZJ4CeA.s:3280   .debug_str:0000000000000390 .LASF146
     /tmp/ccZJ4CeA.s:3338   .debug_str:0000000000000512 .LASF67
     /tmp/ccZJ4CeA.s:3246   .debug_str:0000000000000290 .LASF69
     /tmp/ccZJ4CeA.s:3388   .debug_str:0000000000000690 .LASF75
     /tmp/ccZJ4CeA.s:3196   .debug_str:0000000000000101 .LASF70
     /tmp/ccZJ4CeA.s:3274   .debug_str:000000000000035f .LASF71
     /tmp/ccZJ4CeA.s:3272   .debug_str:000000000000035a .LASF72
     /tmp/ccZJ4CeA.s:3248   .debug_str:00000000000002a3 .LASF73
     /tmp/ccZJ4CeA.s:3422   .debug_str:0000000000000843 .LASF147
     /tmp/ccZJ4CeA.s:3358   .debug_str:000000000000059e .LASF74
     /tmp/ccZJ4CeA.s:3430   .debug_str:0000000000000879 .LASF76
     /tmp/ccZJ4CeA.s:3200   .debug_str:000000000000011c .LASF148
     /tmp/ccZJ4CeA.s:3210   .debug_str:0000000000000170 .LASF149
     /tmp/ccZJ4CeA.s:3216   .debug_str:000000000000019e .LASF78
     /tmp/ccZJ4CeA.s:3392   .debug_str:00000000000006a8 .LASF79
     /tmp/ccZJ4CeA.s:3446   .debug_str:0000000000000902 .LASF80
     /tmp/ccZJ4CeA.s:3168   .debug_str:0000000000000048 .LASF81
     /tmp/ccZJ4CeA.s:3400   .debug_str:00000000000006e5 .LASF84
     /tmp/ccZJ4CeA.s:3238   .debug_str:0000000000000263 .LASF82
     /tmp/ccZJ4CeA.s:3170   .debug_str:0000000000000051 .LASF87
     /tmp/ccZJ4CeA.s:3390   .debug_str:00000000000006a1 .LASF83
     /tmp/ccZJ4CeA.s:3368   .debug_str:00000000000005f7 .LASF85
     /tmp/ccZJ4CeA.s:3420   .debug_str:000000000000083c .LASF86
     /tmp/ccZJ4CeA.s:3286   .debug_str:00000000000003c4 .LASF88
     /tmp/ccZJ4CeA.s:3256   .debug_str:00000000000002de .LASF89
     /tmp/ccZJ4CeA.s:3226   .debug_str:00000000000001f9 .LASF90
     /tmp/ccZJ4CeA.s:3162   .debug_str:0000000000000012 .LASF91
     /tmp/ccZJ4CeA.s:3450   .debug_str:0000000000000926 .LASF92
     /tmp/ccZJ4CeA.s:3242   .debug_str:0000000000000274 .LASF93
     /tmp/ccZJ4CeA.s:3202   .debug_str:0000000000000130 .LASF94
     /tmp/ccZJ4CeA.s:3454   .debug_str:0000000000000945 .LASF95
     /tmp/ccZJ4CeA.s:3244   .debug_str:000000000000027c .LASF96
     /tmp/ccZJ4CeA.s:3336   .debug_str:000000000000050b .LASF97
     /tmp/ccZJ4CeA.s:3442   .debug_str:00000000000008ea .LASF98
     /tmp/ccZJ4CeA.s:3184   .debug_str:00000000000000ad .LASF99
     /tmp/ccZJ4CeA.s:3254   .debug_str:00000000000002cb .LASF100
     /tmp/ccZJ4CeA.s:3258   .debug_str:00000000000002e6 .LASF101
     /tmp/ccZJ4CeA.s:3406   .debug_str:0000000000000725 .LASF102
     /tmp/ccZJ4CeA.s:3180   .debug_str:000000000000008a .LASF103
     /tmp/ccZJ4CeA.s:3458   .debug_str:000000000000095e .LASF104
     /tmp/ccZJ4CeA.s:3452   .debug_str:000000000000093a .LASF105
     /tmp/ccZJ4CeA.s:3384   .debug_str:0000000000000666 .LASF106
GAS LISTING /tmp/ccZJ4CeA.s 			page 22


     /tmp/ccZJ4CeA.s:3294   .debug_str:00000000000003f0 .LASF107
     /tmp/ccZJ4CeA.s:3402   .debug_str:00000000000006fa .LASF108
     /tmp/ccZJ4CeA.s:3212   .debug_str:0000000000000188 .LASF109
     /tmp/ccZJ4CeA.s:3356   .debug_str:0000000000000588 .LASF110
     /tmp/ccZJ4CeA.s:3326   .debug_str:00000000000004c7 .LASF111
     /tmp/ccZJ4CeA.s:3266   .debug_str:0000000000000314 .LASF112
     /tmp/ccZJ4CeA.s:3364   .debug_str:00000000000005d3 .LASF113
     /tmp/ccZJ4CeA.s:3204   .debug_str:0000000000000144 .LASF114
     /tmp/ccZJ4CeA.s:3418   .debug_str:0000000000000827 .LASF115
     /tmp/ccZJ4CeA.s:3308   .debug_str:0000000000000457 .LASF116
     /tmp/ccZJ4CeA.s:3456   .debug_str:000000000000094d .LASF117
     /tmp/ccZJ4CeA.s:3250   .debug_str:00000000000002a8 .LASF118
     /tmp/ccZJ4CeA.s:471    .text:0000000000000268 .LFB44
     /tmp/ccZJ4CeA.s:508    .text:00000000000002a0 .LFE44
     /tmp/ccZJ4CeA.s:484    .text:0000000000000278 .LBB21
     /tmp/ccZJ4CeA.s:493    .text:0000000000000288 .LBE21
     /tmp/ccZJ4CeA.s:2976   .debug_loc:0000000000000000 .LLST10
     /tmp/ccZJ4CeA.s:2984   .debug_loc:0000000000000024 .LLST11
     /tmp/ccZJ4CeA.s:497    .text:0000000000000290 .LVL40
     /tmp/ccZJ4CeA.s:444    .text:000000000000024c .LFB43
     /tmp/ccZJ4CeA.s:465    .text:0000000000000268 .LFE43
     /tmp/ccZJ4CeA.s:3444   .debug_str:00000000000008fd .LASF119
     /tmp/ccZJ4CeA.s:387    .text:00000000000001f8 .LFB42
     /tmp/ccZJ4CeA.s:438    .text:000000000000024c .LFE42
     /tmp/ccZJ4CeA.s:2992   .debug_loc:000000000000004f .LLST9
     /tmp/ccZJ4CeA.s:409    .text:0000000000000220 .LVL33
     /tmp/ccZJ4CeA.s:432    .text:0000000000000244 .LVL36
     /tmp/ccZJ4CeA.s:10     .text:0000000000000000 .LFB41
     /tmp/ccZJ4CeA.s:54     .text:000000000000004c .LFE41
     /tmp/ccZJ4CeA.s:25     .text:0000000000000018 .LVL0
     /tmp/ccZJ4CeA.s:43     .text:000000000000003c .LVL2
     /tmp/ccZJ4CeA.s:259    .text:0000000000000170 .LFB40
     /tmp/ccZJ4CeA.s:373    .text:00000000000001f8 .LFE40
     /tmp/ccZJ4CeA.s:3017   .debug_loc:00000000000000b1 .LLST4
     /tmp/ccZJ4CeA.s:3372   .debug_str:0000000000000616 .LASF120
     /tmp/ccZJ4CeA.s:3028   .debug_loc:00000000000000e7 .LLST5
     /tmp/ccZJ4CeA.s:279    .text:0000000000000190 .LBB13
     /tmp/ccZJ4CeA.s:296    .text:000000000000019c .LBE13
     /tmp/ccZJ4CeA.s:298    .text:000000000000019c .LBB15
     /tmp/ccZJ4CeA.s:306    .text:00000000000001a0 .LBE15
     /tmp/ccZJ4CeA.s:3039   .debug_loc:000000000000011d .LLST6
     /tmp/ccZJ4CeA.s:310    .text:00000000000001a4 .LBB17
     /tmp/ccZJ4CeA.s:317    .text:00000000000001a8 .LBE17
     /tmp/ccZJ4CeA.s:3046   .debug_loc:0000000000000140 .LLST7
     /tmp/ccZJ4CeA.s:329    .text:00000000000001bc .LBB19
     /tmp/ccZJ4CeA.s:340    .text:00000000000001c0 .LBE19
     /tmp/ccZJ4CeA.s:3053   .debug_loc:0000000000000163 .LLST8
     /tmp/ccZJ4CeA.s:324    .text:00000000000001b4 .LVL23
     /tmp/ccZJ4CeA.s:346    .text:00000000000001d0 .LVL26
     /tmp/ccZJ4CeA.s:370    .text:00000000000001f4 .LVL30
     /tmp/ccZJ4CeA.s:229    .text:0000000000000154 .LFB39
     /tmp/ccZJ4CeA.s:253    .text:0000000000000170 .LFE39
     /tmp/ccZJ4CeA.s:203    .text:0000000000000154 .LFE38
     /tmp/ccZJ4CeA.s:3060   .debug_loc:0000000000000186 .LLST3
     /tmp/ccZJ4CeA.s:165    .text:0000000000000104 .LVL12
     /tmp/ccZJ4CeA.s:172    .text:0000000000000118 .LVL13
     /tmp/ccZJ4CeA.s:180    .text:000000000000012c .LVL15
GAS LISTING /tmp/ccZJ4CeA.s 			page 23


     /tmp/ccZJ4CeA.s:184    .text:0000000000000138 .LVL16
     /tmp/ccZJ4CeA.s:3188   .debug_str:00000000000000c8 .LASF150
     /tmp/ccZJ4CeA.s:60     .text:000000000000004c .LFB36
     /tmp/ccZJ4CeA.s:132    .text:00000000000000dc .LFE36
     /tmp/ccZJ4CeA.s:3089   .debug_loc:00000000000001fb .LLST0
     /tmp/ccZJ4CeA.s:3107   .debug_loc:0000000000000247 .LLST1
     /tmp/ccZJ4CeA.s:3125   .debug_loc:0000000000000293 .LLST2
     /tmp/ccZJ4CeA.s:88     .text:0000000000000084 .LVL5
     /tmp/ccZJ4CeA.s:107    .text:00000000000000bc .LVL6
     /tmp/ccZJ4CeA.s:3206   .debug_str:0000000000000160 .LASF121
     /tmp/ccZJ4CeA.s:3366   .debug_str:00000000000005e2 .LASF122
     /tmp/ccZJ4CeA.s:3218   .debug_str:00000000000001a4 .LASF124
     /tmp/ccZJ4CeA.s:3230   .debug_str:0000000000000212 .LASF123
     /tmp/ccZJ4CeA.s:3448   .debug_str:000000000000091a .LASF125
     /tmp/ccZJ4CeA.s:3348   .debug_str:0000000000000549 .LASF126
     /tmp/ccZJ4CeA.s:3178   .debug_str:000000000000007e .LASF127
     /tmp/ccZJ4CeA.s:3172   .debug_str:0000000000000066 .LASF128
     /tmp/ccZJ4CeA.s:3434   .debug_str:000000000000089b .LASF130
     /tmp/ccZJ4CeA.s:3318   .debug_str:00000000000004a1 .LASF129
     /tmp/ccZJ4CeA.s:3354   .debug_str:0000000000000578 .LASF131
     /tmp/ccZJ4CeA.s:3276   .debug_str:000000000000036a .LASF132
     /tmp/ccZJ4CeA.s:3222   .debug_str:00000000000001cb .LASF133
     /tmp/ccZJ4CeA.s:3398   .debug_str:00000000000006df .LASF134
     /tmp/ccZJ4CeA.s:3382   .debug_str:0000000000000656 .LASF135
     /tmp/ccZJ4CeA.s:483    .text:0000000000000278 .LVL38
     /tmp/ccZJ4CeA.s:491    .text:0000000000000288 .LVL39
     /tmp/ccZJ4CeA.s:390    .text:00000000000001f8 .LVL31
     /tmp/ccZJ4CeA.s:407    .text:0000000000000218 .LVL32
     /tmp/ccZJ4CeA.s:424    .text:0000000000000234 .LVL34
     /tmp/ccZJ4CeA.s:430    .text:000000000000023c .LVL35
     /tmp/ccZJ4CeA.s:277    .text:0000000000000190 .LVL18
     /tmp/ccZJ4CeA.s:356    .text:00000000000001dc .LVL27
     /tmp/ccZJ4CeA.s:363    .text:00000000000001e8 .LVL29
     /tmp/ccZJ4CeA.s:294    .text:000000000000019c .LVL19
     /tmp/ccZJ4CeA.s:359    .text:00000000000001e0 .LVL28
     /tmp/ccZJ4CeA.s:304    .text:00000000000001a0 .LVL20
     /tmp/ccZJ4CeA.s:309    .text:00000000000001a4 .LVL21
     /tmp/ccZJ4CeA.s:315    .text:00000000000001a8 .LVL22
     /tmp/ccZJ4CeA.s:328    .text:00000000000001bc .LVL24
     /tmp/ccZJ4CeA.s:337    .text:00000000000001c0 .LVL25
     /tmp/ccZJ4CeA.s:145    .text:00000000000000dc .LVL10
     /tmp/ccZJ4CeA.s:162    .text:00000000000000fc .LVL11
     /tmp/ccZJ4CeA.s:177    .text:0000000000000120 .LVL14
     /tmp/ccZJ4CeA.s:198    .text:000000000000014c .LVL17
     /tmp/ccZJ4CeA.s:63     .text:000000000000004c .LVL3
     /tmp/ccZJ4CeA.s:86     .text:000000000000007c .LVL4
     /tmp/ccZJ4CeA.s:121    .text:00000000000000cc .LVL7
     /tmp/ccZJ4CeA.s:124    .text:00000000000000d0 .LVL8
     /tmp/ccZJ4CeA.s:127    .text:00000000000000d4 .LVL9
     /tmp/ccZJ4CeA.s:531    .debug_info:0000000000000000 .Ldebug_info0
     /tmp/ccZJ4CeA.s:206    .gcc_except_table:0000000000000000 .LLSDA38

UNDEFINED SYMBOLS
_ZN5Riscv10popSppSpieEv
_Z11thread_exitv
_Znam
_ZN9Scheduler3putEP3TCB
GAS LISTING /tmp/ccZJ4CeA.s 			page 24


_Znwm
_ZdlPv
_Unwind_Resume
__gxx_personality_v0
_ZN9Scheduler3getEv
_ZN3TCB13contextSwitchEPNS_7ContextES1_
_Z11printStringPKc
_Z15thread_dispatchv
