GAS LISTING /tmp/ccx5Kw42.s 			page 1


   1              		.file	"tcb.cpp"
   2              		.option pic
   3              		.option norelax
   4              		.text
   5              	.Ltext0:
   6              		.align	2
   7              		.globl	_ZN3TCB13threadWrapperEv
   9              	_ZN3TCB13threadWrapperEv:
  10              	.LFB45:
  11              		.file 1 "src/tcb.cpp"
   1:src/tcb.cpp   **** //
   2:src/tcb.cpp   **** // Created by os on 4/26/22.
   3:src/tcb.cpp   **** //
   4:src/tcb.cpp   **** 
   5:src/tcb.cpp   **** #include "../h/tcb.hpp"
   6:src/tcb.cpp   **** #include "../h/scheduler.hpp"
   7:src/tcb.cpp   **** #include "../h/riscv.hpp"
   8:src/tcb.cpp   **** #include "../h/print.hpp"
   9:src/tcb.cpp   **** 
  10:src/tcb.cpp   **** 
  11:src/tcb.cpp   **** TCB *TCB::running = nullptr;
  12:src/tcb.cpp   **** uint64 TCB::timeSliceCounter = 0;
  13:src/tcb.cpp   **** 
  14:src/tcb.cpp   **** TCB::TCB(Body body, uint64 timeSlice) : body(body),
  15:src/tcb.cpp   **** stack(/*body != nullptr ?*/ new uint64[STACK_SIZE] /* : nullptr */),
  16:src/tcb.cpp   **** context({(uint64) &threadWrapper,
  17:src/tcb.cpp   ****          /*stack != nullptr ? */(uint64) &stack[STACK_SIZE] /* : 0 */}),
  18:src/tcb.cpp   **** timeSlice(timeSlice),
  19:src/tcb.cpp   **** finished(false), blocked(false) {
  20:src/tcb.cpp   ****     if (body != nullptr) { Scheduler::put(this); }
  21:src/tcb.cpp   ****     myThread = nullptr;
  22:src/tcb.cpp   **** }
  23:src/tcb.cpp   **** 
  24:src/tcb.cpp   **** TCB *TCB::createThread(Body body) {
  25:src/tcb.cpp   ****     return new TCB(body, TIME_SLICE);
  26:src/tcb.cpp   **** }
  27:src/tcb.cpp   **** 
  28:src/tcb.cpp   **** void TCB::yield() { __asm__ volatile ("ecall"); }
  29:src/tcb.cpp   **** 
  30:src/tcb.cpp   **** void TCB::dispatch() {
  31:src/tcb.cpp   ****     TCB *old = running;
  32:src/tcb.cpp   ****     uint64 sstatus = Riscv::r_sstatus();
  33:src/tcb.cpp   ****     if (!old->isFinished()) { Scheduler::put(old); }
  34:src/tcb.cpp   ****     running = Scheduler::get();
  35:src/tcb.cpp   ****     Riscv::w_sstatus(sstatus);
  36:src/tcb.cpp   ****     TCB::contextSwitch(&old->context, &running->context);
  37:src/tcb.cpp   **** }
  38:src/tcb.cpp   **** 
  39:src/tcb.cpp   **** void TCB::threadWrapper() {
  12              		.loc 1 39 27
  13              		.cfi_startproc
  14 0000 130101FF 		addi	sp,sp,-16
  15              		.cfi_def_cfa_offset 16
  16 0004 23341100 		sd	ra,8(sp)
  17 0008 23308100 		sd	s0,0(sp)
  18              		.cfi_offset 1, -8
  19              		.cfi_offset 8, -16
GAS LISTING /tmp/ccx5Kw42.s 			page 2


  20 000c 13040101 		addi	s0,sp,16
  21              		.cfi_def_cfa 8, 0
  40:src/tcb.cpp   ****     Riscv::popSppSpie();
  22              		.loc 1 40 5
  23              		.loc 1 40 22 is_stmt 0
  24 0010 97000000 		call	_ZN5Riscv10popSppSpieEv@plt
  24      E7800000 
  25              	.LVL0:
  41:src/tcb.cpp   ****     if(running->myThread != nullptr){
  26              		.loc 1 41 5 is_stmt 1
  27              		.loc 1 41 17 is_stmt 0
  28 0018 97070000 		ld	a5,.LANCHOR0
  28      83B70700 
  29 0020 03B50703 		ld	a0,48(a5)
  30              		.loc 1 41 5
  31 0024 63080500 		beqz	a0,.L2
  42:src/tcb.cpp   ****         running->myThread->run();
  32              		.loc 1 42 9 is_stmt 1
  33              		.loc 1 42 32 is_stmt 0
  34 0028 83370500 		ld	a5,0(a0)
  35 002c 83B70701 		ld	a5,16(a5)
  36              		.loc 1 42 31
  37 0030 E7800700 		jalr	a5
  38              	.LVL1:
  39              	.L2:
  43:src/tcb.cpp   ****     }
  44:src/tcb.cpp   ****     thread_exit();
  40              		.loc 1 44 5 is_stmt 1
  41              		.loc 1 44 16 is_stmt 0
  42 0034 97000000 		call	_Z11thread_exitv@plt
  42      E7800000 
  43              	.LVL2:
  45:src/tcb.cpp   ****     /*running->body();
  46:src/tcb.cpp   ****     running->setFinished(true);
  47:src/tcb.cpp   ****     TCB::yield();*/
  48:src/tcb.cpp   **** 
  49:src/tcb.cpp   **** }
  44              		.loc 1 49 1
  45 003c 83308100 		ld	ra,8(sp)
  46              		.cfi_restore 1
  47 0040 03340100 		ld	s0,0(sp)
  48              		.cfi_restore 8
  49              		.cfi_def_cfa 2, 16
  50 0044 13010101 		addi	sp,sp,16
  51              		.cfi_def_cfa_offset 0
  52 0048 67800000 		jr	ra
  53              		.cfi_endproc
  54              	.LFE45:
  56              		.align	2
  57              		.globl	_ZN3TCBC2EPFvvEm
  59              	_ZN3TCBC2EPFvvEm:
  60              	.LFB40:
  14:src/tcb.cpp   **** stack(/*body != nullptr ?*/ new uint64[STACK_SIZE] /* : nullptr */),
  61              		.loc 1 14 1 is_stmt 1
  62              		.cfi_startproc
  63              	.LVL3:
  64 004c 130101FD 		addi	sp,sp,-48
GAS LISTING /tmp/ccx5Kw42.s 			page 3


  65              		.cfi_def_cfa_offset 48
  66 0050 23341102 		sd	ra,40(sp)
  67 0054 23308102 		sd	s0,32(sp)
  68 0058 233C9100 		sd	s1,24(sp)
  69 005c 23382101 		sd	s2,16(sp)
  70 0060 23343101 		sd	s3,8(sp)
  71              		.cfi_offset 1, -8
  72              		.cfi_offset 8, -16
  73              		.cfi_offset 9, -24
  74              		.cfi_offset 18, -32
  75              		.cfi_offset 19, -40
  76 0064 13040103 		addi	s0,sp,48
  77              		.cfi_def_cfa 8, 0
  78 0068 93040500 		mv	s1,a0
  79 006c 13890500 		mv	s2,a1
  80 0070 93090600 		mv	s3,a2
  81              	.LBB8:
  19:src/tcb.cpp   ****     if (body != nullptr) { Scheduler::put(this); }
  82              		.loc 1 19 31 is_stmt 0
  83 0074 2330B500 		sd	a1,0(a0)
  15:src/tcb.cpp   **** context({(uint64) &threadWrapper,
  84              		.loc 1 15 50
  85 0078 37250000 		li	a0,8192
  86              	.LVL4:
  87 007c 97000000 		call	_Znam@plt
  87      E7800000 
  88              	.LVL5:
  19:src/tcb.cpp   ****     if (body != nullptr) { Scheduler::put(this); }
  89              		.loc 1 19 31
  90 0084 23B4A400 		sd	a0,8(s1)
  91 0088 97070000 		lla	a5,_ZN3TCB13threadWrapperEv
  91      93870700 
  92 0090 23B8F400 		sd	a5,16(s1)
  17:src/tcb.cpp   **** timeSlice(timeSlice),
  93              		.loc 1 17 42
  94 0094 B7270000 		li	a5,8192
  95 0098 3305F500 		add	a0,a0,a5
  19:src/tcb.cpp   ****     if (body != nullptr) { Scheduler::put(this); }
  96              		.loc 1 19 31
  97 009c 23BCA400 		sd	a0,24(s1)
  98 00a0 23B03403 		sd	s3,32(s1)
  99 00a4 23840402 		sb	zero,40(s1)
 100 00a8 A3840402 		sb	zero,41(s1)
  20:src/tcb.cpp   ****     myThread = nullptr;
 101              		.loc 1 20 5 is_stmt 1
 102 00ac 63080900 		beqz	s2,.L5
  20:src/tcb.cpp   ****     myThread = nullptr;
 103              		.loc 1 20 28 discriminator 1
  20:src/tcb.cpp   ****     myThread = nullptr;
 104              		.loc 1 20 42 is_stmt 0 discriminator 1
 105 00b0 13850400 		mv	a0,s1
 106 00b4 97000000 		call	_ZN9Scheduler3putEP3TCB@plt
 106      E7800000 
 107              	.LVL6:
 108              	.L5:
  21:src/tcb.cpp   **** }
 109              		.loc 1 21 5 is_stmt 1
GAS LISTING /tmp/ccx5Kw42.s 			page 4


  21:src/tcb.cpp   **** }
 110              		.loc 1 21 14 is_stmt 0
 111 00bc 23B80402 		sd	zero,48(s1)
 112              	.LBE8:
  22:src/tcb.cpp   **** 
 113              		.loc 1 22 1
 114 00c0 83308102 		ld	ra,40(sp)
 115              		.cfi_restore 1
 116 00c4 03340102 		ld	s0,32(sp)
 117              		.cfi_restore 8
 118              		.cfi_def_cfa 2, 48
 119 00c8 83348101 		ld	s1,24(sp)
 120              		.cfi_restore 9
 121              	.LVL7:
 122 00cc 03390101 		ld	s2,16(sp)
 123              		.cfi_restore 18
 124              	.LVL8:
 125 00d0 83398100 		ld	s3,8(sp)
 126              		.cfi_restore 19
 127              	.LVL9:
 128 00d4 13010103 		addi	sp,sp,48
 129              		.cfi_def_cfa_offset 0
 130 00d8 67800000 		jr	ra
 131              		.cfi_endproc
 132              	.LFE40:
 134              		.globl	_ZN3TCBC1EPFvvEm
 135              		.set	_ZN3TCBC1EPFvvEm,_ZN3TCBC2EPFvvEm
 136              		.align	2
 137              		.globl	_ZN3TCB12createThreadEPFvvE
 139              	_ZN3TCB12createThreadEPFvvE:
 140              	.LFB42:
  24:src/tcb.cpp   ****     return new TCB(body, TIME_SLICE);
 141              		.loc 1 24 35 is_stmt 1
 142              		.cfi_startproc
 143              		.cfi_personality 0x9b,DW.ref.__gxx_personality_v0
 144              		.cfi_lsda 0x1b,.LLSDA42
 145              	.LVL10:
 146 00dc 130101FE 		addi	sp,sp,-32
 147              		.cfi_def_cfa_offset 32
 148 00e0 233C1100 		sd	ra,24(sp)
 149 00e4 23388100 		sd	s0,16(sp)
 150 00e8 23349100 		sd	s1,8(sp)
 151 00ec 23302101 		sd	s2,0(sp)
 152              		.cfi_offset 1, -8
 153              		.cfi_offset 8, -16
 154              		.cfi_offset 9, -24
 155              		.cfi_offset 18, -32
 156 00f0 13040102 		addi	s0,sp,32
 157              		.cfi_def_cfa 8, 0
 158 00f4 13090500 		mv	s2,a0
  25:src/tcb.cpp   **** }
 159              		.loc 1 25 5
  25:src/tcb.cpp   **** }
 160              		.loc 1 25 36 is_stmt 0
 161 00f8 13058003 		li	a0,56
 162              	.LVL11:
 163              	.LEHB0:
GAS LISTING /tmp/ccx5Kw42.s 			page 5


 164 00fc 97000000 		call	_Znwm@plt
 164      E7800000 
 165              	.LVL12:
 166              	.LEHE0:
 167 0104 93040500 		mv	s1,a0
 168 0108 13062000 		li	a2,2
 169 010c 93050900 		mv	a1,s2
 170              	.LEHB1:
 171 0110 97000000 		call	_ZN3TCBC1EPFvvEm
 171      E7800000 
 172              	.LVL13:
 173              	.LEHE1:
 174 0118 6F000002 		j	.L12
 175              	.L9:
 176 011c 13090500 		mv	s2,a0
 177              	.LVL14:
 178 0120 13850400 		mv	a0,s1
 179 0124 97000000 		call	_ZdlPv@plt
 179      E7800000 
 180              	.LVL15:
 181 012c 13050900 		mv	a0,s2
 182              	.LEHB2:
 183 0130 97000000 		call	_Unwind_Resume@plt
 183      E7800000 
 184              	.LVL16:
 185              	.LEHE2:
 186              	.L12:
  26:src/tcb.cpp   **** 
 187              		.loc 1 26 1
 188 0138 13850400 		mv	a0,s1
 189 013c 83308101 		ld	ra,24(sp)
 190              		.cfi_restore 1
 191 0140 03340101 		ld	s0,16(sp)
 192              		.cfi_restore 8
 193              		.cfi_def_cfa 2, 32
 194 0144 83348100 		ld	s1,8(sp)
 195              		.cfi_restore 9
 196 0148 03390100 		ld	s2,0(sp)
 197              		.cfi_restore 18
 198              	.LVL17:
 199 014c 13010102 		addi	sp,sp,32
 200              		.cfi_def_cfa_offset 0
 201 0150 67800000 		jr	ra
 202              		.cfi_endproc
 203              	.LFE42:
 204              		.globl	__gxx_personality_v0
 205              		.section	.gcc_except_table,"a",@progbits
 206              	.LLSDA42:
 207 0000 FF       		.byte	0xff
 208 0001 FF       		.byte	0xff
 209 0002 03       		.byte	0x3
 210 0003 27       		.byte	0x27
 211 0004 00000000 		.4byte	.LEHB0-.LFB42
 212 0008 00000000 		.4byte	.LEHE0-.LEHB0
 213 000c 00000000 		.4byte	0
 214 0010 00       		.byte	0
 215 0011 00000000 		.4byte	.LEHB1-.LFB42
GAS LISTING /tmp/ccx5Kw42.s 			page 6


 216 0015 00000000 		.4byte	.LEHE1-.LEHB1
 217 0019 00000000 		.4byte	.L9-.LFB42
 218 001d 00       		.byte	0
 219 001e 00000000 		.4byte	.LEHB2-.LFB42
 220 0022 00000000 		.4byte	.LEHE2-.LEHB2
 221 0026 00000000 		.4byte	0
 222 002a 00       		.byte	0
 223              		.text
 225              		.align	2
 226              		.globl	_ZN3TCB5yieldEv
 228              	_ZN3TCB5yieldEv:
 229              	.LFB43:
  28:src/tcb.cpp   **** 
 230              		.loc 1 28 19 is_stmt 1
 231              		.cfi_startproc
 232 0154 130101FF 		addi	sp,sp,-16
 233              		.cfi_def_cfa_offset 16
 234 0158 23348100 		sd	s0,8(sp)
 235              		.cfi_offset 8, -8
 236 015c 13040101 		addi	s0,sp,16
 237              		.cfi_def_cfa 8, 0
  28:src/tcb.cpp   **** 
 238              		.loc 1 28 21
  28:src/tcb.cpp   **** 
 239              		.loc 1 28 47 is_stmt 0
 240              	#APP
 241              	# 28 "src/tcb.cpp" 1
  28:src/tcb.cpp   **** 
 242              		ecall
 243              	# 0 "" 2
 244              		.loc 1 28 49
 245              	#NO_APP
 246 0164 03348100 		ld	s0,8(sp)
 247              		.cfi_restore 8
 248              		.cfi_def_cfa 2, 16
 249 0168 13010101 		addi	sp,sp,16
 250              		.cfi_def_cfa_offset 0
 251 016c 67800000 		jr	ra
 252              		.cfi_endproc
 253              	.LFE43:
 255              		.align	2
 256              		.globl	_ZN3TCB8dispatchEv
 258              	_ZN3TCB8dispatchEv:
 259              	.LFB44:
  30:src/tcb.cpp   ****     TCB *old = running;
 260              		.loc 1 30 22 is_stmt 1
 261              		.cfi_startproc
 262 0170 130101FD 		addi	sp,sp,-48
 263              		.cfi_def_cfa_offset 48
 264 0174 23341102 		sd	ra,40(sp)
 265 0178 23308102 		sd	s0,32(sp)
 266 017c 233C9100 		sd	s1,24(sp)
 267 0180 23382101 		sd	s2,16(sp)
 268              		.cfi_offset 1, -8
 269              		.cfi_offset 8, -16
 270              		.cfi_offset 9, -24
 271              		.cfi_offset 18, -32
GAS LISTING /tmp/ccx5Kw42.s 			page 7


 272 0184 13040103 		addi	s0,sp,48
 273              		.cfi_def_cfa 8, 0
  31:src/tcb.cpp   ****     uint64 sstatus = Riscv::r_sstatus();
 274              		.loc 1 31 5
  31:src/tcb.cpp   ****     uint64 sstatus = Riscv::r_sstatus();
 275              		.loc 1 31 10 is_stmt 0
 276 0188 97040000 		ld	s1,.LANCHOR0
 276      83B40400 
 277              	.LVL18:
  32:src/tcb.cpp   ****     if (!old->isFinished()) { Scheduler::put(old); }
 278              		.loc 1 32 5 is_stmt 1
 279              	.LBB9:
 280              	.LBB10:
 281              		.file 2 "src/../h/riscv.hpp"
   1:src/../h/riscv.hpp **** //
   2:src/../h/riscv.hpp **** // Created by os on 4/26/22.
   3:src/../h/riscv.hpp **** //
   4:src/../h/riscv.hpp **** 
   5:src/../h/riscv.hpp **** #ifndef PROJECT_BASE_V1_0_RISCV_HPP
   6:src/../h/riscv.hpp **** #define PROJECT_BASE_V1_0_RISCV_HPP
   7:src/../h/riscv.hpp **** 
   8:src/../h/riscv.hpp **** #include "../lib/hw.h"
   9:src/../h/riscv.hpp **** 
  10:src/../h/riscv.hpp **** class Riscv{
  11:src/../h/riscv.hpp **** public:
  12:src/../h/riscv.hpp **** 
  13:src/../h/riscv.hpp ****     static void popSppSpie();
  14:src/../h/riscv.hpp **** 
  15:src/../h/riscv.hpp ****     //read
  16:src/../h/riscv.hpp ****     static uint64 r_scause();
  17:src/../h/riscv.hpp **** 
  18:src/../h/riscv.hpp ****     //write
  19:src/../h/riscv.hpp ****     static void w_scause(uint64 scause);
  20:src/../h/riscv.hpp **** 
  21:src/../h/riscv.hpp ****     static uint64 r_sepc();
  22:src/../h/riscv.hpp **** 
  23:src/../h/riscv.hpp ****     static void w_sepc(uint64 sepc);
  24:src/../h/riscv.hpp **** 
  25:src/../h/riscv.hpp ****     static uint64 r_stvec();
  26:src/../h/riscv.hpp **** 
  27:src/../h/riscv.hpp ****     static void w_stvec(uint64 stvec);
  28:src/../h/riscv.hpp **** 
  29:src/../h/riscv.hpp ****     static uint64 r_stval();
  30:src/../h/riscv.hpp **** 
  31:src/../h/riscv.hpp ****     static void w_stval(uint64 stval);
  32:src/../h/riscv.hpp **** 
  33:src/../h/riscv.hpp ****     enum BitMaskSip{
  34:src/../h/riscv.hpp ****         SIP_SSIP = (1 << 1),
  35:src/../h/riscv.hpp ****         SIP_STIP = (1 << 5),
  36:src/../h/riscv.hpp ****         SIP_SEIP = (1 << 9),
  37:src/../h/riscv.hpp ****     };
  38:src/../h/riscv.hpp ****     // mask set
  39:src/../h/riscv.hpp ****     static void ms_sip(uint64 mask);
  40:src/../h/riscv.hpp ****     // mask clear
  41:src/../h/riscv.hpp ****     static void mc_sip(uint64 mask);
  42:src/../h/riscv.hpp **** 
  43:src/../h/riscv.hpp ****     static uint64 r_sip();
GAS LISTING /tmp/ccx5Kw42.s 			page 8


  44:src/../h/riscv.hpp **** 
  45:src/../h/riscv.hpp ****     static void w_sip(uint64 sip);
  46:src/../h/riscv.hpp **** 
  47:src/../h/riscv.hpp ****     enum BitMaskSstatus{
  48:src/../h/riscv.hpp ****         SSTATUS_SIE = (1 << 1),
  49:src/../h/riscv.hpp ****         SSTATUS_SPIE = (1 << 5),
  50:src/../h/riscv.hpp ****         SSTATUS_SPP = (1 << 8),
  51:src/../h/riscv.hpp ****     };
  52:src/../h/riscv.hpp **** 
  53:src/../h/riscv.hpp ****     static void ms_sstatus(uint64 mask);
  54:src/../h/riscv.hpp **** 
  55:src/../h/riscv.hpp ****     static void mc_sstatus(uint64 mask);
  56:src/../h/riscv.hpp **** 
  57:src/../h/riscv.hpp ****     static uint64 r_sstatus();
  58:src/../h/riscv.hpp **** 
  59:src/../h/riscv.hpp ****     static void w_sstatus(uint64 sstatus);
  60:src/../h/riscv.hpp **** 
  61:src/../h/riscv.hpp ****     static void supervisorTrap();
  62:src/../h/riscv.hpp **** 
  63:src/../h/riscv.hpp **** private:
  64:src/../h/riscv.hpp ****     static void handleSupervisorTrap();
  65:src/../h/riscv.hpp **** };
  66:src/../h/riscv.hpp **** 
  67:src/../h/riscv.hpp **** inline uint64 Riscv::r_scause() {
  68:src/../h/riscv.hpp ****     uint64 volatile scause;
  69:src/../h/riscv.hpp ****     __asm__ volatile ("csrr %[scause], scause" : [scause] "=r"(scause));
  70:src/../h/riscv.hpp ****     return scause;
  71:src/../h/riscv.hpp **** }
  72:src/../h/riscv.hpp **** 
  73:src/../h/riscv.hpp **** inline void Riscv::w_scause(uint64 scause) {
  74:src/../h/riscv.hpp ****     __asm__ volatile ("csrw scause, %[scause]" : : [scause] "r"(scause));
  75:src/../h/riscv.hpp **** }
  76:src/../h/riscv.hpp **** 
  77:src/../h/riscv.hpp **** inline uint64 Riscv::r_sepc() {
  78:src/../h/riscv.hpp ****     uint64 volatile sepc;
  79:src/../h/riscv.hpp ****     __asm__ volatile ("csrr %[sepc], sepc" : [sepc] "=r"(sepc));
  80:src/../h/riscv.hpp ****     return sepc;
  81:src/../h/riscv.hpp **** }
  82:src/../h/riscv.hpp **** 
  83:src/../h/riscv.hpp **** inline void Riscv::w_sepc(uint64 sepc) {
  84:src/../h/riscv.hpp ****     __asm__ volatile ("csrw sepc, %[sepc]" : : [sepc] "r"(sepc));
  85:src/../h/riscv.hpp **** }
  86:src/../h/riscv.hpp **** 
  87:src/../h/riscv.hpp **** inline uint64 Riscv::r_stvec() {
  88:src/../h/riscv.hpp ****     uint64 volatile stvec;
  89:src/../h/riscv.hpp ****     __asm__ volatile ("csrr %[stvec], stvec" : [stvec] "=r"(stvec));
  90:src/../h/riscv.hpp ****     return stvec;
  91:src/../h/riscv.hpp **** }
  92:src/../h/riscv.hpp **** 
  93:src/../h/riscv.hpp **** inline void Riscv::w_stvec(uint64 stvec) {
  94:src/../h/riscv.hpp ****     __asm__ volatile ("csrw stvec, %[stvec]" : : [stvec] "r"(stvec));
  95:src/../h/riscv.hpp **** }
  96:src/../h/riscv.hpp **** 
  97:src/../h/riscv.hpp **** inline uint64 Riscv::r_stval() {
  98:src/../h/riscv.hpp ****     uint64 volatile stval;
  99:src/../h/riscv.hpp ****     __asm__ volatile ("csrr %[stval], stval" : [stval] "=r"(stval));
 100:src/../h/riscv.hpp ****     return stval;
GAS LISTING /tmp/ccx5Kw42.s 			page 9


 101:src/../h/riscv.hpp **** }
 102:src/../h/riscv.hpp **** 
 103:src/../h/riscv.hpp **** inline void Riscv::w_stval(uint64 stval) {
 104:src/../h/riscv.hpp ****     __asm__ volatile ("csrw stval, %[stval]" : : [stval] "r"(stval));
 105:src/../h/riscv.hpp **** }
 106:src/../h/riscv.hpp **** 
 107:src/../h/riscv.hpp **** inline void Riscv::ms_sip(uint64 mask) {
 108:src/../h/riscv.hpp ****     __asm__ volatile ("csrs sip, %[mask]" : : [mask] "r"(mask));
 109:src/../h/riscv.hpp **** }
 110:src/../h/riscv.hpp **** 
 111:src/../h/riscv.hpp **** inline void Riscv::mc_sip(uint64 mask) {
 112:src/../h/riscv.hpp ****     __asm__ volatile ("csrc sip, %[mask]" : : [mask] "r"(mask));
 113:src/../h/riscv.hpp **** }
 114:src/../h/riscv.hpp **** 
 115:src/../h/riscv.hpp **** inline uint64 Riscv::r_sip() {
 116:src/../h/riscv.hpp ****     uint64 volatile sip;
 117:src/../h/riscv.hpp ****     __asm__ volatile ("csrr %[sip], sip" : [sip] "=r"(sip));
 118:src/../h/riscv.hpp ****     return sip;
 119:src/../h/riscv.hpp **** }
 120:src/../h/riscv.hpp **** 
 121:src/../h/riscv.hpp **** inline void Riscv::w_sip(uint64 sip) {
 122:src/../h/riscv.hpp ****     __asm__ volatile ("csrw sip, %[sip]" : : [sip] "r"(sip));
 123:src/../h/riscv.hpp **** }
 124:src/../h/riscv.hpp **** 
 125:src/../h/riscv.hpp **** inline void Riscv::ms_sstatus(uint64 mask) {
 126:src/../h/riscv.hpp ****     __asm__ volatile ("csrs sstatus, %[mask]" : : [mask] "r"(mask));
 127:src/../h/riscv.hpp **** }
 128:src/../h/riscv.hpp **** 
 129:src/../h/riscv.hpp **** inline void Riscv::mc_sstatus(uint64 mask) {
 130:src/../h/riscv.hpp ****     __asm__ volatile ("csrc sstatus, %[mask]" : : [mask] "r"(mask));
 131:src/../h/riscv.hpp **** }
 132:src/../h/riscv.hpp **** 
 133:src/../h/riscv.hpp **** inline uint64 Riscv::r_sstatus() {
 134:src/../h/riscv.hpp ****     uint64 volatile sstatus;
 282              		.loc 2 134 5
 135:src/../h/riscv.hpp ****     __asm__ volatile ("csrr %[sstatus], sstatus" : [sstatus] "=r"(sstatus));
 283              		.loc 2 135 5
 284              		.loc 2 135 76 is_stmt 0
 285              	#APP
 286              	# 135 "src/../h/riscv.hpp" 1
 136              	    return sstatus;
 287              		csrr a5, sstatus
 288              	# 0 "" 2
 289              	#NO_APP
 290 0194 233CF4FC 		sd	a5,-40(s0)
 291              		.loc 2 136 5 is_stmt 1
 292              		.loc 2 136 12 is_stmt 0
 293 0198 033984FD 		ld	s2,-40(s0)
 294              	.LVL19:
 295              	.LBE10:
 296              	.LBE9:
  33:src/tcb.cpp   ****     running = Scheduler::get();
 297              		.loc 1 33 5 is_stmt 1
 298              	.LBB11:
 299              	.LBB12:
 300              		.file 3 "src/../h/tcb.hpp"
   1:src/../h/tcb.hpp **** //
GAS LISTING /tmp/ccx5Kw42.s 			page 10


   2:src/../h/tcb.hpp **** // Created by os on 4/26/22.
   3:src/../h/tcb.hpp **** //
   4:src/../h/tcb.hpp **** 
   5:src/../h/tcb.hpp **** #ifndef PROJECT_BASE_V1_0_TCB_HPP
   6:src/../h/tcb.hpp **** #define PROJECT_BASE_V1_0_TCB_HPP
   7:src/../h/tcb.hpp **** 
   8:src/../h/tcb.hpp **** #include "../lib/hw.h"
   9:src/../h/tcb.hpp **** #include "../h/syscall_cpp.hpp"
  10:src/../h/tcb.hpp **** 
  11:src/../h/tcb.hpp **** class Thread;
  12:src/../h/tcb.hpp **** 
  13:src/../h/tcb.hpp **** class TCB {
  14:src/../h/tcb.hpp ****         public:
  15:src/../h/tcb.hpp ****         ~TCB() { delete[] stack; }
  16:src/../h/tcb.hpp ****         bool isFinished() const { return finished; }
 301              		.loc 3 16 35
 302              		.loc 3 16 42 is_stmt 0
 303 019c 83C78402 		lbu	a5,40(s1)
 304              	.LVL20:
 305              	.LBE12:
 306              	.LBE11:
  33:src/tcb.cpp   ****     running = Scheduler::get();
 307              		.loc 1 33 5
 308 01a0 63800704 		beqz	a5,.L18
 309              	.L16:
  34:src/tcb.cpp   ****     Riscv::w_sstatus(sstatus);
 310              		.loc 1 34 5 is_stmt 1
  34:src/tcb.cpp   ****     Riscv::w_sstatus(sstatus);
 311              		.loc 1 34 29 is_stmt 0
 312 01a4 97000000 		call	_ZN9Scheduler3getEv@plt
 312      E7800000 
 313              	.LVL21:
  34:src/tcb.cpp   ****     Riscv::w_sstatus(sstatus);
 314              		.loc 1 34 13
 315 01ac 97070000 		sd	a0,.LANCHOR0,a5
 315      23B0A700 
  35:src/tcb.cpp   ****     TCB::contextSwitch(&old->context, &running->context);
 316              		.loc 1 35 5 is_stmt 1
 317              	.LVL22:
 318              	.LBB13:
 319              	.LBB14:
 137:src/../h/riscv.hpp **** }
 138:src/../h/riscv.hpp **** inline void Riscv::w_sstatus(uint64 sstatus) {
 139:src/../h/riscv.hpp ****     __asm__ volatile ("csrw sstatus, %[sstatus]" : : [sstatus] "r"(sstatus));
 320              		.loc 2 139 5
 321              		.loc 2 139 77 is_stmt 0
 322              	#APP
 323              	# 139 "src/../h/riscv.hpp" 1
 140              	}
 324              		csrw sstatus, s2
 325              	# 0 "" 2
 326              	.LVL23:
 327              	#NO_APP
 328              	.LBE14:
 329              	.LBE13:
  36:src/tcb.cpp   **** }
 330              		.loc 1 36 5 is_stmt 1
GAS LISTING /tmp/ccx5Kw42.s 			page 11


  36:src/tcb.cpp   **** }
 331              		.loc 1 36 23 is_stmt 0
 332 01b8 93050501 		addi	a1,a0,16
 333 01bc 13850401 		addi	a0,s1,16
 334 01c0 97000000 		call	_ZN3TCB13contextSwitchEPNS_7ContextES1_@plt
 334      E7800000 
 335              	.LVL24:
  37:src/tcb.cpp   **** 
 336              		.loc 1 37 1
 337 01c8 83308102 		ld	ra,40(sp)
 338              		.cfi_remember_state
 339              		.cfi_restore 1
 340 01cc 03340102 		ld	s0,32(sp)
 341              		.cfi_restore 8
 342              		.cfi_def_cfa 2, 48
 343 01d0 83348101 		ld	s1,24(sp)
 344              		.cfi_restore 9
 345              	.LVL25:
 346 01d4 03390101 		ld	s2,16(sp)
 347              		.cfi_restore 18
 348              	.LVL26:
 349 01d8 13010103 		addi	sp,sp,48
 350              		.cfi_def_cfa_offset 0
 351 01dc 67800000 		jr	ra
 352              	.LVL27:
 353              	.L18:
 354              		.cfi_restore_state
  33:src/tcb.cpp   ****     running = Scheduler::get();
 355              		.loc 1 33 31 is_stmt 1 discriminator 1
  33:src/tcb.cpp   ****     running = Scheduler::get();
 356              		.loc 1 33 45 is_stmt 0 discriminator 1
 357 01e0 13850400 		mv	a0,s1
 358 01e4 97000000 		call	_ZN9Scheduler3putEP3TCB@plt
 358      E7800000 
 359              	.LVL28:
 360 01ec 6FF09FFB 		j	.L16
 361              		.cfi_endproc
 362              	.LFE44:
 364              		.section	.rodata.str1.8,"aMS",@progbits,1
 365              		.align	3
 366              	.LC0:
 367 0000 496D616D 		.string	"Imam body.\n"
 367      20626F64 
 367      792E0A00 
 368 000c 00000000 		.align	3
 369              	.LC1:
 370 0010 4E656D61 		.string	"Nemam body.\n"
 370      6D20626F 
 370      64792E0A 
 370      00
 371              		.text
 372              		.align	2
 373              		.globl	_ZN3TCB9checkBodyEv
 375              	_ZN3TCB9checkBodyEv:
 376              	.LFB46:
  50:src/tcb.cpp   **** 
  51:src/tcb.cpp   **** bool TCB::checkBody() {
GAS LISTING /tmp/ccx5Kw42.s 			page 12


 377              		.loc 1 51 23 is_stmt 1
 378              		.cfi_startproc
 379              	.LVL29:
 380 01f0 130101FF 		addi	sp,sp,-16
 381              		.cfi_def_cfa_offset 16
 382 01f4 23341100 		sd	ra,8(sp)
 383 01f8 23308100 		sd	s0,0(sp)
 384              		.cfi_offset 1, -8
 385              		.cfi_offset 8, -16
 386 01fc 13040101 		addi	s0,sp,16
 387              		.cfi_def_cfa 8, 0
  52:src/tcb.cpp   ****     if(this->body != nullptr){
 388              		.loc 1 52 5
 389              		.loc 1 52 14 is_stmt 0
 390 0200 83370500 		ld	a5,0(a0)
 391              		.loc 1 52 5
 392 0204 63840702 		beqz	a5,.L20
  53:src/tcb.cpp   ****         printString("Imam body.\n");
 393              		.loc 1 53 9 is_stmt 1
 394              		.loc 1 53 20 is_stmt 0
 395 0208 17050000 		lla	a0,.LC0
 395      13050500 
 396              	.LVL30:
 397 0210 97000000 		call	_Z11printStringPKc@plt
 397      E7800000 
 398              	.LVL31:
  54:src/tcb.cpp   ****         return true;
 399              		.loc 1 54 9 is_stmt 1
 400              		.loc 1 54 16 is_stmt 0
 401 0218 13051000 		li	a0,1
 402              	.L21:
  55:src/tcb.cpp   ****     }else{
  56:src/tcb.cpp   ****         printString("Nemam body.\n");
  57:src/tcb.cpp   ****         return false;
  58:src/tcb.cpp   ****     }
  59:src/tcb.cpp   **** }
 403              		.loc 1 59 1
 404 021c 83308100 		ld	ra,8(sp)
 405              		.cfi_remember_state
 406              		.cfi_restore 1
 407 0220 03340100 		ld	s0,0(sp)
 408              		.cfi_restore 8
 409              		.cfi_def_cfa 2, 16
 410 0224 13010101 		addi	sp,sp,16
 411              		.cfi_def_cfa_offset 0
 412 0228 67800000 		jr	ra
 413              	.LVL32:
 414              	.L20:
 415              		.cfi_restore_state
  56:src/tcb.cpp   ****         return false;
 416              		.loc 1 56 9 is_stmt 1
  56:src/tcb.cpp   ****         return false;
 417              		.loc 1 56 20 is_stmt 0
 418 022c 17050000 		lla	a0,.LC1
 418      13050500 
 419              	.LVL33:
 420 0234 97000000 		call	_Z11printStringPKc@plt
GAS LISTING /tmp/ccx5Kw42.s 			page 13


 420      E7800000 
 421              	.LVL34:
  57:src/tcb.cpp   ****     }
 422              		.loc 1 57 9 is_stmt 1
  57:src/tcb.cpp   ****     }
 423              		.loc 1 57 16 is_stmt 0
 424 023c 13050000 		li	a0,0
 425 0240 6FF0DFFD 		j	.L21
 426              		.cfi_endproc
 427              	.LFE46:
 429              		.align	2
 430              		.globl	_ZN3TCB7setBodyEPFvvE
 432              	_ZN3TCB7setBodyEPFvvE:
 433              	.LFB47:
  60:src/tcb.cpp   **** 
  61:src/tcb.cpp   **** void TCB::setBody(TCB::Body body) {
 434              		.loc 1 61 35 is_stmt 1
 435              		.cfi_startproc
 436              	.LVL35:
 437 0244 130101FF 		addi	sp,sp,-16
 438              		.cfi_def_cfa_offset 16
 439 0248 23348100 		sd	s0,8(sp)
 440              		.cfi_offset 8, -8
 441 024c 13040101 		addi	s0,sp,16
 442              		.cfi_def_cfa 8, 0
  62:src/tcb.cpp   ****     this->body = body;
 443              		.loc 1 62 5
 444              		.loc 1 62 16 is_stmt 0
 445 0250 2330B500 		sd	a1,0(a0)
  63:src/tcb.cpp   **** }
 446              		.loc 1 63 1
 447 0254 03348100 		ld	s0,8(sp)
 448              		.cfi_restore 8
 449              		.cfi_def_cfa 2, 16
 450 0258 13010101 		addi	sp,sp,16
 451              		.cfi_def_cfa_offset 0
 452 025c 67800000 		jr	ra
 453              		.cfi_endproc
 454              	.LFE47:
 456              		.globl	_ZN3TCB16timeSliceCounterE
 457              		.globl	_ZN3TCB7runningE
 458              		.bss
 459              		.align	3
 460              		.set	.LANCHOR0,. + 0
 463              	_ZN3TCB7runningE:
 464 0000 00000000 		.zero	8
 464      00000000 
 467              	_ZN3TCB16timeSliceCounterE:
 468 0008 00000000 		.zero	8
 468      00000000 
 469              		.text
 470              	.Letext0:
 471              		.file 4 "src/../h/../lib/hw.h"
 472              		.file 5 "src/../h/scheduler.hpp"
 473              		.file 6 "src/../h/../h/syscall_c.hpp"
 474              		.file 7 "src/../h/print.hpp"
 3030              		.align	3
GAS LISTING /tmp/ccx5Kw42.s 			page 14


 3033              	DW.ref.__gxx_personality_v0:
 3034 0000 00000000 		.dword	__gxx_personality_v0
 3034      00000000 
 3035              		.ident	"GCC: (Ubuntu 9.4.0-1ubuntu1~20.04) 9.4.0"
 3036              		.section	.note.GNU-stack,"",@progbits
GAS LISTING /tmp/ccx5Kw42.s 			page 15


DEFINED SYMBOLS
                            *ABS*:0000000000000000 tcb.cpp
     /tmp/ccx5Kw42.s:9      .text:0000000000000000 _ZN3TCB13threadWrapperEv
     /tmp/ccx5Kw42.s:13     .text:0000000000000000 .L0 
     /tmp/ccx5Kw42.s:14     .text:0000000000000000 .L0 
     /tmp/ccx5Kw42.s:15     .text:0000000000000004 .L0 
     /tmp/ccx5Kw42.s:18     .text:000000000000000c .L0 
     /tmp/ccx5Kw42.s:19     .text:000000000000000c .L0 
     /tmp/ccx5Kw42.s:21     .text:0000000000000010 .L0 
     /tmp/ccx5Kw42.s:23     .text:0000000000000010 .L0 
     /tmp/ccx5Kw42.s:24     .text:0000000000000010 .L0 
     /tmp/ccx5Kw42.s:27     .text:0000000000000018 .L0 
     /tmp/ccx5Kw42.s:28     .text:0000000000000018 .L0 
     /tmp/ccx5Kw42.s:31     .text:0000000000000024 .L0 
     /tmp/ccx5Kw42.s:33     .text:0000000000000028 .L0 
     /tmp/ccx5Kw42.s:34     .text:0000000000000028 .L0 
     /tmp/ccx5Kw42.s:37     .text:0000000000000030 .L0 
     /tmp/ccx5Kw42.s:41     .text:0000000000000034 .L0 
     /tmp/ccx5Kw42.s:42     .text:0000000000000034 .L0 
     /tmp/ccx5Kw42.s:45     .text:000000000000003c .L0 
     /tmp/ccx5Kw42.s:46     .text:0000000000000040 .L0 
     /tmp/ccx5Kw42.s:48     .text:0000000000000044 .L0 
     /tmp/ccx5Kw42.s:49     .text:0000000000000044 .L0 
     /tmp/ccx5Kw42.s:51     .text:0000000000000048 .L0 
     /tmp/ccx5Kw42.s:53     .text:000000000000004c .L0 
     /tmp/ccx5Kw42.s:59     .text:000000000000004c _ZN3TCBC2EPFvvEm
     /tmp/ccx5Kw42.s:62     .text:000000000000004c .L0 
     /tmp/ccx5Kw42.s:64     .text:000000000000004c .L0 
     /tmp/ccx5Kw42.s:65     .text:0000000000000050 .L0 
     /tmp/ccx5Kw42.s:71     .text:0000000000000064 .L0 
     /tmp/ccx5Kw42.s:72     .text:0000000000000064 .L0 
     /tmp/ccx5Kw42.s:73     .text:0000000000000064 .L0 
     /tmp/ccx5Kw42.s:74     .text:0000000000000064 .L0 
     /tmp/ccx5Kw42.s:75     .text:0000000000000064 .L0 
     /tmp/ccx5Kw42.s:77     .text:0000000000000068 .L0 
     /tmp/ccx5Kw42.s:83     .text:0000000000000074 .L0 
     /tmp/ccx5Kw42.s:85     .text:0000000000000078 .L0 
     /tmp/ccx5Kw42.s:90     .text:0000000000000084 .L0 
     /tmp/ccx5Kw42.s:94     .text:0000000000000094 .L0 
     /tmp/ccx5Kw42.s:97     .text:000000000000009c .L0 
     /tmp/ccx5Kw42.s:102    .text:00000000000000ac .L0 
     /tmp/ccx5Kw42.s:104    .text:00000000000000b0 .L0 
     /tmp/ccx5Kw42.s:105    .text:00000000000000b0 .L0 
     /tmp/ccx5Kw42.s:110    .text:00000000000000bc .L0 
     /tmp/ccx5Kw42.s:111    .text:00000000000000bc .L0 
     /tmp/ccx5Kw42.s:114    .text:00000000000000c0 .L0 
     /tmp/ccx5Kw42.s:115    .text:00000000000000c4 .L0 
     /tmp/ccx5Kw42.s:117    .text:00000000000000c8 .L0 
     /tmp/ccx5Kw42.s:118    .text:00000000000000c8 .L0 
     /tmp/ccx5Kw42.s:120    .text:00000000000000cc .L0 
     /tmp/ccx5Kw42.s:123    .text:00000000000000d0 .L0 
     /tmp/ccx5Kw42.s:126    .text:00000000000000d4 .L0 
     /tmp/ccx5Kw42.s:129    .text:00000000000000d8 .L0 
     /tmp/ccx5Kw42.s:131    .text:00000000000000dc .L0 
     /tmp/ccx5Kw42.s:59     .text:000000000000004c _ZN3TCBC1EPFvvEm
     /tmp/ccx5Kw42.s:139    .text:00000000000000dc _ZN3TCB12createThreadEPFvvE
     /tmp/ccx5Kw42.s:142    .text:00000000000000dc .L0 
GAS LISTING /tmp/ccx5Kw42.s 			page 16


     /tmp/ccx5Kw42.s:3033   .data.rel.local.DW.ref.__gxx_personality_v0:0000000000000000 DW.ref.__gxx_personality_v0
     /tmp/ccx5Kw42.s:146    .text:00000000000000dc .L0 
     /tmp/ccx5Kw42.s:147    .text:00000000000000e0 .L0 
     /tmp/ccx5Kw42.s:152    .text:00000000000000f0 .L0 
     /tmp/ccx5Kw42.s:153    .text:00000000000000f0 .L0 
     /tmp/ccx5Kw42.s:154    .text:00000000000000f0 .L0 
     /tmp/ccx5Kw42.s:155    .text:00000000000000f0 .L0 
     /tmp/ccx5Kw42.s:157    .text:00000000000000f4 .L0 
     /tmp/ccx5Kw42.s:160    .text:00000000000000f8 .L0 
     /tmp/ccx5Kw42.s:161    .text:00000000000000f8 .L0 
     /tmp/ccx5Kw42.s:188    .text:0000000000000138 .L0 
     /tmp/ccx5Kw42.s:190    .text:0000000000000140 .L0 
     /tmp/ccx5Kw42.s:192    .text:0000000000000144 .L0 
     /tmp/ccx5Kw42.s:193    .text:0000000000000144 .L0 
     /tmp/ccx5Kw42.s:195    .text:0000000000000148 .L0 
     /tmp/ccx5Kw42.s:197    .text:000000000000014c .L0 
     /tmp/ccx5Kw42.s:200    .text:0000000000000150 .L0 
     /tmp/ccx5Kw42.s:202    .text:0000000000000154 .L0 
     /tmp/ccx5Kw42.s:228    .text:0000000000000154 _ZN3TCB5yieldEv
     /tmp/ccx5Kw42.s:231    .text:0000000000000154 .L0 
     /tmp/ccx5Kw42.s:232    .text:0000000000000154 .L0 
     /tmp/ccx5Kw42.s:233    .text:0000000000000158 .L0 
     /tmp/ccx5Kw42.s:235    .text:000000000000015c .L0 
     /tmp/ccx5Kw42.s:237    .text:0000000000000160 .L0 
     /tmp/ccx5Kw42.s:239    .text:0000000000000160 .L0 
         src/tcb.cpp:28     .text:0000000000000160 .L0 
     /tmp/ccx5Kw42.s:246    .text:0000000000000164 .L0 
     /tmp/ccx5Kw42.s:247    .text:0000000000000168 .L0 
     /tmp/ccx5Kw42.s:248    .text:0000000000000168 .L0 
     /tmp/ccx5Kw42.s:250    .text:000000000000016c .L0 
     /tmp/ccx5Kw42.s:252    .text:0000000000000170 .L0 
     /tmp/ccx5Kw42.s:258    .text:0000000000000170 _ZN3TCB8dispatchEv
     /tmp/ccx5Kw42.s:261    .text:0000000000000170 .L0 
     /tmp/ccx5Kw42.s:262    .text:0000000000000170 .L0 
     /tmp/ccx5Kw42.s:263    .text:0000000000000174 .L0 
     /tmp/ccx5Kw42.s:268    .text:0000000000000184 .L0 
     /tmp/ccx5Kw42.s:269    .text:0000000000000184 .L0 
     /tmp/ccx5Kw42.s:270    .text:0000000000000184 .L0 
     /tmp/ccx5Kw42.s:271    .text:0000000000000184 .L0 
     /tmp/ccx5Kw42.s:273    .text:0000000000000188 .L0 
     /tmp/ccx5Kw42.s:275    .text:0000000000000188 .L0 
     /tmp/ccx5Kw42.s:276    .text:0000000000000188 .L0 
     /tmp/ccx5Kw42.s:282    .text:0000000000000190 .L0 
     /tmp/ccx5Kw42.s:283    .text:0000000000000190 .L0 
     /tmp/ccx5Kw42.s:284    .text:0000000000000190 .L0 
  src/../h/riscv.hpp:135    .text:0000000000000190 .L0 
     /tmp/ccx5Kw42.s:292    .text:0000000000000198 .L0 
     /tmp/ccx5Kw42.s:293    .text:0000000000000198 .L0 
     /tmp/ccx5Kw42.s:301    .text:000000000000019c .L0 
     /tmp/ccx5Kw42.s:302    .text:000000000000019c .L0 
     /tmp/ccx5Kw42.s:303    .text:000000000000019c .L0 
     /tmp/ccx5Kw42.s:308    .text:00000000000001a0 .L0 
     /tmp/ccx5Kw42.s:311    .text:00000000000001a4 .L0 
     /tmp/ccx5Kw42.s:312    .text:00000000000001a4 .L0 
     /tmp/ccx5Kw42.s:315    .text:00000000000001ac .L0 
     /tmp/ccx5Kw42.s:320    .text:00000000000001b4 .L0 
     /tmp/ccx5Kw42.s:321    .text:00000000000001b4 .L0 
GAS LISTING /tmp/ccx5Kw42.s 			page 17


  src/../h/riscv.hpp:139    .text:00000000000001b4 .L0 
     /tmp/ccx5Kw42.s:331    .text:00000000000001b8 .L0 
     /tmp/ccx5Kw42.s:332    .text:00000000000001b8 .L0 
     /tmp/ccx5Kw42.s:337    .text:00000000000001c8 .L0 
     /tmp/ccx5Kw42.s:338    .text:00000000000001cc .L0 
     /tmp/ccx5Kw42.s:339    .text:00000000000001cc .L0 
     /tmp/ccx5Kw42.s:341    .text:00000000000001d0 .L0 
     /tmp/ccx5Kw42.s:342    .text:00000000000001d0 .L0 
     /tmp/ccx5Kw42.s:344    .text:00000000000001d4 .L0 
     /tmp/ccx5Kw42.s:347    .text:00000000000001d8 .L0 
     /tmp/ccx5Kw42.s:350    .text:00000000000001dc .L0 
     /tmp/ccx5Kw42.s:354    .text:00000000000001e0 .L0 
     /tmp/ccx5Kw42.s:356    .text:00000000000001e0 .L0 
     /tmp/ccx5Kw42.s:357    .text:00000000000001e0 .L0 
     /tmp/ccx5Kw42.s:361    .text:00000000000001f0 .L0 
     /tmp/ccx5Kw42.s:375    .text:00000000000001f0 _ZN3TCB9checkBodyEv
     /tmp/ccx5Kw42.s:378    .text:00000000000001f0 .L0 
     /tmp/ccx5Kw42.s:380    .text:00000000000001f0 .L0 
     /tmp/ccx5Kw42.s:381    .text:00000000000001f4 .L0 
     /tmp/ccx5Kw42.s:384    .text:00000000000001fc .L0 
     /tmp/ccx5Kw42.s:385    .text:00000000000001fc .L0 
     /tmp/ccx5Kw42.s:387    .text:0000000000000200 .L0 
     /tmp/ccx5Kw42.s:389    .text:0000000000000200 .L0 
     /tmp/ccx5Kw42.s:390    .text:0000000000000200 .L0 
     /tmp/ccx5Kw42.s:392    .text:0000000000000204 .L0 
     /tmp/ccx5Kw42.s:394    .text:0000000000000208 .L0 
     /tmp/ccx5Kw42.s:395    .text:0000000000000208 .L0 
     /tmp/ccx5Kw42.s:400    .text:0000000000000218 .L0 
     /tmp/ccx5Kw42.s:401    .text:0000000000000218 .L0 
     /tmp/ccx5Kw42.s:404    .text:000000000000021c .L0 
     /tmp/ccx5Kw42.s:405    .text:0000000000000220 .L0 
     /tmp/ccx5Kw42.s:406    .text:0000000000000220 .L0 
     /tmp/ccx5Kw42.s:408    .text:0000000000000224 .L0 
     /tmp/ccx5Kw42.s:409    .text:0000000000000224 .L0 
     /tmp/ccx5Kw42.s:411    .text:0000000000000228 .L0 
     /tmp/ccx5Kw42.s:415    .text:000000000000022c .L0 
     /tmp/ccx5Kw42.s:417    .text:000000000000022c .L0 
     /tmp/ccx5Kw42.s:418    .text:000000000000022c .L0 
     /tmp/ccx5Kw42.s:423    .text:000000000000023c .L0 
     /tmp/ccx5Kw42.s:424    .text:000000000000023c .L0 
     /tmp/ccx5Kw42.s:426    .text:0000000000000244 .L0 
     /tmp/ccx5Kw42.s:432    .text:0000000000000244 _ZN3TCB7setBodyEPFvvE
     /tmp/ccx5Kw42.s:435    .text:0000000000000244 .L0 
     /tmp/ccx5Kw42.s:437    .text:0000000000000244 .L0 
     /tmp/ccx5Kw42.s:438    .text:0000000000000248 .L0 
     /tmp/ccx5Kw42.s:440    .text:000000000000024c .L0 
     /tmp/ccx5Kw42.s:442    .text:0000000000000250 .L0 
     /tmp/ccx5Kw42.s:444    .text:0000000000000250 .L0 
     /tmp/ccx5Kw42.s:445    .text:0000000000000250 .L0 
     /tmp/ccx5Kw42.s:447    .text:0000000000000254 .L0 
     /tmp/ccx5Kw42.s:448    .text:0000000000000258 .L0 
     /tmp/ccx5Kw42.s:449    .text:0000000000000258 .L0 
     /tmp/ccx5Kw42.s:451    .text:000000000000025c .L0 
     /tmp/ccx5Kw42.s:453    .text:0000000000000260 .L0 
     /tmp/ccx5Kw42.s:467    .bss:0000000000000008 _ZN3TCB16timeSliceCounterE
     /tmp/ccx5Kw42.s:463    .bss:0000000000000000 _ZN3TCB7runningE
     /tmp/ccx5Kw42.s:460    .bss:0000000000000000 .LANCHOR0
GAS LISTING /tmp/ccx5Kw42.s 			page 18


     /tmp/ccx5Kw42.s:475    .text:0000000000000260 .L0 
     /tmp/ccx5Kw42.s:28     .text:0000000000000018 .L0 
     /tmp/ccx5Kw42.s:91     .text:0000000000000088 .L0 
     /tmp/ccx5Kw42.s:276    .text:0000000000000188 .L0 
     /tmp/ccx5Kw42.s:315    .text:00000000000001ac .L0 
     /tmp/ccx5Kw42.s:366    .rodata.str1.8:0000000000000000 .LC0
     /tmp/ccx5Kw42.s:395    .text:0000000000000208 .L0 
     /tmp/ccx5Kw42.s:369    .rodata.str1.8:0000000000000010 .LC1
     /tmp/ccx5Kw42.s:418    .text:000000000000022c .L0 
     /tmp/ccx5Kw42.s:39     .text:0000000000000034 .L2
     /tmp/ccx5Kw42.s:108    .text:00000000000000bc .L5
     /tmp/ccx5Kw42.s:186    .text:0000000000000138 .L12
     /tmp/ccx5Kw42.s:353    .text:00000000000001e0 .L18
     /tmp/ccx5Kw42.s:309    .text:00000000000001a4 .L16
     /tmp/ccx5Kw42.s:414    .text:000000000000022c .L20
     /tmp/ccx5Kw42.s:402    .text:000000000000021c .L21
     /tmp/ccx5Kw42.s:163    .text:00000000000000fc .LEHB0
     /tmp/ccx5Kw42.s:140    .text:00000000000000dc .LFB42
     /tmp/ccx5Kw42.s:166    .text:0000000000000104 .LEHE0
     /tmp/ccx5Kw42.s:170    .text:0000000000000110 .LEHB1
     /tmp/ccx5Kw42.s:173    .text:0000000000000118 .LEHE1
     /tmp/ccx5Kw42.s:175    .text:000000000000011c .L9
     /tmp/ccx5Kw42.s:182    .text:0000000000000130 .LEHB2
     /tmp/ccx5Kw42.s:185    .text:0000000000000138 .LEHE2
     /tmp/ccx5Kw42.s:1557   .debug_abbrev:0000000000000000 .Ldebug_abbrev0
     /tmp/ccx5Kw42.s:2991   .debug_str:000000000000064a .LASF117
     /tmp/ccx5Kw42.s:2903   .debug_str:00000000000003de .LASF118
     /tmp/ccx5Kw42.s:2975   .debug_str:00000000000005bf .LASF119
     /tmp/ccx5Kw42.s:5      .text:0000000000000000 .Ltext0
     /tmp/ccx5Kw42.s:470    .text:0000000000000260 .Letext0
     /tmp/ccx5Kw42.s:2769   .debug_line:0000000000000000 .Ldebug_line0
     /tmp/ccx5Kw42.s:2917   .debug_str:0000000000000438 .LASF0
     /tmp/ccx5Kw42.s:2927   .debug_str:0000000000000465 .LASF1
     /tmp/ccx5Kw42.s:2907   .debug_str:00000000000003f1 .LASF2
     /tmp/ccx5Kw42.s:2873   .debug_str:0000000000000306 .LASF4
     /tmp/ccx5Kw42.s:2967   .debug_str:0000000000000581 .LASF3
     /tmp/ccx5Kw42.s:2799   .debug_str:00000000000000a2 .LASF5
     /tmp/ccx5Kw42.s:2931   .debug_str:0000000000000489 .LASF6
     /tmp/ccx5Kw42.s:2915   .debug_str:0000000000000425 .LASF7
     /tmp/ccx5Kw42.s:3001   .debug_str:0000000000000735 .LASF8
     /tmp/ccx5Kw42.s:2857   .debug_str:000000000000025e .LASF9
     /tmp/ccx5Kw42.s:2943   .debug_str:00000000000004dc .LASF10
     /tmp/ccx5Kw42.s:2993   .debug_str:000000000000070e .LASF11
     /tmp/ccx5Kw42.s:2803   .debug_str:00000000000000b1 .LASF12
     /tmp/ccx5Kw42.s:2777   .debug_str:000000000000001a .LASF13
     /tmp/ccx5Kw42.s:2813   .debug_str:0000000000000113 .LASF14
     /tmp/ccx5Kw42.s:2959   .debug_str:000000000000053d .LASF15
     /tmp/ccx5Kw42.s:2821   .debug_str:0000000000000152 .LASF16
     /tmp/ccx5Kw42.s:2785   .debug_str:0000000000000043 .LASF120
     /tmp/ccx5Kw42.s:2831   .debug_str:00000000000001b9 .LASF17
     /tmp/ccx5Kw42.s:2951   .debug_str:0000000000000519 .LASF19
     /tmp/ccx5Kw42.s:2933   .debug_str:000000000000049c .LASF21
     /tmp/ccx5Kw42.s:2855   .debug_str:0000000000000247 .LASF23
     /tmp/ccx5Kw42.s:2909   .debug_str:00000000000003ff .LASF18
     /tmp/ccx5Kw42.s:2869   .debug_str:00000000000002c7 .LASF20
     /tmp/ccx5Kw42.s:2901   .debug_str:00000000000003d1 .LASF22
     /tmp/ccx5Kw42.s:2797   .debug_str:0000000000000089 .LASF24
GAS LISTING /tmp/ccx5Kw42.s 			page 19


     /tmp/ccx5Kw42.s:2887   .debug_str:000000000000034e .LASF25
     /tmp/ccx5Kw42.s:2899   .debug_str:00000000000003b5 .LASF26
     /tmp/ccx5Kw42.s:2955   .debug_str:000000000000052d .LASF121
     /tmp/ccx5Kw42.s:2961   .debug_str:0000000000000553 .LASF61
     /tmp/ccx5Kw42.s:2913   .debug_str:0000000000000415 .LASF63
     /tmp/ccx5Kw42.s:2835   .debug_str:00000000000001c7 .LASF122
     /tmp/ccx5Kw42.s:2771   .debug_str:0000000000000000 .LASF27
     /tmp/ccx5Kw42.s:2793   .debug_str:0000000000000064 .LASF28
     /tmp/ccx5Kw42.s:2783   .debug_str:0000000000000039 .LASF29
     /tmp/ccx5Kw42.s:2889   .debug_str:000000000000035b .LASF30
     /tmp/ccx5Kw42.s:2877   .debug_str:0000000000000322 .LASF31
     /tmp/ccx5Kw42.s:3011   .debug_str:0000000000000786 .LASF32
     /tmp/ccx5Kw42.s:2801   .debug_str:00000000000000a9 .LASF33
     /tmp/ccx5Kw42.s:2859   .debug_str:000000000000026c .LASF34
     /tmp/ccx5Kw42.s:2995   .debug_str:000000000000071d .LASF35
     /tmp/ccx5Kw42.s:2825   .debug_str:000000000000017c .LASF36
     /tmp/ccx5Kw42.s:2847   .debug_str:000000000000021e .LASF37
     /tmp/ccx5Kw42.s:3009   .debug_str:0000000000000774 .LASF38
     /tmp/ccx5Kw42.s:2977   .debug_str:00000000000005da .LASF123
     /tmp/ccx5Kw42.s:2881   .debug_str:0000000000000336 .LASF39
     /tmp/ccx5Kw42.s:2923   .debug_str:0000000000000455 .LASF40
     /tmp/ccx5Kw42.s:2885   .debug_str:0000000000000346 .LASF41
     /tmp/ccx5Kw42.s:2925   .debug_str:000000000000045b .LASF42
     /tmp/ccx5Kw42.s:2879   .debug_str:000000000000032d .LASF43
     /tmp/ccx5Kw42.s:2773   .debug_str:000000000000000a .LASF44
     /tmp/ccx5Kw42.s:2999   .debug_str:000000000000072c .LASF45
     /tmp/ccx5Kw42.s:2893   .debug_str:000000000000037b .LASF46
     /tmp/ccx5Kw42.s:2863   .debug_str:0000000000000294 .LASF48
     /tmp/ccx5Kw42.s:3005   .debug_str:0000000000000759 .LASF57
     /tmp/ccx5Kw42.s:2871   .debug_str:00000000000002de .LASF124
     /tmp/ccx5Kw42.s:2921   .debug_str:000000000000044c .LASF47
     /tmp/ccx5Kw42.s:2841   .debug_str:00000000000001eb .LASF49
     /tmp/ccx5Kw42.s:2969   .debug_str:0000000000000593 .LASF55
     /tmp/ccx5Kw42.s:2891   .debug_str:0000000000000370 .LASF50
     /tmp/ccx5Kw42.s:2865   .debug_str:00000000000002ad .LASF51
     /tmp/ccx5Kw42.s:2935   .debug_str:00000000000004a7 .LASF52
     /tmp/ccx5Kw42.s:2843   .debug_str:00000000000001fe .LASF53
     /tmp/ccx5Kw42.s:2997   .debug_str:0000000000000725 .LASF58
     /tmp/ccx5Kw42.s:2941   .debug_str:00000000000004d2 .LASF54
     /tmp/ccx5Kw42.s:3003   .debug_str:0000000000000745 .LASF56
     /tmp/ccx5Kw42.s:2829   .debug_str:00000000000001a5 .LASF125
     /tmp/ccx5Kw42.s:2809   .debug_str:00000000000000f1 .LASF126
     /tmp/ccx5Kw42.s:2897   .debug_str:00000000000003ab .LASF59
     /tmp/ccx5Kw42.s:2815   .debug_str:000000000000011f .LASF60
     /tmp/ccx5Kw42.s:2957   .debug_str:0000000000000532 .LASF62
     /tmp/ccx5Kw42.s:3017   .debug_str:00000000000007b4 .LASF64
     /tmp/ccx5Kw42.s:2779   .debug_str:000000000000002a .LASF65
     /tmp/ccx5Kw42.s:2981   .debug_str:00000000000005f1 .LASF68
     /tmp/ccx5Kw42.s:2833   .debug_str:00000000000001be .LASF66
     /tmp/ccx5Kw42.s:2817   .debug_str:0000000000000125 .LASF71
     /tmp/ccx5Kw42.s:2971   .debug_str:00000000000005a4 .LASF67
     /tmp/ccx5Kw42.s:2949   .debug_str:0000000000000506 .LASF69
     /tmp/ccx5Kw42.s:2989   .debug_str:0000000000000643 .LASF70
     /tmp/ccx5Kw42.s:2985   .debug_str:000000000000061e .LASF72
     /tmp/ccx5Kw42.s:2851   .debug_str:0000000000000239 .LASF73
     /tmp/ccx5Kw42.s:2823   .debug_str:0000000000000168 .LASF74
     /tmp/ccx5Kw42.s:2775   .debug_str:0000000000000012 .LASF75
GAS LISTING /tmp/ccx5Kw42.s 			page 20


     /tmp/ccx5Kw42.s:2973   .debug_str:00000000000005ab .LASF76
     /tmp/ccx5Kw42.s:2837   .debug_str:00000000000001cf .LASF77
     /tmp/ccx5Kw42.s:2805   .debug_str:00000000000000c1 .LASF78
     /tmp/ccx5Kw42.s:3021   .debug_str:00000000000007d7 .LASF79
     /tmp/ccx5Kw42.s:2839   .debug_str:00000000000001d7 .LASF80
     /tmp/ccx5Kw42.s:2919   .debug_str:0000000000000445 .LASF81
     /tmp/ccx5Kw42.s:3013   .debug_str:000000000000079c .LASF82
     /tmp/ccx5Kw42.s:2791   .debug_str:000000000000005d .LASF83
     /tmp/ccx5Kw42.s:2849   .debug_str:0000000000000226 .LASF84
     /tmp/ccx5Kw42.s:2853   .debug_str:0000000000000241 .LASF85
     /tmp/ccx5Kw42.s:2987   .debug_str:0000000000000631 .LASF86
     /tmp/ccx5Kw42.s:2789   .debug_str:0000000000000057 .LASF87
     /tmp/ccx5Kw42.s:3025   .debug_str:00000000000007f0 .LASF88
     /tmp/ccx5Kw42.s:3019   .debug_str:00000000000007cc .LASF89
     /tmp/ccx5Kw42.s:2965   .debug_str:0000000000000569 .LASF90
     /tmp/ccx5Kw42.s:2883   .debug_str:000000000000033b .LASF91
     /tmp/ccx5Kw42.s:2983   .debug_str:0000000000000606 .LASF92
     /tmp/ccx5Kw42.s:2811   .debug_str:0000000000000109 .LASF93
     /tmp/ccx5Kw42.s:2939   .debug_str:00000000000004bc .LASF94
     /tmp/ccx5Kw42.s:2911   .debug_str:000000000000040b .LASF95
     /tmp/ccx5Kw42.s:2861   .debug_str:000000000000027e .LASF96
     /tmp/ccx5Kw42.s:2945   .debug_str:00000000000004eb .LASF97
     /tmp/ccx5Kw42.s:2807   .debug_str:00000000000000d5 .LASF98
     /tmp/ccx5Kw42.s:2875   .debug_str:000000000000030d .LASF99
     /tmp/ccx5Kw42.s:2895   .debug_str:0000000000000389 .LASF100
     /tmp/ccx5Kw42.s:3023   .debug_str:00000000000007df .LASF101
     /tmp/ccx5Kw42.s:2845   .debug_str:0000000000000203 .LASF102
     /tmp/ccx5Kw42.s:433    .text:0000000000000244 .LFB47
     /tmp/ccx5Kw42.s:454    .text:0000000000000260 .LFE47
     /tmp/ccx5Kw42.s:3015   .debug_str:00000000000007af .LASF103
     /tmp/ccx5Kw42.s:376    .text:00000000000001f0 .LFB46
     /tmp/ccx5Kw42.s:427    .text:0000000000000244 .LFE46
     /tmp/ccx5Kw42.s:2612   .debug_loc:0000000000000000 .LLST8
     /tmp/ccx5Kw42.s:398    .text:0000000000000218 .LVL31
     /tmp/ccx5Kw42.s:421    .text:000000000000023c .LVL34
     /tmp/ccx5Kw42.s:10     .text:0000000000000000 .LFB45
     /tmp/ccx5Kw42.s:54     .text:000000000000004c .LFE45
     /tmp/ccx5Kw42.s:25     .text:0000000000000018 .LVL0
     /tmp/ccx5Kw42.s:43     .text:000000000000003c .LVL2
     /tmp/ccx5Kw42.s:259    .text:0000000000000170 .LFB44
     /tmp/ccx5Kw42.s:362    .text:00000000000001f0 .LFE44
     /tmp/ccx5Kw42.s:2637   .debug_loc:0000000000000062 .LLST4
     /tmp/ccx5Kw42.s:2953   .debug_str:0000000000000525 .LASF104
     /tmp/ccx5Kw42.s:2648   .debug_loc:0000000000000098 .LLST5
     /tmp/ccx5Kw42.s:279    .text:0000000000000190 .LBB9
     /tmp/ccx5Kw42.s:296    .text:000000000000019c .LBE9
     /tmp/ccx5Kw42.s:298    .text:000000000000019c .LBB11
     /tmp/ccx5Kw42.s:306    .text:00000000000001a0 .LBE11
     /tmp/ccx5Kw42.s:2659   .debug_loc:00000000000000ce .LLST6
     /tmp/ccx5Kw42.s:318    .text:00000000000001b4 .LBB13
     /tmp/ccx5Kw42.s:329    .text:00000000000001b8 .LBE13
     /tmp/ccx5Kw42.s:2666   .debug_loc:00000000000000f1 .LLST7
     /tmp/ccx5Kw42.s:313    .text:00000000000001ac .LVL21
     /tmp/ccx5Kw42.s:335    .text:00000000000001c8 .LVL24
     /tmp/ccx5Kw42.s:359    .text:00000000000001ec .LVL28
     /tmp/ccx5Kw42.s:229    .text:0000000000000154 .LFB43
     /tmp/ccx5Kw42.s:253    .text:0000000000000170 .LFE43
GAS LISTING /tmp/ccx5Kw42.s 			page 21


     /tmp/ccx5Kw42.s:203    .text:0000000000000154 .LFE42
     /tmp/ccx5Kw42.s:2673   .debug_loc:0000000000000114 .LLST3
     /tmp/ccx5Kw42.s:165    .text:0000000000000104 .LVL12
     /tmp/ccx5Kw42.s:172    .text:0000000000000118 .LVL13
     /tmp/ccx5Kw42.s:180    .text:000000000000012c .LVL15
     /tmp/ccx5Kw42.s:184    .text:0000000000000138 .LVL16
     /tmp/ccx5Kw42.s:2795   .debug_str:0000000000000078 .LASF127
     /tmp/ccx5Kw42.s:60     .text:000000000000004c .LFB40
     /tmp/ccx5Kw42.s:132    .text:00000000000000dc .LFE40
     /tmp/ccx5Kw42.s:2702   .debug_loc:0000000000000189 .LLST0
     /tmp/ccx5Kw42.s:2720   .debug_loc:00000000000001d5 .LLST1
     /tmp/ccx5Kw42.s:2738   .debug_loc:0000000000000221 .LLST2
     /tmp/ccx5Kw42.s:88     .text:0000000000000084 .LVL5
     /tmp/ccx5Kw42.s:107    .text:00000000000000bc .LVL6
     /tmp/ccx5Kw42.s:2827   .debug_str:0000000000000192 .LASF105
     /tmp/ccx5Kw42.s:2947   .debug_str:00000000000004fa .LASF107
     /tmp/ccx5Kw42.s:2929   .debug_str:0000000000000478 .LASF106
     /tmp/ccx5Kw42.s:2787   .debug_str:000000000000004b .LASF108
     /tmp/ccx5Kw42.s:2781   .debug_str:0000000000000033 .LASF109
     /tmp/ccx5Kw42.s:3007   .debug_str:0000000000000767 .LASF111
     /tmp/ccx5Kw42.s:2905   .debug_str:00000000000003ea .LASF110
     /tmp/ccx5Kw42.s:2937   .debug_str:00000000000004ac .LASF112
     /tmp/ccx5Kw42.s:2867   .debug_str:00000000000002b8 .LASF113
     /tmp/ccx5Kw42.s:2819   .debug_str:000000000000013a .LASF114
     /tmp/ccx5Kw42.s:2979   .debug_str:00000000000005eb .LASF115
     /tmp/ccx5Kw42.s:2963   .debug_str:0000000000000559 .LASF116
     /tmp/ccx5Kw42.s:379    .text:00000000000001f0 .LVL29
     /tmp/ccx5Kw42.s:396    .text:0000000000000210 .LVL30
     /tmp/ccx5Kw42.s:413    .text:000000000000022c .LVL32
     /tmp/ccx5Kw42.s:419    .text:0000000000000234 .LVL33
     /tmp/ccx5Kw42.s:277    .text:0000000000000190 .LVL18
     /tmp/ccx5Kw42.s:345    .text:00000000000001d4 .LVL25
     /tmp/ccx5Kw42.s:352    .text:00000000000001e0 .LVL27
     /tmp/ccx5Kw42.s:294    .text:000000000000019c .LVL19
     /tmp/ccx5Kw42.s:348    .text:00000000000001d8 .LVL26
     /tmp/ccx5Kw42.s:304    .text:00000000000001a0 .LVL20
     /tmp/ccx5Kw42.s:317    .text:00000000000001b4 .LVL22
     /tmp/ccx5Kw42.s:326    .text:00000000000001b8 .LVL23
     /tmp/ccx5Kw42.s:145    .text:00000000000000dc .LVL10
     /tmp/ccx5Kw42.s:162    .text:00000000000000fc .LVL11
     /tmp/ccx5Kw42.s:177    .text:0000000000000120 .LVL14
     /tmp/ccx5Kw42.s:198    .text:000000000000014c .LVL17
     /tmp/ccx5Kw42.s:63     .text:000000000000004c .LVL3
     /tmp/ccx5Kw42.s:86     .text:000000000000007c .LVL4
     /tmp/ccx5Kw42.s:121    .text:00000000000000cc .LVL7
     /tmp/ccx5Kw42.s:124    .text:00000000000000d0 .LVL8
     /tmp/ccx5Kw42.s:127    .text:00000000000000d4 .LVL9
     /tmp/ccx5Kw42.s:476    .debug_info:0000000000000000 .Ldebug_info0
     /tmp/ccx5Kw42.s:206    .gcc_except_table:0000000000000000 .LLSDA42

UNDEFINED SYMBOLS
_ZN5Riscv10popSppSpieEv
_Z11thread_exitv
_Znam
_ZN9Scheduler3putEP3TCB
_Znwm
_ZdlPv
GAS LISTING /tmp/ccx5Kw42.s 			page 22


_Unwind_Resume
__gxx_personality_v0
_ZN9Scheduler3getEv
_ZN3TCB13contextSwitchEPNS_7ContextES1_
_Z11printStringPKc
