GAS LISTING /tmp/ccahJZJb.s 			page 1


   1              		.file	"tcb.cpp"
   2              		.option pic
   3              		.option norelax
   4              		.text
   5              	.Ltext0:
   6              		.align	2
   7              		.globl	_ZN3TCBC2EPFvvEm
   9              	_ZN3TCBC2EPFvvEm:
  10              	.LFB31:
  11              		.file 1 "src/tcb.cpp"
   1:src/tcb.cpp   **** //
   2:src/tcb.cpp   **** // Created by os on 4/26/22.
   3:src/tcb.cpp   **** //
   4:src/tcb.cpp   **** 
   5:src/tcb.cpp   **** #include "../h/tcb.hpp"
   6:src/tcb.cpp   **** #include "../h/scheduler.hpp"
   7:src/tcb.cpp   **** #include "../h/riscv.hpp"
   8:src/tcb.cpp   **** 
   9:src/tcb.cpp   **** 
  10:src/tcb.cpp   **** TCB *TCB::running = nullptr;
  11:src/tcb.cpp   **** uint64 TCB::timeSliceCounter = 0;
  12:src/tcb.cpp   **** 
  13:src/tcb.cpp   **** TCB::TCB(Body body, uint64 timeSlice) : body(body),
  12              		.loc 1 13 1
  13              		.cfi_startproc
  14              	.LVL0:
  15 0000 130101FD 		addi	sp,sp,-48
  16              		.cfi_def_cfa_offset 48
  17 0004 23341102 		sd	ra,40(sp)
  18 0008 23308102 		sd	s0,32(sp)
  19 000c 233C9100 		sd	s1,24(sp)
  20 0010 23382101 		sd	s2,16(sp)
  21 0014 23343101 		sd	s3,8(sp)
  22              		.cfi_offset 1, -8
  23              		.cfi_offset 8, -16
  24              		.cfi_offset 9, -24
  25              		.cfi_offset 18, -32
  26              		.cfi_offset 19, -40
  27 0018 13040103 		addi	s0,sp,48
  28              		.cfi_def_cfa 8, 0
  29 001c 93040500 		mv	s1,a0
  30 0020 13890500 		mv	s2,a1
  31 0024 93090600 		mv	s3,a2
  32              	.LBB10:
  14:src/tcb.cpp   **** stack(body != nullptr ? new uint64[STACK_SIZE] : nullptr),
  15:src/tcb.cpp   **** context({(uint64) &threadWrapper,
  16:src/tcb.cpp   ****          stack != nullptr ? (uint64) &stack[STACK_SIZE] : 0 }),
  17:src/tcb.cpp   **** timeSlice(timeSlice),
  18:src/tcb.cpp   **** finished(false) { if (body != nullptr) { Scheduler::put(this); } }
  33              		.loc 1 18 15 is_stmt 0
  34 0028 2330B500 		sd	a1,0(a0)
  14:src/tcb.cpp   **** stack(body != nullptr ? new uint64[STACK_SIZE] : nullptr),
  35              		.loc 1 14 23
  36 002c 63820506 		beqz	a1,.L5
  14:src/tcb.cpp   **** stack(body != nullptr ? new uint64[STACK_SIZE] : nullptr),
  37              		.loc 1 14 46 discriminator 1
  38 0030 37250000 		li	a0,8192
GAS LISTING /tmp/ccahJZJb.s 			page 2


  39              	.LVL1:
  40 0034 97000000 		call	_Znam@plt
  40      E7800000 
  41              	.LVL2:
  42              	.L2:
  43              		.loc 1 18 15
  44 003c 23B4A400 		sd	a0,8(s1)
  45 0040 97070000 		lla	a5,_ZN3TCB13threadWrapperEv
  45      93870700 
  46 0048 23B8F400 		sd	a5,16(s1)
  16:src/tcb.cpp   **** timeSlice(timeSlice),
  47              		.loc 1 16 27
  48 004c 63060504 		beqz	a0,.L6
  16:src/tcb.cpp   **** timeSlice(timeSlice),
  49              		.loc 1 16 38 discriminator 1
  50 0050 B7270000 		li	a5,8192
  51 0054 3305F500 		add	a0,a0,a5
  52              	.L3:
  53              		.loc 1 18 15
  54 0058 23BCA400 		sd	a0,24(s1)
  55 005c 23B03403 		sd	s3,32(s1)
  56 0060 23840402 		sb	zero,40(s1)
  57              		.loc 1 18 19 is_stmt 1
  58 0064 63080900 		beqz	s2,.L1
  59              		.loc 1 18 42 discriminator 1
  60              		.loc 1 18 56 is_stmt 0 discriminator 1
  61 0068 13850400 		mv	a0,s1
  62 006c 97000000 		call	_ZN9Scheduler3putEP3TCB@plt
  62      E7800000 
  63              	.LVL3:
  64              	.L1:
  65              	.LBE10:
  66              		.loc 1 18 66
  67 0074 83308102 		ld	ra,40(sp)
  68              		.cfi_remember_state
  69              		.cfi_restore 1
  70 0078 03340102 		ld	s0,32(sp)
  71              		.cfi_restore 8
  72              		.cfi_def_cfa 2, 48
  73 007c 83348101 		ld	s1,24(sp)
  74              		.cfi_restore 9
  75              	.LVL4:
  76 0080 03390101 		ld	s2,16(sp)
  77              		.cfi_restore 18
  78              	.LVL5:
  79 0084 83398100 		ld	s3,8(sp)
  80              		.cfi_restore 19
  81              	.LVL6:
  82 0088 13010103 		addi	sp,sp,48
  83              		.cfi_def_cfa_offset 0
  84 008c 67800000 		jr	ra
  85              	.LVL7:
  86              	.L5:
  87              		.cfi_restore_state
  88              	.LBB11:
  14:src/tcb.cpp   **** stack(body != nullptr ? new uint64[STACK_SIZE] : nullptr),
  89              		.loc 1 14 23
GAS LISTING /tmp/ccahJZJb.s 			page 3


  90 0090 13050000 		li	a0,0
  91 0094 6FF09FFA 		j	.L2
  92              	.LVL8:
  93              	.L6:
  16:src/tcb.cpp   **** timeSlice(timeSlice),
  94              		.loc 1 16 27
  95 0098 13050000 		li	a0,0
  96 009c 6FF0DFFB 		j	.L3
  97              	.LBE11:
  98              		.cfi_endproc
  99              	.LFE31:
 101              		.globl	_ZN3TCBC1EPFvvEm
 102              		.set	_ZN3TCBC1EPFvvEm,_ZN3TCBC2EPFvvEm
 103              		.align	2
 104              		.globl	_ZN3TCB12createThreadEPFvvE
 106              	_ZN3TCB12createThreadEPFvvE:
 107              	.LFB33:
  19:src/tcb.cpp   **** 
  20:src/tcb.cpp   **** TCB *TCB::createThread(Body body) { return new TCB(body, TIME_SLICE); }
 108              		.loc 1 20 35 is_stmt 1
 109              		.cfi_startproc
 110              		.cfi_personality 0x9b,DW.ref.__gxx_personality_v0
 111              		.cfi_lsda 0x1b,.LLSDA33
 112              	.LVL9:
 113 00a0 130101FE 		addi	sp,sp,-32
 114              		.cfi_def_cfa_offset 32
 115 00a4 233C1100 		sd	ra,24(sp)
 116 00a8 23388100 		sd	s0,16(sp)
 117 00ac 23349100 		sd	s1,8(sp)
 118 00b0 23302101 		sd	s2,0(sp)
 119              		.cfi_offset 1, -8
 120              		.cfi_offset 8, -16
 121              		.cfi_offset 9, -24
 122              		.cfi_offset 18, -32
 123 00b4 13040102 		addi	s0,sp,32
 124              		.cfi_def_cfa 8, 0
 125 00b8 13090500 		mv	s2,a0
 126              		.loc 1 20 37
 127              		.loc 1 20 68 is_stmt 0
 128 00bc 13050003 		li	a0,48
 129              	.LVL10:
 130              	.LEHB0:
 131 00c0 97000000 		call	_Znwm@plt
 131      E7800000 
 132              	.LVL11:
 133              	.LEHE0:
 134 00c8 93040500 		mv	s1,a0
 135 00cc 13062000 		li	a2,2
 136 00d0 93050900 		mv	a1,s2
 137              	.LEHB1:
 138 00d4 97000000 		call	_ZN3TCBC1EPFvvEm
 138      E7800000 
 139              	.LVL12:
 140              	.LEHE1:
 141 00dc 6F000002 		j	.L13
 142              	.L10:
 143 00e0 13090500 		mv	s2,a0
GAS LISTING /tmp/ccahJZJb.s 			page 4


 144              	.LVL13:
 145 00e4 13850400 		mv	a0,s1
 146 00e8 97000000 		call	_ZdlPv@plt
 146      E7800000 
 147              	.LVL14:
 148 00f0 13050900 		mv	a0,s2
 149              	.LEHB2:
 150 00f4 97000000 		call	_Unwind_Resume@plt
 150      E7800000 
 151              	.LVL15:
 152              	.LEHE2:
 153              	.L13:
 154              		.loc 1 20 71
 155 00fc 13850400 		mv	a0,s1
 156 0100 83308101 		ld	ra,24(sp)
 157              		.cfi_restore 1
 158 0104 03340101 		ld	s0,16(sp)
 159              		.cfi_restore 8
 160              		.cfi_def_cfa 2, 32
 161 0108 83348100 		ld	s1,8(sp)
 162              		.cfi_restore 9
 163 010c 03390100 		ld	s2,0(sp)
 164              		.cfi_restore 18
 165              	.LVL16:
 166 0110 13010102 		addi	sp,sp,32
 167              		.cfi_def_cfa_offset 0
 168 0114 67800000 		jr	ra
 169              		.cfi_endproc
 170              	.LFE33:
 171              		.globl	__gxx_personality_v0
 172              		.section	.gcc_except_table,"a",@progbits
 173              	.LLSDA33:
 174 0000 FF       		.byte	0xff
 175 0001 FF       		.byte	0xff
 176 0002 03       		.byte	0x3
 177 0003 27       		.byte	0x27
 178 0004 00000000 		.4byte	.LEHB0-.LFB33
 179 0008 00000000 		.4byte	.LEHE0-.LEHB0
 180 000c 00000000 		.4byte	0
 181 0010 00       		.byte	0
 182 0011 00000000 		.4byte	.LEHB1-.LFB33
 183 0015 00000000 		.4byte	.LEHE1-.LEHB1
 184 0019 00000000 		.4byte	.L10-.LFB33
 185 001d 00       		.byte	0
 186 001e 00000000 		.4byte	.LEHB2-.LFB33
 187 0022 00000000 		.4byte	.LEHE2-.LEHB2
 188 0026 00000000 		.4byte	0
 189 002a 00       		.byte	0
 190              		.text
 192              		.align	2
 193              		.globl	_ZN3TCB5yieldEv
 195              	_ZN3TCB5yieldEv:
 196              	.LFB34:
  21:src/tcb.cpp   **** 
  22:src/tcb.cpp   **** void TCB::yield() { __asm__ volatile ("ecall"); }
 197              		.loc 1 22 19 is_stmt 1
 198              		.cfi_startproc
GAS LISTING /tmp/ccahJZJb.s 			page 5


 199 0118 130101FF 		addi	sp,sp,-16
 200              		.cfi_def_cfa_offset 16
 201 011c 23348100 		sd	s0,8(sp)
 202              		.cfi_offset 8, -8
 203 0120 13040101 		addi	s0,sp,16
 204              		.cfi_def_cfa 8, 0
 205              		.loc 1 22 21
 206              		.loc 1 22 47 is_stmt 0
 207              	#APP
 208              	# 22 "src/tcb.cpp" 1
  23              	
  22:src/tcb.cpp   **** void TCB::yield() { __asm__ volatile ("ecall"); }
 209              		ecall
 210              	# 0 "" 2
 211              		.loc 1 22 49
 212              	#NO_APP
 213 0128 03348100 		ld	s0,8(sp)
 214              		.cfi_restore 8
 215              		.cfi_def_cfa 2, 16
 216 012c 13010101 		addi	sp,sp,16
 217              		.cfi_def_cfa_offset 0
 218 0130 67800000 		jr	ra
 219              		.cfi_endproc
 220              	.LFE34:
 222              		.align	2
 223              		.globl	_ZN3TCB13threadWrapperEv
 225              	_ZN3TCB13threadWrapperEv:
 226              	.LFB36:
  24:src/tcb.cpp   **** void TCB::dispatch() {
  25:src/tcb.cpp   ****     TCB *old = running;
  26:src/tcb.cpp   ****     uint64 sstatus = Riscv::r_sstatus();
  27:src/tcb.cpp   ****     if (!old->isFinished()) { Scheduler::put(old); }
  28:src/tcb.cpp   ****     running = Scheduler::get();
  29:src/tcb.cpp   ****     Riscv::w_sstatus(sstatus);
  30:src/tcb.cpp   ****     TCB::contextSwitch(&old->context, &running->context);
  31:src/tcb.cpp   **** }
  32:src/tcb.cpp   **** 
  33:src/tcb.cpp   **** void TCB::threadWrapper() {
 227              		.loc 1 33 27 is_stmt 1
 228              		.cfi_startproc
 229 0134 130101FE 		addi	sp,sp,-32
 230              		.cfi_def_cfa_offset 32
 231 0138 233C1100 		sd	ra,24(sp)
 232 013c 23388100 		sd	s0,16(sp)
 233 0140 23349100 		sd	s1,8(sp)
 234              		.cfi_offset 1, -8
 235              		.cfi_offset 8, -16
 236              		.cfi_offset 9, -24
 237 0144 13040102 		addi	s0,sp,32
 238              		.cfi_def_cfa 8, 0
  34:src/tcb.cpp   ****     Riscv::popSppSpie();
 239              		.loc 1 34 5
 240              		.loc 1 34 22 is_stmt 0
 241 0148 97000000 		call	_ZN5Riscv10popSppSpieEv@plt
 241      E7800000 
 242              	.LVL17:
  35:src/tcb.cpp   ****     running->body();
GAS LISTING /tmp/ccahJZJb.s 			page 6


 243              		.loc 1 35 5 is_stmt 1
 244              		.loc 1 35 14 is_stmt 0
 245 0150 97040000 		lla	s1,.LANCHOR0
 245      93840400 
 246 0158 83B70400 		ld	a5,0(s1)
 247 015c 83B70700 		ld	a5,0(a5)
 248              		.loc 1 35 18
 249 0160 E7800700 		jalr	a5
 250              	.LVL18:
  36:src/tcb.cpp   ****     running->setFinished(true);
 251              		.loc 1 36 5 is_stmt 1
 252              		.loc 1 36 25 is_stmt 0
 253 0164 83B70400 		ld	a5,0(s1)
 254              	.LVL19:
 255              	.LBB12:
 256              	.LBB13:
 257              		.file 2 "src/../h/tcb.hpp"
   1:src/../h/tcb.hpp **** //
   2:src/../h/tcb.hpp **** // Created by os on 4/26/22.
   3:src/../h/tcb.hpp **** //
   4:src/../h/tcb.hpp **** 
   5:src/../h/tcb.hpp **** #ifndef PROJECT_BASE_V1_0_TCB_HPP
   6:src/../h/tcb.hpp **** #define PROJECT_BASE_V1_0_TCB_HPP
   7:src/../h/tcb.hpp **** 
   8:src/../h/tcb.hpp **** #include "../lib/hw.h"
   9:src/../h/tcb.hpp **** 
  10:src/../h/tcb.hpp **** class TCB {
  11:src/../h/tcb.hpp ****         public:
  12:src/../h/tcb.hpp ****         ~TCB() { delete[] stack; }
  13:src/../h/tcb.hpp ****         bool isFinished() const { return finished; }
  14:src/../h/tcb.hpp ****         void setFinished(bool value) { finished = value; }
 258              		.loc 2 14 40 is_stmt 1
 259              		.loc 2 14 49 is_stmt 0
 260 0168 13071000 		li	a4,1
 261 016c 2384E702 		sb	a4,40(a5)
 262              	.LVL20:
 263              	.LBE13:
 264              	.LBE12:
  37:src/tcb.cpp   ****     TCB::yield();
 265              		.loc 1 37 5 is_stmt 1
 266              		.loc 1 37 15 is_stmt 0
 267 0170 97000000 		call	_ZN3TCB5yieldEv
 267      E7800000 
 268              	.LVL21:
  38:src/tcb.cpp   **** }
 269              		.loc 1 38 1
 270 0178 83308101 		ld	ra,24(sp)
 271              		.cfi_restore 1
 272 017c 03340101 		ld	s0,16(sp)
 273              		.cfi_restore 8
 274              		.cfi_def_cfa 2, 32
 275 0180 83348100 		ld	s1,8(sp)
 276              		.cfi_restore 9
 277 0184 13010102 		addi	sp,sp,32
 278              		.cfi_def_cfa_offset 0
 279 0188 67800000 		jr	ra
 280              		.cfi_endproc
GAS LISTING /tmp/ccahJZJb.s 			page 7


 281              	.LFE36:
 283              		.align	2
 284              		.globl	_ZN3TCB8dispatchEv
 286              	_ZN3TCB8dispatchEv:
 287              	.LFB35:
  24:src/tcb.cpp   ****     TCB *old = running;
 288              		.loc 1 24 22 is_stmt 1
 289              		.cfi_startproc
 290 018c 130101FD 		addi	sp,sp,-48
 291              		.cfi_def_cfa_offset 48
 292 0190 23341102 		sd	ra,40(sp)
 293 0194 23308102 		sd	s0,32(sp)
 294 0198 233C9100 		sd	s1,24(sp)
 295 019c 23382101 		sd	s2,16(sp)
 296              		.cfi_offset 1, -8
 297              		.cfi_offset 8, -16
 298              		.cfi_offset 9, -24
 299              		.cfi_offset 18, -32
 300 01a0 13040103 		addi	s0,sp,48
 301              		.cfi_def_cfa 8, 0
  25:src/tcb.cpp   ****     uint64 sstatus = Riscv::r_sstatus();
 302              		.loc 1 25 5
  25:src/tcb.cpp   ****     uint64 sstatus = Riscv::r_sstatus();
 303              		.loc 1 25 10 is_stmt 0
 304 01a4 97040000 		ld	s1,.LANCHOR0
 304      83B40400 
 305              	.LVL22:
  26:src/tcb.cpp   ****     if (!old->isFinished()) { Scheduler::put(old); }
 306              		.loc 1 26 5 is_stmt 1
 307              	.LBB14:
 308              	.LBB15:
 309              		.file 3 "src/../h/riscv.hpp"
   1:src/../h/riscv.hpp **** //
   2:src/../h/riscv.hpp **** // Created by os on 4/26/22.
   3:src/../h/riscv.hpp **** //
   4:src/../h/riscv.hpp **** 
   5:src/../h/riscv.hpp **** #ifndef PROJECT_BASE_V1_0_RISCV_HPP
   6:src/../h/riscv.hpp **** #define PROJECT_BASE_V1_0_RISCV_HPP
   7:src/../h/riscv.hpp **** 
   8:src/../h/riscv.hpp **** #include "../lib/hw.h"
   9:src/../h/riscv.hpp **** 
  10:src/../h/riscv.hpp **** class Riscv{
  11:src/../h/riscv.hpp **** public:
  12:src/../h/riscv.hpp **** 
  13:src/../h/riscv.hpp ****     static void popSppSpie();
  14:src/../h/riscv.hpp **** 
  15:src/../h/riscv.hpp ****     //read
  16:src/../h/riscv.hpp ****     static uint64 r_scause();
  17:src/../h/riscv.hpp **** 
  18:src/../h/riscv.hpp ****     //write
  19:src/../h/riscv.hpp ****     static void w_scause(uint64 scause);
  20:src/../h/riscv.hpp **** 
  21:src/../h/riscv.hpp ****     static uint64 r_sepc();
  22:src/../h/riscv.hpp **** 
  23:src/../h/riscv.hpp ****     static void w_sepc(uint64 sepc);
  24:src/../h/riscv.hpp **** 
  25:src/../h/riscv.hpp ****     static uint64 r_stvec();
GAS LISTING /tmp/ccahJZJb.s 			page 8


  26:src/../h/riscv.hpp **** 
  27:src/../h/riscv.hpp ****     static void w_stvec(uint64 stvec);
  28:src/../h/riscv.hpp **** 
  29:src/../h/riscv.hpp ****     static uint64 r_stval();
  30:src/../h/riscv.hpp **** 
  31:src/../h/riscv.hpp ****     static void w_stval(uint64 stval);
  32:src/../h/riscv.hpp **** 
  33:src/../h/riscv.hpp ****     enum BitMaskSip{
  34:src/../h/riscv.hpp ****         SIP_SSIP = (1 << 1),
  35:src/../h/riscv.hpp ****         SIP_STIP = (1 << 5),
  36:src/../h/riscv.hpp ****         SIP_SEIP = (1 << 9),
  37:src/../h/riscv.hpp ****     };
  38:src/../h/riscv.hpp ****     // mask set
  39:src/../h/riscv.hpp ****     static void ms_sip(uint64 mask);
  40:src/../h/riscv.hpp ****     // mask clear
  41:src/../h/riscv.hpp ****     static void mc_sip(uint64 mask);
  42:src/../h/riscv.hpp **** 
  43:src/../h/riscv.hpp ****     static uint64 r_sip();
  44:src/../h/riscv.hpp **** 
  45:src/../h/riscv.hpp ****     static void w_sip(uint64 sip);
  46:src/../h/riscv.hpp **** 
  47:src/../h/riscv.hpp ****     enum BitMaskSstatus{
  48:src/../h/riscv.hpp ****         SSTATUS_SIE = (1 << 1),
  49:src/../h/riscv.hpp ****         SSTATUS_SPIE = (1 << 5),
  50:src/../h/riscv.hpp ****         SSTATUS_SPP = (1 << 8),
  51:src/../h/riscv.hpp ****     };
  52:src/../h/riscv.hpp **** 
  53:src/../h/riscv.hpp ****     static void ms_sstatus(uint64 mask);
  54:src/../h/riscv.hpp **** 
  55:src/../h/riscv.hpp ****     static void mc_sstatus(uint64 mask);
  56:src/../h/riscv.hpp **** 
  57:src/../h/riscv.hpp ****     static uint64 r_sstatus();
  58:src/../h/riscv.hpp **** 
  59:src/../h/riscv.hpp ****     static void w_sstatus(uint64 sstatus);
  60:src/../h/riscv.hpp **** 
  61:src/../h/riscv.hpp ****     static void supervisorTrap();
  62:src/../h/riscv.hpp **** 
  63:src/../h/riscv.hpp **** private:
  64:src/../h/riscv.hpp ****     static void handleSupervisorTrap();
  65:src/../h/riscv.hpp **** };
  66:src/../h/riscv.hpp **** 
  67:src/../h/riscv.hpp **** inline uint64 Riscv::r_scause() {
  68:src/../h/riscv.hpp ****     uint64 volatile scause;
  69:src/../h/riscv.hpp ****     __asm__ volatile ("csrr %[scause], scause" : [scause] "=r"(scause));
  70:src/../h/riscv.hpp ****     return scause;
  71:src/../h/riscv.hpp **** }
  72:src/../h/riscv.hpp **** 
  73:src/../h/riscv.hpp **** inline void Riscv::w_scause(uint64 scause) {
  74:src/../h/riscv.hpp ****     __asm__ volatile ("csrw scause, %[scause]" : : [scause] "r"(scause));
  75:src/../h/riscv.hpp **** }
  76:src/../h/riscv.hpp **** 
  77:src/../h/riscv.hpp **** inline uint64 Riscv::r_sepc() {
  78:src/../h/riscv.hpp ****     uint64 volatile sepc;
  79:src/../h/riscv.hpp ****     __asm__ volatile ("csrr %[sepc], sepc" : [sepc] "=r"(sepc));
  80:src/../h/riscv.hpp ****     return sepc;
  81:src/../h/riscv.hpp **** }
  82:src/../h/riscv.hpp **** 
GAS LISTING /tmp/ccahJZJb.s 			page 9


  83:src/../h/riscv.hpp **** inline void Riscv::w_sepc(uint64 sepc) {
  84:src/../h/riscv.hpp ****     __asm__ volatile ("csrw sepc, %[sepc]" : : [sepc] "r"(sepc));
  85:src/../h/riscv.hpp **** }
  86:src/../h/riscv.hpp **** 
  87:src/../h/riscv.hpp **** inline uint64 Riscv::r_stvec() {
  88:src/../h/riscv.hpp ****     uint64 volatile stvec;
  89:src/../h/riscv.hpp ****     __asm__ volatile ("csrr %[stvec], stvec" : [stvec] "=r"(stvec));
  90:src/../h/riscv.hpp ****     return stvec;
  91:src/../h/riscv.hpp **** }
  92:src/../h/riscv.hpp **** 
  93:src/../h/riscv.hpp **** inline void Riscv::w_stvec(uint64 stvec) {
  94:src/../h/riscv.hpp ****     __asm__ volatile ("csrw stvec, %[stvec]" : : [stvec] "r"(stvec));
  95:src/../h/riscv.hpp **** }
  96:src/../h/riscv.hpp **** 
  97:src/../h/riscv.hpp **** inline uint64 Riscv::r_stval() {
  98:src/../h/riscv.hpp ****     uint64 volatile stval;
  99:src/../h/riscv.hpp ****     __asm__ volatile ("csrr %[stval], stval" : [stval] "=r"(stval));
 100:src/../h/riscv.hpp ****     return stval;
 101:src/../h/riscv.hpp **** }
 102:src/../h/riscv.hpp **** 
 103:src/../h/riscv.hpp **** inline void Riscv::w_stval(uint64 stval) {
 104:src/../h/riscv.hpp ****     __asm__ volatile ("csrw stval, %[stval]" : : [stval] "r"(stval));
 105:src/../h/riscv.hpp **** }
 106:src/../h/riscv.hpp **** 
 107:src/../h/riscv.hpp **** inline void Riscv::ms_sip(uint64 mask) {
 108:src/../h/riscv.hpp ****     __asm__ volatile ("csrs sip, %[mask]" : : [mask] "r"(mask));
 109:src/../h/riscv.hpp **** }
 110:src/../h/riscv.hpp **** 
 111:src/../h/riscv.hpp **** inline void Riscv::mc_sip(uint64 mask) {
 112:src/../h/riscv.hpp ****     __asm__ volatile ("csrc sip, %[mask]" : : [mask] "r"(mask));
 113:src/../h/riscv.hpp **** }
 114:src/../h/riscv.hpp **** 
 115:src/../h/riscv.hpp **** inline uint64 Riscv::r_sip() {
 116:src/../h/riscv.hpp ****     uint64 volatile sip;
 117:src/../h/riscv.hpp ****     __asm__ volatile ("csrr %[sip], sip" : [sip] "=r"(sip));
 118:src/../h/riscv.hpp ****     return sip;
 119:src/../h/riscv.hpp **** }
 120:src/../h/riscv.hpp **** 
 121:src/../h/riscv.hpp **** inline void Riscv::w_sip(uint64 sip) {
 122:src/../h/riscv.hpp ****     __asm__ volatile ("csrw sip, %[sip]" : : [sip] "r"(sip));
 123:src/../h/riscv.hpp **** }
 124:src/../h/riscv.hpp **** 
 125:src/../h/riscv.hpp **** inline void Riscv::ms_sstatus(uint64 mask) {
 126:src/../h/riscv.hpp ****     __asm__ volatile ("csrs sstatus, %[mask]" : : [mask] "r"(mask));
 127:src/../h/riscv.hpp **** }
 128:src/../h/riscv.hpp **** 
 129:src/../h/riscv.hpp **** inline void Riscv::mc_sstatus(uint64 mask) {
 130:src/../h/riscv.hpp ****     __asm__ volatile ("csrc sstatus, %[mask]" : : [mask] "r"(mask));
 131:src/../h/riscv.hpp **** }
 132:src/../h/riscv.hpp **** 
 133:src/../h/riscv.hpp **** inline uint64 Riscv::r_sstatus() {
 134:src/../h/riscv.hpp ****     uint64 volatile sstatus;
 310              		.loc 3 134 5
 135:src/../h/riscv.hpp ****     __asm__ volatile ("csrr %[sstatus], sstatus" : [sstatus] "=r"(sstatus));
 311              		.loc 3 135 5
 312              		.loc 3 135 76 is_stmt 0
 313              	#APP
GAS LISTING /tmp/ccahJZJb.s 			page 10


 314              	# 135 "src/../h/riscv.hpp" 1
 136              	    return sstatus;
 315              		csrr a5, sstatus
 316              	# 0 "" 2
 317              	#NO_APP
 318 01b0 233CF4FC 		sd	a5,-40(s0)
 319              		.loc 3 136 5 is_stmt 1
 320              		.loc 3 136 12 is_stmt 0
 321 01b4 033984FD 		ld	s2,-40(s0)
 322              	.LVL23:
 323              	.LBE15:
 324              	.LBE14:
  27:src/tcb.cpp   ****     running = Scheduler::get();
 325              		.loc 1 27 5 is_stmt 1
 326              	.LBB16:
 327              	.LBB17:
  13:src/../h/tcb.hpp ****         void setFinished(bool value) { finished = value; }
 328              		.loc 2 13 35
  13:src/../h/tcb.hpp ****         void setFinished(bool value) { finished = value; }
 329              		.loc 2 13 42 is_stmt 0
 330 01b8 83C78402 		lbu	a5,40(s1)
 331              	.LVL24:
 332              	.LBE17:
 333              	.LBE16:
  27:src/tcb.cpp   ****     running = Scheduler::get();
 334              		.loc 1 27 5
 335 01bc 63800704 		beqz	a5,.L21
 336              	.L19:
  28:src/tcb.cpp   ****     Riscv::w_sstatus(sstatus);
 337              		.loc 1 28 5 is_stmt 1
  28:src/tcb.cpp   ****     Riscv::w_sstatus(sstatus);
 338              		.loc 1 28 29 is_stmt 0
 339 01c0 97000000 		call	_ZN9Scheduler3getEv@plt
 339      E7800000 
 340              	.LVL25:
  28:src/tcb.cpp   ****     Riscv::w_sstatus(sstatus);
 341              		.loc 1 28 13
 342 01c8 97070000 		sd	a0,.LANCHOR0,a5
 342      23B0A700 
  29:src/tcb.cpp   ****     TCB::contextSwitch(&old->context, &running->context);
 343              		.loc 1 29 5 is_stmt 1
 344              	.LVL26:
 345              	.LBB18:
 346              	.LBB19:
 137:src/../h/riscv.hpp **** }
 138:src/../h/riscv.hpp **** inline void Riscv::w_sstatus(uint64 sstatus) {
 139:src/../h/riscv.hpp ****     __asm__ volatile ("csrw sstatus, %[sstatus]" : : [sstatus] "r"(sstatus));
 347              		.loc 3 139 5
 348              		.loc 3 139 77 is_stmt 0
 349              	#APP
 350              	# 139 "src/../h/riscv.hpp" 1
 140              	}
 351              		csrw sstatus, s2
 352              	# 0 "" 2
 353              	.LVL27:
 354              	#NO_APP
 355              	.LBE19:
GAS LISTING /tmp/ccahJZJb.s 			page 11


 356              	.LBE18:
  30:src/tcb.cpp   **** }
 357              		.loc 1 30 5 is_stmt 1
  30:src/tcb.cpp   **** }
 358              		.loc 1 30 23 is_stmt 0
 359 01d4 93050501 		addi	a1,a0,16
 360 01d8 13850401 		addi	a0,s1,16
 361 01dc 97000000 		call	_ZN3TCB13contextSwitchEPNS_7ContextES1_@plt
 361      E7800000 
 362              	.LVL28:
  31:src/tcb.cpp   **** 
 363              		.loc 1 31 1
 364 01e4 83308102 		ld	ra,40(sp)
 365              		.cfi_remember_state
 366              		.cfi_restore 1
 367 01e8 03340102 		ld	s0,32(sp)
 368              		.cfi_restore 8
 369              		.cfi_def_cfa 2, 48
 370 01ec 83348101 		ld	s1,24(sp)
 371              		.cfi_restore 9
 372              	.LVL29:
 373 01f0 03390101 		ld	s2,16(sp)
 374              		.cfi_restore 18
 375              	.LVL30:
 376 01f4 13010103 		addi	sp,sp,48
 377              		.cfi_def_cfa_offset 0
 378 01f8 67800000 		jr	ra
 379              	.LVL31:
 380              	.L21:
 381              		.cfi_restore_state
  27:src/tcb.cpp   ****     running = Scheduler::get();
 382              		.loc 1 27 31 is_stmt 1 discriminator 1
  27:src/tcb.cpp   ****     running = Scheduler::get();
 383              		.loc 1 27 45 is_stmt 0 discriminator 1
 384 01fc 13850400 		mv	a0,s1
 385 0200 97000000 		call	_ZN9Scheduler3putEP3TCB@plt
 385      E7800000 
 386              	.LVL32:
 387 0208 6FF09FFB 		j	.L19
 388              		.cfi_endproc
 389              	.LFE35:
 391              		.globl	_ZN3TCB16timeSliceCounterE
 392              		.globl	_ZN3TCB7runningE
 393              		.bss
 394              		.align	3
 395              		.set	.LANCHOR0,. + 0
 398              	_ZN3TCB7runningE:
 399 0000 00000000 		.zero	8
 399      00000000 
 402              	_ZN3TCB16timeSliceCounterE:
 403 0008 00000000 		.zero	8
 403      00000000 
 404              		.text
 405              	.Letext0:
 406              		.file 4 "src/../h/../lib/hw.h"
 407              		.file 5 "src/../h/scheduler.hpp"
 2679              		.align	3
GAS LISTING /tmp/ccahJZJb.s 			page 12


 2682              	DW.ref.__gxx_personality_v0:
 2683 0000 00000000 		.dword	__gxx_personality_v0
 2683      00000000 
 2684              		.ident	"GCC: (Ubuntu 9.4.0-1ubuntu1~20.04) 9.4.0"
 2685              		.section	.note.GNU-stack,"",@progbits
GAS LISTING /tmp/ccahJZJb.s 			page 13


DEFINED SYMBOLS
                            *ABS*:0000000000000000 tcb.cpp
     /tmp/ccahJZJb.s:9      .text:0000000000000000 _ZN3TCBC2EPFvvEm
     /tmp/ccahJZJb.s:13     .text:0000000000000000 .L0 
     /tmp/ccahJZJb.s:15     .text:0000000000000000 .L0 
     /tmp/ccahJZJb.s:16     .text:0000000000000004 .L0 
     /tmp/ccahJZJb.s:22     .text:0000000000000018 .L0 
     /tmp/ccahJZJb.s:23     .text:0000000000000018 .L0 
     /tmp/ccahJZJb.s:24     .text:0000000000000018 .L0 
     /tmp/ccahJZJb.s:25     .text:0000000000000018 .L0 
     /tmp/ccahJZJb.s:26     .text:0000000000000018 .L0 
     /tmp/ccahJZJb.s:28     .text:000000000000001c .L0 
     /tmp/ccahJZJb.s:34     .text:0000000000000028 .L0 
     /tmp/ccahJZJb.s:36     .text:000000000000002c .L0 
     /tmp/ccahJZJb.s:38     .text:0000000000000030 .L0 
     /tmp/ccahJZJb.s:44     .text:000000000000003c .L0 
     /tmp/ccahJZJb.s:225    .text:0000000000000134 _ZN3TCB13threadWrapperEv
     /tmp/ccahJZJb.s:48     .text:000000000000004c .L0 
     /tmp/ccahJZJb.s:50     .text:0000000000000050 .L0 
     /tmp/ccahJZJb.s:54     .text:0000000000000058 .L0 
     /tmp/ccahJZJb.s:58     .text:0000000000000064 .L0 
     /tmp/ccahJZJb.s:60     .text:0000000000000068 .L0 
     /tmp/ccahJZJb.s:61     .text:0000000000000068 .L0 
     /tmp/ccahJZJb.s:67     .text:0000000000000074 .L0 
     /tmp/ccahJZJb.s:68     .text:0000000000000078 .L0 
     /tmp/ccahJZJb.s:69     .text:0000000000000078 .L0 
     /tmp/ccahJZJb.s:71     .text:000000000000007c .L0 
     /tmp/ccahJZJb.s:72     .text:000000000000007c .L0 
     /tmp/ccahJZJb.s:74     .text:0000000000000080 .L0 
     /tmp/ccahJZJb.s:77     .text:0000000000000084 .L0 
     /tmp/ccahJZJb.s:80     .text:0000000000000088 .L0 
     /tmp/ccahJZJb.s:83     .text:000000000000008c .L0 
     /tmp/ccahJZJb.s:87     .text:0000000000000090 .L0 
     /tmp/ccahJZJb.s:90     .text:0000000000000090 .L0 
     /tmp/ccahJZJb.s:95     .text:0000000000000098 .L0 
     /tmp/ccahJZJb.s:98     .text:00000000000000a0 .L0 
     /tmp/ccahJZJb.s:9      .text:0000000000000000 _ZN3TCBC1EPFvvEm
     /tmp/ccahJZJb.s:106    .text:00000000000000a0 _ZN3TCB12createThreadEPFvvE
     /tmp/ccahJZJb.s:109    .text:00000000000000a0 .L0 
     /tmp/ccahJZJb.s:2682   .data.rel.local.DW.ref.__gxx_personality_v0:0000000000000000 DW.ref.__gxx_personality_v0
     /tmp/ccahJZJb.s:113    .text:00000000000000a0 .L0 
     /tmp/ccahJZJb.s:114    .text:00000000000000a4 .L0 
     /tmp/ccahJZJb.s:119    .text:00000000000000b4 .L0 
     /tmp/ccahJZJb.s:120    .text:00000000000000b4 .L0 
     /tmp/ccahJZJb.s:121    .text:00000000000000b4 .L0 
     /tmp/ccahJZJb.s:122    .text:00000000000000b4 .L0 
     /tmp/ccahJZJb.s:124    .text:00000000000000b8 .L0 
     /tmp/ccahJZJb.s:127    .text:00000000000000bc .L0 
     /tmp/ccahJZJb.s:128    .text:00000000000000bc .L0 
     /tmp/ccahJZJb.s:155    .text:00000000000000fc .L0 
     /tmp/ccahJZJb.s:157    .text:0000000000000104 .L0 
     /tmp/ccahJZJb.s:159    .text:0000000000000108 .L0 
     /tmp/ccahJZJb.s:160    .text:0000000000000108 .L0 
     /tmp/ccahJZJb.s:162    .text:000000000000010c .L0 
     /tmp/ccahJZJb.s:164    .text:0000000000000110 .L0 
     /tmp/ccahJZJb.s:167    .text:0000000000000114 .L0 
     /tmp/ccahJZJb.s:169    .text:0000000000000118 .L0 
GAS LISTING /tmp/ccahJZJb.s 			page 14


     /tmp/ccahJZJb.s:195    .text:0000000000000118 _ZN3TCB5yieldEv
     /tmp/ccahJZJb.s:198    .text:0000000000000118 .L0 
     /tmp/ccahJZJb.s:199    .text:0000000000000118 .L0 
     /tmp/ccahJZJb.s:200    .text:000000000000011c .L0 
     /tmp/ccahJZJb.s:202    .text:0000000000000120 .L0 
     /tmp/ccahJZJb.s:204    .text:0000000000000124 .L0 
     /tmp/ccahJZJb.s:206    .text:0000000000000124 .L0 
         src/tcb.cpp:22     .text:0000000000000124 .L0 
     /tmp/ccahJZJb.s:213    .text:0000000000000128 .L0 
     /tmp/ccahJZJb.s:214    .text:000000000000012c .L0 
     /tmp/ccahJZJb.s:215    .text:000000000000012c .L0 
     /tmp/ccahJZJb.s:217    .text:0000000000000130 .L0 
     /tmp/ccahJZJb.s:219    .text:0000000000000134 .L0 
     /tmp/ccahJZJb.s:228    .text:0000000000000134 .L0 
     /tmp/ccahJZJb.s:229    .text:0000000000000134 .L0 
     /tmp/ccahJZJb.s:230    .text:0000000000000138 .L0 
     /tmp/ccahJZJb.s:234    .text:0000000000000144 .L0 
     /tmp/ccahJZJb.s:235    .text:0000000000000144 .L0 
     /tmp/ccahJZJb.s:236    .text:0000000000000144 .L0 
     /tmp/ccahJZJb.s:238    .text:0000000000000148 .L0 
     /tmp/ccahJZJb.s:240    .text:0000000000000148 .L0 
     /tmp/ccahJZJb.s:241    .text:0000000000000148 .L0 
     /tmp/ccahJZJb.s:244    .text:0000000000000150 .L0 
     /tmp/ccahJZJb.s:245    .text:0000000000000150 .L0 
     /tmp/ccahJZJb.s:249    .text:0000000000000160 .L0 
     /tmp/ccahJZJb.s:252    .text:0000000000000164 .L0 
     /tmp/ccahJZJb.s:253    .text:0000000000000164 .L0 
     /tmp/ccahJZJb.s:259    .text:0000000000000168 .L0 
     /tmp/ccahJZJb.s:260    .text:0000000000000168 .L0 
     /tmp/ccahJZJb.s:266    .text:0000000000000170 .L0 
     /tmp/ccahJZJb.s:267    .text:0000000000000170 .L0 
     /tmp/ccahJZJb.s:270    .text:0000000000000178 .L0 
     /tmp/ccahJZJb.s:271    .text:000000000000017c .L0 
     /tmp/ccahJZJb.s:273    .text:0000000000000180 .L0 
     /tmp/ccahJZJb.s:274    .text:0000000000000180 .L0 
     /tmp/ccahJZJb.s:276    .text:0000000000000184 .L0 
     /tmp/ccahJZJb.s:278    .text:0000000000000188 .L0 
     /tmp/ccahJZJb.s:280    .text:000000000000018c .L0 
     /tmp/ccahJZJb.s:286    .text:000000000000018c _ZN3TCB8dispatchEv
     /tmp/ccahJZJb.s:289    .text:000000000000018c .L0 
     /tmp/ccahJZJb.s:290    .text:000000000000018c .L0 
     /tmp/ccahJZJb.s:291    .text:0000000000000190 .L0 
     /tmp/ccahJZJb.s:296    .text:00000000000001a0 .L0 
     /tmp/ccahJZJb.s:297    .text:00000000000001a0 .L0 
     /tmp/ccahJZJb.s:298    .text:00000000000001a0 .L0 
     /tmp/ccahJZJb.s:299    .text:00000000000001a0 .L0 
     /tmp/ccahJZJb.s:301    .text:00000000000001a4 .L0 
     /tmp/ccahJZJb.s:303    .text:00000000000001a4 .L0 
     /tmp/ccahJZJb.s:304    .text:00000000000001a4 .L0 
     /tmp/ccahJZJb.s:310    .text:00000000000001ac .L0 
     /tmp/ccahJZJb.s:311    .text:00000000000001ac .L0 
     /tmp/ccahJZJb.s:312    .text:00000000000001ac .L0 
  src/../h/riscv.hpp:135    .text:00000000000001ac .L0 
     /tmp/ccahJZJb.s:320    .text:00000000000001b4 .L0 
     /tmp/ccahJZJb.s:321    .text:00000000000001b4 .L0 
     /tmp/ccahJZJb.s:328    .text:00000000000001b8 .L0 
     /tmp/ccahJZJb.s:329    .text:00000000000001b8 .L0 
GAS LISTING /tmp/ccahJZJb.s 			page 15


     /tmp/ccahJZJb.s:330    .text:00000000000001b8 .L0 
     /tmp/ccahJZJb.s:335    .text:00000000000001bc .L0 
     /tmp/ccahJZJb.s:338    .text:00000000000001c0 .L0 
     /tmp/ccahJZJb.s:339    .text:00000000000001c0 .L0 
     /tmp/ccahJZJb.s:342    .text:00000000000001c8 .L0 
     /tmp/ccahJZJb.s:347    .text:00000000000001d0 .L0 
     /tmp/ccahJZJb.s:348    .text:00000000000001d0 .L0 
  src/../h/riscv.hpp:139    .text:00000000000001d0 .L0 
     /tmp/ccahJZJb.s:358    .text:00000000000001d4 .L0 
     /tmp/ccahJZJb.s:359    .text:00000000000001d4 .L0 
     /tmp/ccahJZJb.s:364    .text:00000000000001e4 .L0 
     /tmp/ccahJZJb.s:365    .text:00000000000001e8 .L0 
     /tmp/ccahJZJb.s:366    .text:00000000000001e8 .L0 
     /tmp/ccahJZJb.s:368    .text:00000000000001ec .L0 
     /tmp/ccahJZJb.s:369    .text:00000000000001ec .L0 
     /tmp/ccahJZJb.s:371    .text:00000000000001f0 .L0 
     /tmp/ccahJZJb.s:374    .text:00000000000001f4 .L0 
     /tmp/ccahJZJb.s:377    .text:00000000000001f8 .L0 
     /tmp/ccahJZJb.s:381    .text:00000000000001fc .L0 
     /tmp/ccahJZJb.s:383    .text:00000000000001fc .L0 
     /tmp/ccahJZJb.s:384    .text:00000000000001fc .L0 
     /tmp/ccahJZJb.s:388    .text:000000000000020c .L0 
     /tmp/ccahJZJb.s:402    .bss:0000000000000008 _ZN3TCB16timeSliceCounterE
     /tmp/ccahJZJb.s:398    .bss:0000000000000000 _ZN3TCB7runningE
     /tmp/ccahJZJb.s:395    .bss:0000000000000000 .LANCHOR0
     /tmp/ccahJZJb.s:408    .text:000000000000020c .L0 
     /tmp/ccahJZJb.s:45     .text:0000000000000040 .L0 
     /tmp/ccahJZJb.s:245    .text:0000000000000150 .L0 
     /tmp/ccahJZJb.s:304    .text:00000000000001a4 .L0 
     /tmp/ccahJZJb.s:342    .text:00000000000001c8 .L0 
     /tmp/ccahJZJb.s:86     .text:0000000000000090 .L5
     /tmp/ccahJZJb.s:93     .text:0000000000000098 .L6
     /tmp/ccahJZJb.s:64     .text:0000000000000074 .L1
     /tmp/ccahJZJb.s:42     .text:000000000000003c .L2
     /tmp/ccahJZJb.s:52     .text:0000000000000058 .L3
     /tmp/ccahJZJb.s:153    .text:00000000000000fc .L13
     /tmp/ccahJZJb.s:380    .text:00000000000001fc .L21
     /tmp/ccahJZJb.s:336    .text:00000000000001c0 .L19
     /tmp/ccahJZJb.s:130    .text:00000000000000c0 .LEHB0
     /tmp/ccahJZJb.s:107    .text:00000000000000a0 .LFB33
     /tmp/ccahJZJb.s:133    .text:00000000000000c8 .LEHE0
     /tmp/ccahJZJb.s:137    .text:00000000000000d4 .LEHB1
     /tmp/ccahJZJb.s:140    .text:00000000000000dc .LEHE1
     /tmp/ccahJZJb.s:142    .text:00000000000000e0 .L10
     /tmp/ccahJZJb.s:149    .text:00000000000000f4 .LEHB2
     /tmp/ccahJZJb.s:152    .text:00000000000000fc .LEHE2
     /tmp/ccahJZJb.s:1338   .debug_abbrev:0000000000000000 .Ldebug_abbrev0
     /tmp/ccahJZJb.s:2658   .debug_str:00000000000005c8 .LASF97
     /tmp/ccahJZJb.s:2566   .debug_str:0000000000000324 .LASF98
     /tmp/ccahJZJb.s:2634   .debug_str:00000000000004fc .LASF99
     /tmp/ccahJZJb.s:5      .text:0000000000000000 .Ltext0
     /tmp/ccahJZJb.s:405    .text:000000000000020c .Letext0
     /tmp/ccahJZJb.s:2456   .debug_line:0000000000000000 .Ldebug_line0
     /tmp/ccahJZJb.s:2580   .debug_str:000000000000037e .LASF0
     /tmp/ccahJZJb.s:2590   .debug_str:00000000000003ab .LASF1
     /tmp/ccahJZJb.s:2570   .debug_str:0000000000000337 .LASF2
     /tmp/ccahJZJb.s:2542   .debug_str:000000000000028e .LASF4
GAS LISTING /tmp/ccahJZJb.s 			page 16


     /tmp/ccahJZJb.s:2626   .debug_str:00000000000004be .LASF3
     /tmp/ccahJZJb.s:2478   .debug_str:0000000000000081 .LASF5
     /tmp/ccahJZJb.s:2592   .debug_str:00000000000003be .LASF6
     /tmp/ccahJZJb.s:2578   .debug_str:000000000000036b .LASF7
     /tmp/ccahJZJb.s:2652   .debug_str:0000000000000596 .LASF8
     /tmp/ccahJZJb.s:2528   .debug_str:00000000000001f8 .LASF9
     /tmp/ccahJZJb.s:2604   .debug_str:000000000000042e .LASF10
     /tmp/ccahJZJb.s:2650   .debug_str:0000000000000587 .LASF11
     /tmp/ccahJZJb.s:2480   .debug_str:0000000000000088 .LASF12
     /tmp/ccahJZJb.s:2460   .debug_str:0000000000000008 .LASF13
     /tmp/ccahJZJb.s:2490   .debug_str:00000000000000ea .LASF14
     /tmp/ccahJZJb.s:2618   .debug_str:000000000000047a .LASF15
     /tmp/ccahJZJb.s:2498   .debug_str:0000000000000129 .LASF16
     /tmp/ccahJZJb.s:2466   .debug_str:0000000000000027 .LASF100
     /tmp/ccahJZJb.s:2506   .debug_str:0000000000000176 .LASF17
     /tmp/ccahJZJb.s:2610   .debug_str:0000000000000456 .LASF19
     /tmp/ccahJZJb.s:2594   .debug_str:00000000000003d1 .LASF21
     /tmp/ccahJZJb.s:2526   .debug_str:00000000000001e1 .LASF23
     /tmp/ccahJZJb.s:2572   .debug_str:0000000000000345 .LASF18
     /tmp/ccahJZJb.s:2538   .debug_str:000000000000024f .LASF20
     /tmp/ccahJZJb.s:2564   .debug_str:0000000000000317 .LASF22
     /tmp/ccahJZJb.s:2476   .debug_str:0000000000000068 .LASF24
     /tmp/ccahJZJb.s:2554   .debug_str:00000000000002cb .LASF25
     /tmp/ccahJZJb.s:2562   .debug_str:00000000000002fb .LASF26
     /tmp/ccahJZJb.s:2614   .debug_str:000000000000046a .LASF101
     /tmp/ccahJZJb.s:2620   .debug_str:0000000000000490 .LASF44
     /tmp/ccahJZJb.s:2576   .debug_str:000000000000035b .LASF46
     /tmp/ccahJZJb.s:2510   .debug_str:0000000000000184 .LASF102
     /tmp/ccahJZJb.s:2636   .debug_str:0000000000000517 .LASF103
     /tmp/ccahJZJb.s:2548   .debug_str:00000000000002b3 .LASF27
     /tmp/ccahJZJb.s:2586   .debug_str:000000000000039b .LASF28
     /tmp/ccahJZJb.s:2552   .debug_str:00000000000002c3 .LASF29
     /tmp/ccahJZJb.s:2588   .debug_str:00000000000003a1 .LASF30
     /tmp/ccahJZJb.s:2546   .debug_str:00000000000002aa .LASF31
     /tmp/ccahJZJb.s:2558   .debug_str:00000000000002e3 .LASF32
     /tmp/ccahJZJb.s:2532   .debug_str:000000000000021c .LASF34
     /tmp/ccahJZJb.s:2656   .debug_str:00000000000005ba .LASF42
     /tmp/ccahJZJb.s:2540   .debug_str:0000000000000266 .LASF104
     /tmp/ccahJZJb.s:2584   .debug_str:0000000000000392 .LASF33
     /tmp/ccahJZJb.s:2516   .debug_str:00000000000001a8 .LASF35
     /tmp/ccahJZJb.s:2628   .debug_str:00000000000004d0 .LASF40
     /tmp/ccahJZJb.s:2556   .debug_str:00000000000002d8 .LASF36
     /tmp/ccahJZJb.s:2534   .debug_str:0000000000000235 .LASF37
     /tmp/ccahJZJb.s:2518   .debug_str:00000000000001bb .LASF38
     /tmp/ccahJZJb.s:2602   .debug_str:0000000000000424 .LASF39
     /tmp/ccahJZJb.s:2654   .debug_str:00000000000005a6 .LASF41
     /tmp/ccahJZJb.s:2504   .debug_str:0000000000000162 .LASF105
     /tmp/ccahJZJb.s:2486   .debug_str:00000000000000c8 .LASF106
     /tmp/ccahJZJb.s:2560   .debug_str:00000000000002f1 .LASF107
     /tmp/ccahJZJb.s:2492   .debug_str:00000000000000f6 .LASF43
     /tmp/ccahJZJb.s:2616   .debug_str:000000000000046f .LASF45
     /tmp/ccahJZJb.s:2666   .debug_str:000000000000068f .LASF47
     /tmp/ccahJZJb.s:2462   .debug_str:0000000000000018 .LASF48
     /tmp/ccahJZJb.s:2640   .debug_str:000000000000052e .LASF51
     /tmp/ccahJZJb.s:2508   .debug_str:000000000000017b .LASF49
     /tmp/ccahJZJb.s:2494   .debug_str:00000000000000fc .LASF54
     /tmp/ccahJZJb.s:2630   .debug_str:00000000000004e1 .LASF50
GAS LISTING /tmp/ccahJZJb.s 			page 17


     /tmp/ccahJZJb.s:2608   .debug_str:0000000000000443 .LASF52
     /tmp/ccahJZJb.s:2648   .debug_str:0000000000000580 .LASF53
     /tmp/ccahJZJb.s:2644   .debug_str:000000000000055b .LASF55
     /tmp/ccahJZJb.s:2522   .debug_str:00000000000001d3 .LASF56
     /tmp/ccahJZJb.s:2500   .debug_str:000000000000013f .LASF57
     /tmp/ccahJZJb.s:2458   .debug_str:0000000000000000 .LASF58
     /tmp/ccahJZJb.s:2632   .debug_str:00000000000004e8 .LASF59
     /tmp/ccahJZJb.s:2512   .debug_str:000000000000018c .LASF60
     /tmp/ccahJZJb.s:2482   .debug_str:0000000000000098 .LASF61
     /tmp/ccahJZJb.s:2670   .debug_str:00000000000006b2 .LASF62
     /tmp/ccahJZJb.s:2514   .debug_str:0000000000000194 .LASF63
     /tmp/ccahJZJb.s:2582   .debug_str:000000000000038b .LASF64
     /tmp/ccahJZJb.s:2662   .debug_str:0000000000000677 .LASF65
     /tmp/ccahJZJb.s:2470   .debug_str:0000000000000035 .LASF66
     /tmp/ccahJZJb.s:2520   .debug_str:00000000000001c0 .LASF67
     /tmp/ccahJZJb.s:2524   .debug_str:00000000000001db .LASF68
     /tmp/ccahJZJb.s:2646   .debug_str:000000000000056e .LASF69
     /tmp/ccahJZJb.s:2468   .debug_str:000000000000002f .LASF70
     /tmp/ccahJZJb.s:2674   .debug_str:00000000000006cb .LASF71
     /tmp/ccahJZJb.s:2668   .debug_str:00000000000006a7 .LASF72
     /tmp/ccahJZJb.s:2624   .debug_str:00000000000004a6 .LASF73
     /tmp/ccahJZJb.s:2550   .debug_str:00000000000002b8 .LASF74
     /tmp/ccahJZJb.s:2642   .debug_str:0000000000000543 .LASF75
     /tmp/ccahJZJb.s:2488   .debug_str:00000000000000e0 .LASF76
     /tmp/ccahJZJb.s:2600   .debug_str:000000000000040e .LASF77
     /tmp/ccahJZJb.s:2574   .debug_str:0000000000000351 .LASF78
     /tmp/ccahJZJb.s:2530   .debug_str:0000000000000206 .LASF79
     /tmp/ccahJZJb.s:2502   .debug_str:0000000000000153 .LASF80
     /tmp/ccahJZJb.s:2484   .debug_str:00000000000000ac .LASF81
     /tmp/ccahJZJb.s:2544   .debug_str:0000000000000295 .LASF82
     /tmp/ccahJZJb.s:2596   .debug_str:00000000000003dc .LASF83
     /tmp/ccahJZJb.s:2672   .debug_str:00000000000006ba .LASF84
     /tmp/ccahJZJb.s:2472   .debug_str:000000000000003c .LASF85
     /tmp/ccahJZJb.s:226    .text:0000000000000134 .LFB36
     /tmp/ccahJZJb.s:281    .text:000000000000018c .LFE36
     /tmp/ccahJZJb.s:255    .text:0000000000000168 .LBB12
     /tmp/ccahJZJb.s:264    .text:0000000000000170 .LBE12
     /tmp/ccahJZJb.s:2289   .debug_loc:0000000000000000 .LLST4
     /tmp/ccahJZJb.s:2297   .debug_loc:0000000000000024 .LLST5
     /tmp/ccahJZJb.s:242    .text:0000000000000150 .LVL17
     /tmp/ccahJZJb.s:268    .text:0000000000000178 .LVL21
     /tmp/ccahJZJb.s:287    .text:000000000000018c .LFB35
     /tmp/ccahJZJb.s:389    .text:000000000000020c .LFE35
     /tmp/ccahJZJb.s:2304   .debug_loc:0000000000000047 .LLST6
     /tmp/ccahJZJb.s:2612   .debug_str:0000000000000462 .LASF86
     /tmp/ccahJZJb.s:2315   .debug_loc:000000000000007d .LLST7
     /tmp/ccahJZJb.s:307    .text:00000000000001ac .LBB14
     /tmp/ccahJZJb.s:324    .text:00000000000001b8 .LBE14
     /tmp/ccahJZJb.s:326    .text:00000000000001b8 .LBB16
     /tmp/ccahJZJb.s:333    .text:00000000000001bc .LBE16
     /tmp/ccahJZJb.s:2326   .debug_loc:00000000000000b3 .LLST8
     /tmp/ccahJZJb.s:345    .text:00000000000001d0 .LBB18
     /tmp/ccahJZJb.s:356    .text:00000000000001d4 .LBE18
     /tmp/ccahJZJb.s:2333   .debug_loc:00000000000000d6 .LLST9
     /tmp/ccahJZJb.s:340    .text:00000000000001c8 .LVL25
     /tmp/ccahJZJb.s:362    .text:00000000000001e4 .LVL28
     /tmp/ccahJZJb.s:386    .text:0000000000000208 .LVL32
GAS LISTING /tmp/ccahJZJb.s 			page 18


     /tmp/ccahJZJb.s:196    .text:0000000000000118 .LFB34
     /tmp/ccahJZJb.s:220    .text:0000000000000134 .LFE34
     /tmp/ccahJZJb.s:170    .text:0000000000000118 .LFE33
     /tmp/ccahJZJb.s:2340   .debug_loc:00000000000000f9 .LLST3
     /tmp/ccahJZJb.s:132    .text:00000000000000c8 .LVL11
     /tmp/ccahJZJb.s:139    .text:00000000000000dc .LVL12
     /tmp/ccahJZJb.s:147    .text:00000000000000f0 .LVL14
     /tmp/ccahJZJb.s:151    .text:00000000000000fc .LVL15
     /tmp/ccahJZJb.s:2664   .debug_str:000000000000068a .LASF87
     /tmp/ccahJZJb.s:2474   .debug_str:0000000000000057 .LASF108
     /tmp/ccahJZJb.s:10     .text:0000000000000000 .LFB31
     /tmp/ccahJZJb.s:99     .text:00000000000000a0 .LFE31
     /tmp/ccahJZJb.s:2369   .debug_loc:000000000000016e .LLST0
     /tmp/ccahJZJb.s:2391   .debug_loc:00000000000001cd .LLST1
     /tmp/ccahJZJb.s:2417   .debug_loc:000000000000023f .LLST2
     /tmp/ccahJZJb.s:41     .text:000000000000003c .LVL2
     /tmp/ccahJZJb.s:63     .text:0000000000000074 .LVL3
     /tmp/ccahJZJb.s:2606   .debug_str:000000000000043d .LASF88
     /tmp/ccahJZJb.s:2464   .debug_str:0000000000000021 .LASF89
     /tmp/ccahJZJb.s:2660   .debug_str:000000000000066a .LASF91
     /tmp/ccahJZJb.s:2568   .debug_str:0000000000000330 .LASF90
     /tmp/ccahJZJb.s:2598   .debug_str:00000000000003fe .LASF92
     /tmp/ccahJZJb.s:2536   .debug_str:0000000000000240 .LASF93
     /tmp/ccahJZJb.s:2496   .debug_str:0000000000000111 .LASF94
     /tmp/ccahJZJb.s:2638   .debug_str:0000000000000528 .LASF95
     /tmp/ccahJZJb.s:2622   .debug_str:0000000000000496 .LASF96
     /tmp/ccahJZJb.s:254    .text:0000000000000168 .LVL19
     /tmp/ccahJZJb.s:262    .text:0000000000000170 .LVL20
     /tmp/ccahJZJb.s:305    .text:00000000000001ac .LVL22
     /tmp/ccahJZJb.s:372    .text:00000000000001f0 .LVL29
     /tmp/ccahJZJb.s:379    .text:00000000000001fc .LVL31
     /tmp/ccahJZJb.s:322    .text:00000000000001b8 .LVL23
     /tmp/ccahJZJb.s:375    .text:00000000000001f4 .LVL30
     /tmp/ccahJZJb.s:331    .text:00000000000001bc .LVL24
     /tmp/ccahJZJb.s:344    .text:00000000000001d0 .LVL26
     /tmp/ccahJZJb.s:353    .text:00000000000001d4 .LVL27
     /tmp/ccahJZJb.s:112    .text:00000000000000a0 .LVL9
     /tmp/ccahJZJb.s:129    .text:00000000000000c0 .LVL10
     /tmp/ccahJZJb.s:144    .text:00000000000000e4 .LVL13
     /tmp/ccahJZJb.s:165    .text:0000000000000110 .LVL16
     /tmp/ccahJZJb.s:14     .text:0000000000000000 .LVL0
     /tmp/ccahJZJb.s:39     .text:0000000000000034 .LVL1
     /tmp/ccahJZJb.s:75     .text:0000000000000080 .LVL4
     /tmp/ccahJZJb.s:85     .text:0000000000000090 .LVL7
     /tmp/ccahJZJb.s:78     .text:0000000000000084 .LVL5
     /tmp/ccahJZJb.s:92     .text:0000000000000098 .LVL8
     /tmp/ccahJZJb.s:81     .text:0000000000000088 .LVL6
     /tmp/ccahJZJb.s:409    .debug_info:0000000000000000 .Ldebug_info0
     /tmp/ccahJZJb.s:173    .gcc_except_table:0000000000000000 .LLSDA33

UNDEFINED SYMBOLS
_Znam
_ZN9Scheduler3putEP3TCB
_Znwm
_ZdlPv
_Unwind_Resume
__gxx_personality_v0
GAS LISTING /tmp/ccahJZJb.s 			page 19


_ZN5Riscv10popSppSpieEv
_ZN9Scheduler3getEv
_ZN3TCB13contextSwitchEPNS_7ContextES1_
