GAS LISTING /tmp/cc1EUU9V.s 			page 1


   1              		.file	"tcb.cpp"
   2              		.option pic
   3              		.option norelax
   4              		.text
   5              	.Ltext0:
   6              		.align	2
   7              		.globl	_ZN3TCBC2EPFvvEm
   9              	_ZN3TCBC2EPFvvEm:
  10              	.LFB31:
  11              		.file 1 "src/tcb.cpp"
   1:src/tcb.cpp   **** //
   2:src/tcb.cpp   **** // Created by os on 4/26/22.
   3:src/tcb.cpp   **** //
   4:src/tcb.cpp   **** 
   5:src/tcb.cpp   **** #include "../h/tcb.hpp"
   6:src/tcb.cpp   **** #include "../h/scheduler.hpp"
   7:src/tcb.cpp   **** #include "../h/riscv.hpp"
   8:src/tcb.cpp   **** 
   9:src/tcb.cpp   **** 
  10:src/tcb.cpp   **** TCB *TCB::running = nullptr;
  11:src/tcb.cpp   **** uint64 TCB::timeSliceCounter = 0;
  12:src/tcb.cpp   **** 
  13:src/tcb.cpp   **** TCB::TCB(Body body, uint64 timeSlice) : body(body),
  12              		.loc 1 13 1
  13              		.cfi_startproc
  14              	.LVL0:
  15 0000 130101FD 		addi	sp,sp,-48
  16              		.cfi_def_cfa_offset 48
  17 0004 23341102 		sd	ra,40(sp)
  18 0008 23308102 		sd	s0,32(sp)
  19 000c 233C9100 		sd	s1,24(sp)
  20 0010 23382101 		sd	s2,16(sp)
  21 0014 23343101 		sd	s3,8(sp)
  22              		.cfi_offset 1, -8
  23              		.cfi_offset 8, -16
  24              		.cfi_offset 9, -24
  25              		.cfi_offset 18, -32
  26              		.cfi_offset 19, -40
  27 0018 13040103 		addi	s0,sp,48
  28              		.cfi_def_cfa 8, 0
  29 001c 93040500 		mv	s1,a0
  30 0020 13890500 		mv	s2,a1
  31 0024 93090600 		mv	s3,a2
  32              	.LBB6:
  14:src/tcb.cpp   **** stack(body != nullptr ? new uint64[STACK_SIZE] : nullptr),
  15:src/tcb.cpp   **** context({(uint64) &threadWrapper,
  16:src/tcb.cpp   ****          stack != nullptr ? (uint64) &stack[STACK_SIZE] : 0 }),
  17:src/tcb.cpp   **** timeSlice(timeSlice),
  18:src/tcb.cpp   **** finished(false) { if (body != nullptr) { Scheduler::put(this); } }
  33              		.loc 1 18 15 is_stmt 0
  34 0028 2330B500 		sd	a1,0(a0)
  14:src/tcb.cpp   **** stack(body != nullptr ? new uint64[STACK_SIZE] : nullptr),
  35              		.loc 1 14 23
  36 002c 63820506 		beqz	a1,.L5
  14:src/tcb.cpp   **** stack(body != nullptr ? new uint64[STACK_SIZE] : nullptr),
  37              		.loc 1 14 46 discriminator 1
  38 0030 37250000 		li	a0,8192
GAS LISTING /tmp/cc1EUU9V.s 			page 2


  39              	.LVL1:
  40 0034 97000000 		call	_Znam@plt
  40      E7800000 
  41              	.LVL2:
  42              	.L2:
  43              		.loc 1 18 15
  44 003c 23B4A400 		sd	a0,8(s1)
  45 0040 97070000 		lla	a5,_ZN3TCB13threadWrapperEv
  45      93870700 
  46 0048 23B8F400 		sd	a5,16(s1)
  16:src/tcb.cpp   **** timeSlice(timeSlice),
  47              		.loc 1 16 27
  48 004c 63060504 		beqz	a0,.L6
  16:src/tcb.cpp   **** timeSlice(timeSlice),
  49              		.loc 1 16 38 discriminator 1
  50 0050 B7270000 		li	a5,8192
  51 0054 3305F500 		add	a0,a0,a5
  52              	.L3:
  53              		.loc 1 18 15
  54 0058 23BCA400 		sd	a0,24(s1)
  55 005c 23B03403 		sd	s3,32(s1)
  56 0060 23840402 		sb	zero,40(s1)
  57              		.loc 1 18 19 is_stmt 1
  58 0064 63080900 		beqz	s2,.L1
  59              		.loc 1 18 42 discriminator 1
  60              		.loc 1 18 56 is_stmt 0 discriminator 1
  61 0068 13850400 		mv	a0,s1
  62 006c 97000000 		call	_ZN9Scheduler3putEP3TCB@plt
  62      E7800000 
  63              	.LVL3:
  64              	.L1:
  65              	.LBE6:
  66              		.loc 1 18 66
  67 0074 83308102 		ld	ra,40(sp)
  68              		.cfi_remember_state
  69              		.cfi_restore 1
  70 0078 03340102 		ld	s0,32(sp)
  71              		.cfi_restore 8
  72              		.cfi_def_cfa 2, 48
  73 007c 83348101 		ld	s1,24(sp)
  74              		.cfi_restore 9
  75              	.LVL4:
  76 0080 03390101 		ld	s2,16(sp)
  77              		.cfi_restore 18
  78              	.LVL5:
  79 0084 83398100 		ld	s3,8(sp)
  80              		.cfi_restore 19
  81              	.LVL6:
  82 0088 13010103 		addi	sp,sp,48
  83              		.cfi_def_cfa_offset 0
  84 008c 67800000 		jr	ra
  85              	.LVL7:
  86              	.L5:
  87              		.cfi_restore_state
  88              	.LBB7:
  14:src/tcb.cpp   **** stack(body != nullptr ? new uint64[STACK_SIZE] : nullptr),
  89              		.loc 1 14 23
GAS LISTING /tmp/cc1EUU9V.s 			page 3


  90 0090 13050000 		li	a0,0
  91 0094 6FF09FFA 		j	.L2
  92              	.LVL8:
  93              	.L6:
  16:src/tcb.cpp   **** timeSlice(timeSlice),
  94              		.loc 1 16 27
  95 0098 13050000 		li	a0,0
  96 009c 6FF0DFFB 		j	.L3
  97              	.LBE7:
  98              		.cfi_endproc
  99              	.LFE31:
 101              		.globl	_ZN3TCBC1EPFvvEm
 102              		.set	_ZN3TCBC1EPFvvEm,_ZN3TCBC2EPFvvEm
 103              		.align	2
 104              		.globl	_ZN3TCB12createThreadEPFvvE
 106              	_ZN3TCB12createThreadEPFvvE:
 107              	.LFB33:
  19:src/tcb.cpp   **** 
  20:src/tcb.cpp   **** TCB *TCB::createThread(Body body) { return new TCB(body, TIME_SLICE); }
 108              		.loc 1 20 35 is_stmt 1
 109              		.cfi_startproc
 110              		.cfi_personality 0x9b,DW.ref.__gxx_personality_v0
 111              		.cfi_lsda 0x1b,.LLSDA33
 112              	.LVL9:
 113 00a0 130101FE 		addi	sp,sp,-32
 114              		.cfi_def_cfa_offset 32
 115 00a4 233C1100 		sd	ra,24(sp)
 116 00a8 23388100 		sd	s0,16(sp)
 117 00ac 23349100 		sd	s1,8(sp)
 118 00b0 23302101 		sd	s2,0(sp)
 119              		.cfi_offset 1, -8
 120              		.cfi_offset 8, -16
 121              		.cfi_offset 9, -24
 122              		.cfi_offset 18, -32
 123 00b4 13040102 		addi	s0,sp,32
 124              		.cfi_def_cfa 8, 0
 125 00b8 13090500 		mv	s2,a0
 126              		.loc 1 20 37
 127              		.loc 1 20 68 is_stmt 0
 128 00bc 13050003 		li	a0,48
 129              	.LVL10:
 130              	.LEHB0:
 131 00c0 97000000 		call	_Znwm@plt
 131      E7800000 
 132              	.LVL11:
 133              	.LEHE0:
 134 00c8 93040500 		mv	s1,a0
 135 00cc 13062000 		li	a2,2
 136 00d0 93050900 		mv	a1,s2
 137              	.LEHB1:
 138 00d4 97000000 		call	_ZN3TCBC1EPFvvEm
 138      E7800000 
 139              	.LVL12:
 140              	.LEHE1:
 141 00dc 6F000002 		j	.L13
 142              	.L10:
 143 00e0 13090500 		mv	s2,a0
GAS LISTING /tmp/cc1EUU9V.s 			page 4


 144              	.LVL13:
 145 00e4 13850400 		mv	a0,s1
 146 00e8 97000000 		call	_ZdlPv@plt
 146      E7800000 
 147              	.LVL14:
 148 00f0 13050900 		mv	a0,s2
 149              	.LEHB2:
 150 00f4 97000000 		call	_Unwind_Resume@plt
 150      E7800000 
 151              	.LVL15:
 152              	.LEHE2:
 153              	.L13:
 154              		.loc 1 20 71
 155 00fc 13850400 		mv	a0,s1
 156 0100 83308101 		ld	ra,24(sp)
 157              		.cfi_restore 1
 158 0104 03340101 		ld	s0,16(sp)
 159              		.cfi_restore 8
 160              		.cfi_def_cfa 2, 32
 161 0108 83348100 		ld	s1,8(sp)
 162              		.cfi_restore 9
 163 010c 03390100 		ld	s2,0(sp)
 164              		.cfi_restore 18
 165              	.LVL16:
 166 0110 13010102 		addi	sp,sp,32
 167              		.cfi_def_cfa_offset 0
 168 0114 67800000 		jr	ra
 169              		.cfi_endproc
 170              	.LFE33:
 171              		.globl	__gxx_personality_v0
 172              		.section	.gcc_except_table,"a",@progbits
 173              	.LLSDA33:
 174 0000 FF       		.byte	0xff
 175 0001 FF       		.byte	0xff
 176 0002 03       		.byte	0x3
 177 0003 27       		.byte	0x27
 178 0004 00000000 		.4byte	.LEHB0-.LFB33
 179 0008 00000000 		.4byte	.LEHE0-.LEHB0
 180 000c 00000000 		.4byte	0
 181 0010 00       		.byte	0
 182 0011 00000000 		.4byte	.LEHB1-.LFB33
 183 0015 00000000 		.4byte	.LEHE1-.LEHB1
 184 0019 00000000 		.4byte	.L10-.LFB33
 185 001d 00       		.byte	0
 186 001e 00000000 		.4byte	.LEHB2-.LFB33
 187 0022 00000000 		.4byte	.LEHE2-.LEHB2
 188 0026 00000000 		.4byte	0
 189 002a 00       		.byte	0
 190              		.text
 192              		.align	2
 193              		.globl	_ZN3TCB5yieldEv
 195              	_ZN3TCB5yieldEv:
 196              	.LFB34:
  21:src/tcb.cpp   **** 
  22:src/tcb.cpp   **** void TCB::yield() { __asm__ volatile ("ecall"); }
 197              		.loc 1 22 19 is_stmt 1
 198              		.cfi_startproc
GAS LISTING /tmp/cc1EUU9V.s 			page 5


 199 0118 130101FF 		addi	sp,sp,-16
 200              		.cfi_def_cfa_offset 16
 201 011c 23348100 		sd	s0,8(sp)
 202              		.cfi_offset 8, -8
 203 0120 13040101 		addi	s0,sp,16
 204              		.cfi_def_cfa 8, 0
 205              		.loc 1 22 21
 206              		.loc 1 22 47 is_stmt 0
 207              	#APP
 208              	# 22 "src/tcb.cpp" 1
  23              	
  22:src/tcb.cpp   **** void TCB::yield() { __asm__ volatile ("ecall"); }
 209              		ecall
 210              	# 0 "" 2
 211              		.loc 1 22 49
 212              	#NO_APP
 213 0128 03348100 		ld	s0,8(sp)
 214              		.cfi_restore 8
 215              		.cfi_def_cfa 2, 16
 216 012c 13010101 		addi	sp,sp,16
 217              		.cfi_def_cfa_offset 0
 218 0130 67800000 		jr	ra
 219              		.cfi_endproc
 220              	.LFE34:
 222              		.align	2
 223              		.globl	_ZN3TCB13threadWrapperEv
 225              	_ZN3TCB13threadWrapperEv:
 226              	.LFB36:
  24:src/tcb.cpp   **** void TCB::dispatch() {
  25:src/tcb.cpp   ****     TCB *old = running;
  26:src/tcb.cpp   ****     if (!old->isFinished()) { Scheduler::put(old); }
  27:src/tcb.cpp   ****     running = Scheduler::get();
  28:src/tcb.cpp   ****     TCB::contextSwitch(&old->context, &running->context);
  29:src/tcb.cpp   **** }
  30:src/tcb.cpp   **** 
  31:src/tcb.cpp   **** void TCB::threadWrapper() {
 227              		.loc 1 31 27 is_stmt 1
 228              		.cfi_startproc
 229 0134 130101FE 		addi	sp,sp,-32
 230              		.cfi_def_cfa_offset 32
 231 0138 233C1100 		sd	ra,24(sp)
 232 013c 23388100 		sd	s0,16(sp)
 233 0140 23349100 		sd	s1,8(sp)
 234              		.cfi_offset 1, -8
 235              		.cfi_offset 8, -16
 236              		.cfi_offset 9, -24
 237 0144 13040102 		addi	s0,sp,32
 238              		.cfi_def_cfa 8, 0
  32:src/tcb.cpp   ****     Riscv::popSppSpie();
 239              		.loc 1 32 5
 240              		.loc 1 32 22 is_stmt 0
 241 0148 97000000 		call	_ZN5Riscv10popSppSpieEv@plt
 241      E7800000 
 242              	.LVL17:
  33:src/tcb.cpp   ****     running->body();
 243              		.loc 1 33 5 is_stmt 1
 244              		.loc 1 33 14 is_stmt 0
GAS LISTING /tmp/cc1EUU9V.s 			page 6


 245 0150 97040000 		lla	s1,.LANCHOR0
 245      93840400 
 246 0158 83B70400 		ld	a5,0(s1)
 247 015c 83B70700 		ld	a5,0(a5)
 248              		.loc 1 33 18
 249 0160 E7800700 		jalr	a5
 250              	.LVL18:
  34:src/tcb.cpp   ****     running->setFinished(true);
 251              		.loc 1 34 5 is_stmt 1
 252              		.loc 1 34 25 is_stmt 0
 253 0164 83B70400 		ld	a5,0(s1)
 254              	.LVL19:
 255              	.LBB8:
 256              	.LBB9:
 257              		.file 2 "src/../h/tcb.hpp"
   1:src/../h/tcb.hpp **** //
   2:src/../h/tcb.hpp **** // Created by os on 4/26/22.
   3:src/../h/tcb.hpp **** //
   4:src/../h/tcb.hpp **** 
   5:src/../h/tcb.hpp **** #ifndef PROJECT_BASE_V1_0_TCB_HPP
   6:src/../h/tcb.hpp **** #define PROJECT_BASE_V1_0_TCB_HPP
   7:src/../h/tcb.hpp **** 
   8:src/../h/tcb.hpp **** #include "../lib/hw.h"
   9:src/../h/tcb.hpp **** 
  10:src/../h/tcb.hpp **** class TCB {
  11:src/../h/tcb.hpp ****         public:
  12:src/../h/tcb.hpp ****         ~TCB() { delete[] stack; }
  13:src/../h/tcb.hpp ****         bool isFinished() const { return finished; }
  14:src/../h/tcb.hpp ****         void setFinished(bool value) { finished = value; }
 258              		.loc 2 14 40 is_stmt 1
 259              		.loc 2 14 49 is_stmt 0
 260 0168 13071000 		li	a4,1
 261 016c 2384E702 		sb	a4,40(a5)
 262              	.LVL20:
 263              	.LBE9:
 264              	.LBE8:
  35:src/tcb.cpp   ****     TCB::yield();
 265              		.loc 1 35 5 is_stmt 1
 266              		.loc 1 35 15 is_stmt 0
 267 0170 97000000 		call	_ZN3TCB5yieldEv
 267      E7800000 
 268              	.LVL21:
  36:src/tcb.cpp   **** }
 269              		.loc 1 36 1
 270 0178 83308101 		ld	ra,24(sp)
 271              		.cfi_restore 1
 272 017c 03340101 		ld	s0,16(sp)
 273              		.cfi_restore 8
 274              		.cfi_def_cfa 2, 32
 275 0180 83348100 		ld	s1,8(sp)
 276              		.cfi_restore 9
 277 0184 13010102 		addi	sp,sp,32
 278              		.cfi_def_cfa_offset 0
 279 0188 67800000 		jr	ra
 280              		.cfi_endproc
 281              	.LFE36:
 283              		.align	2
GAS LISTING /tmp/cc1EUU9V.s 			page 7


 284              		.globl	_ZN3TCB8dispatchEv
 286              	_ZN3TCB8dispatchEv:
 287              	.LFB35:
  24:src/tcb.cpp   ****     TCB *old = running;
 288              		.loc 1 24 22 is_stmt 1
 289              		.cfi_startproc
 290 018c 130101FE 		addi	sp,sp,-32
 291              		.cfi_def_cfa_offset 32
 292 0190 233C1100 		sd	ra,24(sp)
 293 0194 23388100 		sd	s0,16(sp)
 294 0198 23349100 		sd	s1,8(sp)
 295              		.cfi_offset 1, -8
 296              		.cfi_offset 8, -16
 297              		.cfi_offset 9, -24
 298 019c 13040102 		addi	s0,sp,32
 299              		.cfi_def_cfa 8, 0
  25:src/tcb.cpp   ****     if (!old->isFinished()) { Scheduler::put(old); }
 300              		.loc 1 25 5
  25:src/tcb.cpp   ****     if (!old->isFinished()) { Scheduler::put(old); }
 301              		.loc 1 25 10 is_stmt 0
 302 01a0 97040000 		ld	s1,.LANCHOR0
 302      83B40400 
 303              	.LVL22:
  26:src/tcb.cpp   ****     running = Scheduler::get();
 304              		.loc 1 26 5 is_stmt 1
 305              	.LBB10:
 306              	.LBB11:
  13:src/../h/tcb.hpp ****         void setFinished(bool value) { finished = value; }
 307              		.loc 2 13 35
  13:src/../h/tcb.hpp ****         void setFinished(bool value) { finished = value; }
 308              		.loc 2 13 42 is_stmt 0
 309 01a8 83C78402 		lbu	a5,40(s1)
 310              	.LVL23:
 311              	.LBE11:
 312              	.LBE10:
  26:src/tcb.cpp   ****     running = Scheduler::get();
 313              		.loc 1 26 5
 314 01ac 638C0702 		beqz	a5,.L21
 315              	.L19:
  27:src/tcb.cpp   ****     TCB::contextSwitch(&old->context, &running->context);
 316              		.loc 1 27 5 is_stmt 1
  27:src/tcb.cpp   ****     TCB::contextSwitch(&old->context, &running->context);
 317              		.loc 1 27 29 is_stmt 0
 318 01b0 97000000 		call	_ZN9Scheduler3getEv@plt
 318      E7800000 
 319              	.LVL24:
  27:src/tcb.cpp   ****     TCB::contextSwitch(&old->context, &running->context);
 320              		.loc 1 27 13
 321 01b8 97070000 		sd	a0,.LANCHOR0,a5
 321      23B0A700 
  28:src/tcb.cpp   **** }
 322              		.loc 1 28 5 is_stmt 1
  28:src/tcb.cpp   **** }
 323              		.loc 1 28 23 is_stmt 0
 324 01c0 93050501 		addi	a1,a0,16
 325 01c4 13850401 		addi	a0,s1,16
 326 01c8 97000000 		call	_ZN3TCB13contextSwitchEPNS_7ContextES1_@plt
GAS LISTING /tmp/cc1EUU9V.s 			page 8


 326      E7800000 
 327              	.LVL25:
  29:src/tcb.cpp   **** 
 328              		.loc 1 29 1
 329 01d0 83308101 		ld	ra,24(sp)
 330              		.cfi_remember_state
 331              		.cfi_restore 1
 332 01d4 03340101 		ld	s0,16(sp)
 333              		.cfi_restore 8
 334              		.cfi_def_cfa 2, 32
 335 01d8 83348100 		ld	s1,8(sp)
 336              		.cfi_restore 9
 337              	.LVL26:
 338 01dc 13010102 		addi	sp,sp,32
 339              		.cfi_def_cfa_offset 0
 340 01e0 67800000 		jr	ra
 341              	.LVL27:
 342              	.L21:
 343              		.cfi_restore_state
  26:src/tcb.cpp   ****     running = Scheduler::get();
 344              		.loc 1 26 31 is_stmt 1 discriminator 1
  26:src/tcb.cpp   ****     running = Scheduler::get();
 345              		.loc 1 26 45 is_stmt 0 discriminator 1
 346 01e4 13850400 		mv	a0,s1
 347 01e8 97000000 		call	_ZN9Scheduler3putEP3TCB@plt
 347      E7800000 
 348              	.LVL28:
 349 01f0 6FF01FFC 		j	.L19
 350              		.cfi_endproc
 351              	.LFE35:
 353              		.globl	_ZN3TCB16timeSliceCounterE
 354              		.globl	_ZN3TCB7runningE
 355              		.bss
 356              		.align	3
 357              		.set	.LANCHOR0,. + 0
 360              	_ZN3TCB7runningE:
 361 0000 00000000 		.zero	8
 361      00000000 
 364              	_ZN3TCB16timeSliceCounterE:
 365 0008 00000000 		.zero	8
 365      00000000 
 366              		.text
 367              	.Letext0:
 368              		.file 3 "src/../h/../lib/hw.h"
 369              		.file 4 "src/../h/scheduler.hpp"
 370              		.file 5 "src/../h/riscv.hpp"
 2498              		.align	3
 2501              	DW.ref.__gxx_personality_v0:
 2502 0000 00000000 		.dword	__gxx_personality_v0
 2502      00000000 
 2503              		.ident	"GCC: (Ubuntu 9.4.0-1ubuntu1~20.04) 9.4.0"
 2504              		.section	.note.GNU-stack,"",@progbits
GAS LISTING /tmp/cc1EUU9V.s 			page 9

