GAS LISTING /tmp/ccAeULGz.s 			page 1


   1              		.file	"workers.cpp"
   2              		.option pic
   3              		.option norelax
   4              		.text
   5              	.Ltext0:
   6              		.section	.rodata.str1.8,"aMS",@progbits,1
   7              		.align	3
   8              	.LC0:
   9 0000 413A2069 		.string	"A: i="
   9      3D00
  10 0006 0000     		.align	3
  11              	.LC1:
  12 0008 0A00     		.string	"\n"
  13              		.text
  14              		.align	2
  15              		.globl	_Z11workerBodyAv
  17              	_Z11workerBodyAv:
  18              	.LFB6:
  19              		.file 1 "src/workers.cpp"
   1:src/workers.cpp **** //
   2:src/workers.cpp **** // Created by os on 4/26/22.
   3:src/workers.cpp **** //
   4:src/workers.cpp **** #include "../h/workers.hpp"
   5:src/workers.cpp **** #include "../lib/hw.h"
   6:src/workers.cpp **** #include "../h/print.hpp"
   7:src/workers.cpp **** #include "../h/ccb.hpp"
   8:src/workers.cpp **** #include "../h/tcb.hpp"
   9:src/workers.cpp **** 
  10:src/workers.cpp **** 
  11:src/workers.cpp **** void workerBodyA() {
  20              		.loc 1 11 20
  21              		.cfi_startproc
  22 0000 130101FE 		addi	sp,sp,-32
  23              		.cfi_def_cfa_offset 32
  24 0004 233C1100 		sd	ra,24(sp)
  25 0008 23388100 		sd	s0,16(sp)
  26 000c 23349100 		sd	s1,8(sp)
  27              		.cfi_offset 1, -8
  28              		.cfi_offset 8, -16
  29              		.cfi_offset 9, -24
  30 0010 13040102 		addi	s0,sp,32
  31              		.cfi_def_cfa 8, 0
  12:src/workers.cpp ****     for (uint64 i = 0; i < 10; i++) {
  32              		.loc 1 12 5
  33              	.LVL0:
  34              	.LBB2:
  35              		.loc 1 12 17 is_stmt 0
  36 0014 93040000 		li	s1,0
  37 0018 6F000003 		j	.L7
  38              	.LVL1:
  39              	.L4:
  40              	.LBB3:
  41              	.LBB4:
  13:src/workers.cpp ****         printString("A: i="); printInteger(i); printString("\n");
  14:src/workers.cpp ****         for (uint64 j = 0; j < 10000; j++) {
  42              		.loc 1 14 9 is_stmt 1 discriminator 2
  43 001c 93861600 		addi	a3,a3,1
GAS LISTING /tmp/ccAeULGz.s 			page 2


  44              	.LVL2:
  45              	.L6:
  46              		.loc 1 14 30 discriminator 1
  47 0020 B7270000 		li	a5,8192
  48 0024 9387F770 		addi	a5,a5,1807
  49 0028 63EED700 		bgtu	a3,a5,.L3
  50              	.LBB5:
  15:src/workers.cpp ****             for (uint64 k = 0; k < 30000; k++) { /* busy wait */ }
  51              		.loc 1 15 25 is_stmt 0
  52 002c 13070000 		li	a4,0
  53              	.L5:
  54              	.LVL3:
  55              		.loc 1 15 34 is_stmt 1 discriminator 3
  56 0030 B7770000 		li	a5,28672
  57 0034 9387F752 		addi	a5,a5,1327
  58 0038 E3E2E7FE 		bgtu	a4,a5,.L4
  59              		.loc 1 15 13 discriminator 2
  60 003c 13071700 		addi	a4,a4,1
  61              	.LVL4:
  62 0040 6FF01FFF 		j	.L5
  63              	.LVL5:
  64              	.L3:
  65              	.LBE5:
  66              	.LBE4:
  67              	.LBE3:
  12:src/workers.cpp ****     for (uint64 i = 0; i < 10; i++) {
  68              		.loc 1 12 5 discriminator 2
  69 0044 93841400 		addi	s1,s1,1
  70              	.LVL6:
  71              	.L7:
  12:src/workers.cpp ****     for (uint64 i = 0; i < 10; i++) {
  72              		.loc 1 12 26 discriminator 1
  73 0048 93079000 		li	a5,9
  74 004c 63EC9702 		bgtu	s1,a5,.L1
  75              	.LBB7:
  13:src/workers.cpp ****         printString("A: i="); printInteger(i); printString("\n");
  76              		.loc 1 13 9
  13:src/workers.cpp ****         printString("A: i="); printInteger(i); printString("\n");
  77              		.loc 1 13 20 is_stmt 0
  78 0050 17050000 		lla	a0,.LC0
  78      13050500 
  79 0058 97000000 		call	_Z11printStringPKc@plt
  79      E7800000 
  80              	.LVL7:
  13:src/workers.cpp ****         printString("A: i="); printInteger(i); printString("\n");
  81              		.loc 1 13 31 is_stmt 1
  13:src/workers.cpp ****         printString("A: i="); printInteger(i); printString("\n");
  82              		.loc 1 13 43 is_stmt 0
  83 0060 13850400 		mv	a0,s1
  84 0064 97000000 		call	_Z12printIntegerm@plt
  84      E7800000 
  85              	.LVL8:
  13:src/workers.cpp ****         printString("A: i="); printInteger(i); printString("\n");
  86              		.loc 1 13 48 is_stmt 1
  13:src/workers.cpp ****         printString("A: i="); printInteger(i); printString("\n");
  87              		.loc 1 13 59 is_stmt 0
  88 006c 17050000 		lla	a0,.LC1
GAS LISTING /tmp/ccAeULGz.s 			page 3


  88      13050500 
  89 0074 97000000 		call	_Z11printStringPKc@plt
  89      E7800000 
  90              	.LVL9:
  14:src/workers.cpp ****             for (uint64 k = 0; k < 30000; k++) { /* busy wait */ }
  91              		.loc 1 14 9 is_stmt 1
  92              	.LBB6:
  14:src/workers.cpp ****             for (uint64 k = 0; k < 30000; k++) { /* busy wait */ }
  93              		.loc 1 14 21 is_stmt 0
  94 007c 93060000 		li	a3,0
  95 0080 6FF01FFA 		j	.L6
  96              	.LVL10:
  97              	.L1:
  98              	.LBE6:
  99              	.LBE7:
 100              	.LBE2:
  16:src/workers.cpp ****             // TCB::yield();
  17:src/workers.cpp ****         }
  18:src/workers.cpp ****     }
  19:src/workers.cpp **** }
 101              		.loc 1 19 1
 102 0084 83308101 		ld	ra,24(sp)
 103              		.cfi_restore 1
 104 0088 03340101 		ld	s0,16(sp)
 105              		.cfi_restore 8
 106              		.cfi_def_cfa 2, 32
 107 008c 83348100 		ld	s1,8(sp)
 108              		.cfi_restore 9
 109              	.LVL11:
 110 0090 13010102 		addi	sp,sp,32
 111              		.cfi_def_cfa_offset 0
 112 0094 67800000 		jr	ra
 113              		.cfi_endproc
 114              	.LFE6:
 116              		.section	.rodata.str1.8
 117 000a 00000000 		.align	3
 117      0000
 118              	.LC2:
 119 0010 423A2069 		.string	"B: i="
 119      3D00
 120              		.text
 121              		.align	2
 122              		.globl	_Z11workerBodyBv
 124              	_Z11workerBodyBv:
 125              	.LFB7:
  20:src/workers.cpp **** 
  21:src/workers.cpp **** void workerBodyB() {
 126              		.loc 1 21 20 is_stmt 1
 127              		.cfi_startproc
 128 0098 130101FE 		addi	sp,sp,-32
 129              		.cfi_def_cfa_offset 32
 130 009c 233C1100 		sd	ra,24(sp)
 131 00a0 23388100 		sd	s0,16(sp)
 132 00a4 23349100 		sd	s1,8(sp)
 133              		.cfi_offset 1, -8
 134              		.cfi_offset 8, -16
 135              		.cfi_offset 9, -24
GAS LISTING /tmp/ccAeULGz.s 			page 4


 136 00a8 13040102 		addi	s0,sp,32
 137              		.cfi_def_cfa 8, 0
  22:src/workers.cpp ****     for (uint64 i = 0; i < 16; i++) {
 138              		.loc 1 22 5
 139              	.LVL12:
 140              	.LBB8:
 141              		.loc 1 22 17 is_stmt 0
 142 00ac 93040000 		li	s1,0
 143 00b0 6F000003 		j	.L15
 144              	.LVL13:
 145              	.L12:
 146              	.LBB9:
 147              	.LBB10:
  23:src/workers.cpp ****         printString("B: i="); printInteger(i); printString("\n");
  24:src/workers.cpp ****         for (uint64 j = 0; j < 10000; j++) {
 148              		.loc 1 24 9 is_stmt 1 discriminator 2
 149 00b4 93861600 		addi	a3,a3,1
 150              	.LVL14:
 151              	.L14:
 152              		.loc 1 24 30 discriminator 1
 153 00b8 B7270000 		li	a5,8192
 154 00bc 9387F770 		addi	a5,a5,1807
 155 00c0 63EED700 		bgtu	a3,a5,.L11
 156              	.LBB11:
  25:src/workers.cpp ****             for (uint64 k = 0; k < 30000; k++) { /* busy wait */ }
 157              		.loc 1 25 25 is_stmt 0
 158 00c4 13070000 		li	a4,0
 159              	.L13:
 160              	.LVL15:
 161              		.loc 1 25 34 is_stmt 1 discriminator 3
 162 00c8 B7770000 		li	a5,28672
 163 00cc 9387F752 		addi	a5,a5,1327
 164 00d0 E3E2E7FE 		bgtu	a4,a5,.L12
 165              		.loc 1 25 13 discriminator 2
 166 00d4 13071700 		addi	a4,a4,1
 167              	.LVL16:
 168 00d8 6FF01FFF 		j	.L13
 169              	.LVL17:
 170              	.L11:
 171              	.LBE11:
 172              	.LBE10:
 173              	.LBE9:
  22:src/workers.cpp ****     for (uint64 i = 0; i < 16; i++) {
 174              		.loc 1 22 5 discriminator 2
 175 00dc 93841400 		addi	s1,s1,1
 176              	.LVL18:
 177              	.L15:
  22:src/workers.cpp ****     for (uint64 i = 0; i < 16; i++) {
 178              		.loc 1 22 26 discriminator 1
 179 00e0 9307F000 		li	a5,15
 180 00e4 63EC9702 		bgtu	s1,a5,.L9
 181              	.LBB13:
  23:src/workers.cpp ****         printString("B: i="); printInteger(i); printString("\n");
 182              		.loc 1 23 9
  23:src/workers.cpp ****         printString("B: i="); printInteger(i); printString("\n");
 183              		.loc 1 23 20 is_stmt 0
 184 00e8 17050000 		lla	a0,.LC2
GAS LISTING /tmp/ccAeULGz.s 			page 5


 184      13050500 
 185 00f0 97000000 		call	_Z11printStringPKc@plt
 185      E7800000 
 186              	.LVL19:
  23:src/workers.cpp ****         printString("B: i="); printInteger(i); printString("\n");
 187              		.loc 1 23 31 is_stmt 1
  23:src/workers.cpp ****         printString("B: i="); printInteger(i); printString("\n");
 188              		.loc 1 23 43 is_stmt 0
 189 00f8 13850400 		mv	a0,s1
 190 00fc 97000000 		call	_Z12printIntegerm@plt
 190      E7800000 
 191              	.LVL20:
  23:src/workers.cpp ****         printString("B: i="); printInteger(i); printString("\n");
 192              		.loc 1 23 48 is_stmt 1
  23:src/workers.cpp ****         printString("B: i="); printInteger(i); printString("\n");
 193              		.loc 1 23 59 is_stmt 0
 194 0104 17050000 		lla	a0,.LC1
 194      13050500 
 195 010c 97000000 		call	_Z11printStringPKc@plt
 195      E7800000 
 196              	.LVL21:
  24:src/workers.cpp ****             for (uint64 k = 0; k < 30000; k++) { /* busy wait */ }
 197              		.loc 1 24 9 is_stmt 1
 198              	.LBB12:
  24:src/workers.cpp ****             for (uint64 k = 0; k < 30000; k++) { /* busy wait */ }
 199              		.loc 1 24 21 is_stmt 0
 200 0114 93060000 		li	a3,0
 201 0118 6FF01FFA 		j	.L14
 202              	.LVL22:
 203              	.L9:
 204              	.LBE12:
 205              	.LBE13:
 206              	.LBE8:
  26:src/workers.cpp ****             // TCB::yield();
  27:src/workers.cpp ****         }
  28:src/workers.cpp ****     }
  29:src/workers.cpp **** }
 207              		.loc 1 29 1
 208 011c 83308101 		ld	ra,24(sp)
 209              		.cfi_restore 1
 210 0120 03340101 		ld	s0,16(sp)
 211              		.cfi_restore 8
 212              		.cfi_def_cfa 2, 32
 213 0124 83348100 		ld	s1,8(sp)
 214              		.cfi_restore 9
 215              	.LVL23:
 216 0128 13010102 		addi	sp,sp,32
 217              		.cfi_def_cfa_offset 0
 218 012c 67800000 		jr	ra
 219              		.cfi_endproc
 220              	.LFE7:
 222              		.align	2
 223              		.globl	_Z9fibonaccim
 225              	_Z9fibonaccim:
 226              	.LFB8:
  30:src/workers.cpp **** 
  31:src/workers.cpp **** uint64 fibonacci(uint64 n) {
GAS LISTING /tmp/ccAeULGz.s 			page 6


 227              		.loc 1 31 28 is_stmt 1
 228              		.cfi_startproc
 229              	.LVL24:
 230 0130 130101FE 		addi	sp,sp,-32
 231              		.cfi_def_cfa_offset 32
 232 0134 233C1100 		sd	ra,24(sp)
 233 0138 23388100 		sd	s0,16(sp)
 234 013c 23349100 		sd	s1,8(sp)
 235 0140 23302101 		sd	s2,0(sp)
 236              		.cfi_offset 1, -8
 237              		.cfi_offset 8, -16
 238              		.cfi_offset 9, -24
 239              		.cfi_offset 18, -32
 240 0144 13040102 		addi	s0,sp,32
 241              		.cfi_def_cfa 8, 0
 242 0148 93040500 		mv	s1,a0
  32:src/workers.cpp ****     if (n == 0 || n == 1) { return n; }
 243              		.loc 1 32 5
 244 014c 93071000 		li	a5,1
 245 0150 63F8A702 		bleu	a0,a5,.L17
  33:src/workers.cpp ****     if (n % 10 == 0) { TCB::yield(); }
 246              		.loc 1 33 5
 247              		.loc 1 33 11 is_stmt 0
 248 0154 9307A000 		li	a5,10
 249 0158 B377F502 		remu	a5,a0,a5
 250              		.loc 1 33 5
 251 015c 638E0702 		beqz	a5,.L22
 252              	.LVL25:
 253              	.L19:
  34:src/workers.cpp ****     return fibonacci(n - 1) + fibonacci(n - 2);
 254              		.loc 1 34 5 is_stmt 1
 255              		.loc 1 34 21 is_stmt 0
 256 0160 1385F4FF 		addi	a0,s1,-1
 257 0164 97000000 		call	_Z9fibonaccim
 257      E7800000 
 258              	.LVL26:
 259 016c 13090500 		mv	s2,a0
 260              		.loc 1 34 40
 261 0170 1385E4FF 		addi	a0,s1,-2
 262 0174 97000000 		call	_Z9fibonaccim
 262      E7800000 
 263              	.LVL27:
 264              		.loc 1 34 46
 265 017c 3305A900 		add	a0,s2,a0
 266              	.L17:
  35:src/workers.cpp **** }
 267              		.loc 1 35 1
 268 0180 83308101 		ld	ra,24(sp)
 269              		.cfi_remember_state
 270              		.cfi_restore 1
 271 0184 03340101 		ld	s0,16(sp)
 272              		.cfi_restore 8
 273              		.cfi_def_cfa 2, 32
 274 0188 83348100 		ld	s1,8(sp)
 275              		.cfi_restore 9
 276              	.LVL28:
 277 018c 03390100 		ld	s2,0(sp)
GAS LISTING /tmp/ccAeULGz.s 			page 7


 278              		.cfi_restore 18
 279 0190 13010102 		addi	sp,sp,32
 280              		.cfi_def_cfa_offset 0
 281 0194 67800000 		jr	ra
 282              	.LVL29:
 283              	.L22:
 284              		.cfi_restore_state
  33:src/workers.cpp ****     if (n % 10 == 0) { TCB::yield(); }
 285              		.loc 1 33 24 is_stmt 1 discriminator 1
  33:src/workers.cpp ****     if (n % 10 == 0) { TCB::yield(); }
 286              		.loc 1 33 34 is_stmt 0 discriminator 1
 287 0198 97000000 		call	_ZN3TCB5yieldEv@plt
 287      E7800000 
 288              	.LVL30:
 289 01a0 6FF01FFC 		j	.L19
 290              		.cfi_endproc
 291              	.LFE8:
 293              		.section	.rodata.str1.8
 294 0016 0000     		.align	3
 295              	.LC3:
 296 0018 433A2069 		.string	"C: i="
 296      3D00
 297 001e 0000     		.align	3
 298              	.LC4:
 299 0020 433A2079 		.string	"C: yield\n"
 299      69656C64 
 299      0A00
 300 002a 00000000 		.align	3
 300      0000
 301              	.LC5:
 302 0030 433A2074 		.string	"C: t1="
 302      313D00
 303 0037 00       		.align	3
 304              	.LC6:
 305 0038 433A2066 		.string	"C: fibonaci="
 305      69626F6E 
 305      6163693D 
 305      00
 306              		.text
 307              		.align	2
 308              		.globl	_Z11workerBodyCv
 310              	_Z11workerBodyCv:
 311              	.LFB9:
  36:src/workers.cpp **** void workerBodyC() {
 312              		.loc 1 36 20 is_stmt 1
 313              		.cfi_startproc
 314 01a4 130101FE 		addi	sp,sp,-32
 315              		.cfi_def_cfa_offset 32
 316 01a8 233C1100 		sd	ra,24(sp)
 317 01ac 23388100 		sd	s0,16(sp)
 318 01b0 23349100 		sd	s1,8(sp)
 319 01b4 23302101 		sd	s2,0(sp)
 320              		.cfi_offset 1, -8
 321              		.cfi_offset 8, -16
 322              		.cfi_offset 9, -24
 323              		.cfi_offset 18, -32
 324 01b8 13040102 		addi	s0,sp,32
GAS LISTING /tmp/ccAeULGz.s 			page 8


 325              		.cfi_def_cfa 8, 0
  37:src/workers.cpp ****     uint8 i = 0;
 326              		.loc 1 37 5
 327              	.LVL31:
 328              		.loc 1 37 11 is_stmt 0
 329 01bc 93040000 		li	s1,0
 330 01c0 6F008003 		j	.L25
 331              	.LVL32:
 332              	.L29:
  38:src/workers.cpp ****     for (; i < 3; i++) {
  39:src/workers.cpp ****         printString("C: i="); printInteger(i); printString("\n");
 333              		.loc 1 39 9 is_stmt 1 discriminator 1
 334              		.loc 1 39 20 is_stmt 0 discriminator 1
 335 01c4 17050000 		lla	a0,.LC3
 335      13050500 
 336 01cc 97000000 		call	_Z11printStringPKc@plt
 336      E7800000 
 337              	.LVL33:
 338              		.loc 1 39 31 is_stmt 1 discriminator 1
 339              		.loc 1 39 43 is_stmt 0 discriminator 1
 340 01d4 13850400 		mv	a0,s1
 341 01d8 97000000 		call	_Z12printIntegerm@plt
 341      E7800000 
 342              	.LVL34:
 343              		.loc 1 39 48 is_stmt 1 discriminator 1
 344              		.loc 1 39 59 is_stmt 0 discriminator 1
 345 01e0 17050000 		lla	a0,.LC1
 345      13050500 
 346 01e8 97000000 		call	_Z11printStringPKc@plt
 346      E7800000 
 347              	.LVL35:
  38:src/workers.cpp ****     for (; i < 3; i++) {
 348              		.loc 1 38 5 is_stmt 1 discriminator 1
 349 01f0 9B841400 		addiw	s1,s1,1
 350              	.LVL36:
 351 01f4 93F4F40F 		andi	s1,s1,0xff
 352              	.LVL37:
 353              	.L25:
  38:src/workers.cpp ****     for (; i < 3; i++) {
 354              		.loc 1 38 5 discriminator 2
  38:src/workers.cpp ****     for (; i < 3; i++) {
 355              		.loc 1 38 14 discriminator 2
 356 01f8 93072000 		li	a5,2
 357 01fc E3F497FC 		bleu	s1,a5,.L29
  40:src/workers.cpp ****     }
  41:src/workers.cpp **** 
  42:src/workers.cpp ****     printString("C: yield\n");
 358              		.loc 1 42 5
 359              		.loc 1 42 16 is_stmt 0
 360 0200 17050000 		lla	a0,.LC4
 360      13050500 
 361 0208 97000000 		call	_Z11printStringPKc@plt
 361      E7800000 
 362              	.LVL38:
  43:src/workers.cpp ****     __asm__ ("li t1, 7");
 363              		.loc 1 43 5 is_stmt 1
 364              		.loc 1 43 25 is_stmt 0
GAS LISTING /tmp/ccAeULGz.s 			page 9


 365              	#APP
 366              	# 43 "src/workers.cpp" 1
  44              	    TCB::yield();
 367              		li t1, 7
 368              	# 0 "" 2
 369              		.loc 1 44 5 is_stmt 1
 370              		.loc 1 44 15 is_stmt 0
 371              	#NO_APP
 372 0214 97000000 		call	_ZN3TCB5yieldEv@plt
 372      E7800000 
 373              	.LVL39:
  45:src/workers.cpp **** 
  46:src/workers.cpp ****     uint64 t1 = 0;
 374              		.loc 1 46 5 is_stmt 1
  47:src/workers.cpp ****     __asm__ ("mv %[t1], t1" : [t1] "=r"(t1));
 375              		.loc 1 47 5
 376              		.loc 1 47 45 is_stmt 0
 377              	#APP
 378              	# 47 "src/workers.cpp" 1
  48              	
 379              		mv s2, t1
 380              	# 0 "" 2
 381              	.LVL40:
  49:src/workers.cpp ****     printString("C: t1="); printInteger(t1); printString("\n");
 382              		.loc 1 49 5 is_stmt 1
 383              		.loc 1 49 16 is_stmt 0
 384              	#NO_APP
 385 0220 17050000 		lla	a0,.LC5
 385      13050500 
 386 0228 97000000 		call	_Z11printStringPKc@plt
 386      E7800000 
 387              	.LVL41:
 388              		.loc 1 49 28 is_stmt 1
 389              		.loc 1 49 40 is_stmt 0
 390 0230 13050900 		mv	a0,s2
 391 0234 97000000 		call	_Z12printIntegerm@plt
 391      E7800000 
 392              	.LVL42:
 393              		.loc 1 49 46 is_stmt 1
 394              		.loc 1 49 57 is_stmt 0
 395 023c 17050000 		lla	a0,.LC1
 395      13050500 
 396 0244 97000000 		call	_Z11printStringPKc@plt
 396      E7800000 
 397              	.LVL43:
  50:src/workers.cpp **** 
  51:src/workers.cpp ****     uint64 result = fibonacci(12);
 398              		.loc 1 51 5 is_stmt 1
 399              		.loc 1 51 30 is_stmt 0
 400 024c 1305C000 		li	a0,12
 401 0250 97000000 		call	_Z9fibonaccim
 401      E7800000 
 402              	.LVL44:
 403 0258 13090500 		mv	s2,a0
 404              	.LVL45:
  52:src/workers.cpp ****     printString("C: fibonaci="); printInteger(result); printString("\n");
 405              		.loc 1 52 5 is_stmt 1
GAS LISTING /tmp/ccAeULGz.s 			page 10


 406              		.loc 1 52 16 is_stmt 0
 407 025c 17050000 		lla	a0,.LC6
 407      13050500 
 408              	.LVL46:
 409 0264 97000000 		call	_Z11printStringPKc@plt
 409      E7800000 
 410              	.LVL47:
 411              		.loc 1 52 34 is_stmt 1
 412              		.loc 1 52 46 is_stmt 0
 413 026c 13050900 		mv	a0,s2
 414 0270 97000000 		call	_Z12printIntegerm@plt
 414      E7800000 
 415              	.LVL48:
 416              		.loc 1 52 56 is_stmt 1
 417              		.loc 1 52 67 is_stmt 0
 418 0278 17050000 		lla	a0,.LC1
 418      13050500 
 419 0280 97000000 		call	_Z11printStringPKc@plt
 419      E7800000 
 420              	.LVL49:
 421 0288 6F008003 		j	.L27
 422              	.L30:
  53:src/workers.cpp **** 
  54:src/workers.cpp ****     for (; i < 6; i++) {
  55:src/workers.cpp ****         printString("C: i="); printInteger(i); printString("\n");
 423              		.loc 1 55 9 is_stmt 1 discriminator 1
 424              		.loc 1 55 20 is_stmt 0 discriminator 1
 425 028c 17050000 		lla	a0,.LC3
 425      13050500 
 426 0294 97000000 		call	_Z11printStringPKc@plt
 426      E7800000 
 427              	.LVL50:
 428              		.loc 1 55 31 is_stmt 1 discriminator 1
 429              		.loc 1 55 43 is_stmt 0 discriminator 1
 430 029c 13850400 		mv	a0,s1
 431 02a0 97000000 		call	_Z12printIntegerm@plt
 431      E7800000 
 432              	.LVL51:
 433              		.loc 1 55 48 is_stmt 1 discriminator 1
 434              		.loc 1 55 59 is_stmt 0 discriminator 1
 435 02a8 17050000 		lla	a0,.LC1
 435      13050500 
 436 02b0 97000000 		call	_Z11printStringPKc@plt
 436      E7800000 
 437              	.LVL52:
  54:src/workers.cpp ****         printString("C: i="); printInteger(i); printString("\n");
 438              		.loc 1 54 5 is_stmt 1 discriminator 1
 439 02b8 9B841400 		addiw	s1,s1,1
 440              	.LVL53:
 441 02bc 93F4F40F 		andi	s1,s1,0xff
 442              	.LVL54:
 443              	.L27:
  54:src/workers.cpp ****         printString("C: i="); printInteger(i); printString("\n");
 444              		.loc 1 54 5 discriminator 2
  54:src/workers.cpp ****         printString("C: i="); printInteger(i); printString("\n");
 445              		.loc 1 54 14 discriminator 2
 446 02c0 93075000 		li	a5,5
GAS LISTING /tmp/ccAeULGz.s 			page 11


 447 02c4 E3F497FC 		bleu	s1,a5,.L30
  56:src/workers.cpp ****     }
  57:src/workers.cpp **** //    TCB::yield();
  58:src/workers.cpp **** }
 448              		.loc 1 58 1 is_stmt 0
 449 02c8 83308101 		ld	ra,24(sp)
 450              		.cfi_restore 1
 451 02cc 03340101 		ld	s0,16(sp)
 452              		.cfi_restore 8
 453              		.cfi_def_cfa 2, 32
 454 02d0 83348100 		ld	s1,8(sp)
 455              		.cfi_restore 9
 456              	.LVL55:
 457 02d4 03390100 		ld	s2,0(sp)
 458              		.cfi_restore 18
 459              	.LVL56:
 460 02d8 13010102 		addi	sp,sp,32
 461              		.cfi_def_cfa_offset 0
 462 02dc 67800000 		jr	ra
 463              		.cfi_endproc
 464              	.LFE9:
 466              		.section	.rodata.str1.8
 467 0045 000000   		.align	3
 468              	.LC7:
 469 0048 443A2069 		.string	"D: i="
 469      3D00
 470 004e 0000     		.align	3
 471              	.LC8:
 472 0050 443A2079 		.string	"D: yield\n"
 472      69656C64 
 472      0A00
 473 005a 00000000 		.align	3
 473      0000
 474              	.LC9:
 475 0060 443A2066 		.string	"D: fibonaci="
 475      69626F6E 
 475      6163693D 
 475      00
 476              		.text
 477              		.align	2
 478              		.globl	_Z11workerBodyDv
 480              	_Z11workerBodyDv:
 481              	.LFB10:
  59:src/workers.cpp **** void workerBodyD() {
 482              		.loc 1 59 20 is_stmt 1
 483              		.cfi_startproc
 484 02e0 130101FE 		addi	sp,sp,-32
 485              		.cfi_def_cfa_offset 32
 486 02e4 233C1100 		sd	ra,24(sp)
 487 02e8 23388100 		sd	s0,16(sp)
 488 02ec 23349100 		sd	s1,8(sp)
 489 02f0 23302101 		sd	s2,0(sp)
 490              		.cfi_offset 1, -8
 491              		.cfi_offset 8, -16
 492              		.cfi_offset 9, -24
 493              		.cfi_offset 18, -32
 494 02f4 13040102 		addi	s0,sp,32
GAS LISTING /tmp/ccAeULGz.s 			page 12


 495              		.cfi_def_cfa 8, 0
  60:src/workers.cpp ****     uint8 i = 10;
 496              		.loc 1 60 5
 497              	.LVL57:
 498              		.loc 1 60 11 is_stmt 0
 499 02f8 9304A000 		li	s1,10
 500 02fc 6F008003 		j	.L33
 501              	.LVL58:
 502              	.L37:
  61:src/workers.cpp ****     for (; i < 13; i++) {
  62:src/workers.cpp ****         printString("D: i="); printInteger(i); printString("\n");
 503              		.loc 1 62 9 is_stmt 1 discriminator 1
 504              		.loc 1 62 20 is_stmt 0 discriminator 1
 505 0300 17050000 		lla	a0,.LC7
 505      13050500 
 506 0308 97000000 		call	_Z11printStringPKc@plt
 506      E7800000 
 507              	.LVL59:
 508              		.loc 1 62 31 is_stmt 1 discriminator 1
 509              		.loc 1 62 43 is_stmt 0 discriminator 1
 510 0310 13850400 		mv	a0,s1
 511 0314 97000000 		call	_Z12printIntegerm@plt
 511      E7800000 
 512              	.LVL60:
 513              		.loc 1 62 48 is_stmt 1 discriminator 1
 514              		.loc 1 62 59 is_stmt 0 discriminator 1
 515 031c 17050000 		lla	a0,.LC1
 515      13050500 
 516 0324 97000000 		call	_Z11printStringPKc@plt
 516      E7800000 
 517              	.LVL61:
  61:src/workers.cpp ****     for (; i < 13; i++) {
 518              		.loc 1 61 5 is_stmt 1 discriminator 1
 519 032c 9B841400 		addiw	s1,s1,1
 520              	.LVL62:
 521 0330 93F4F40F 		andi	s1,s1,0xff
 522              	.LVL63:
 523              	.L33:
  61:src/workers.cpp ****     for (; i < 13; i++) {
 524              		.loc 1 61 5 discriminator 2
  61:src/workers.cpp ****     for (; i < 13; i++) {
 525              		.loc 1 61 14 discriminator 2
 526 0334 9307C000 		li	a5,12
 527 0338 E3F497FC 		bleu	s1,a5,.L37
  63:src/workers.cpp ****     }
  64:src/workers.cpp **** 
  65:src/workers.cpp ****     printString("D: yield\n");
 528              		.loc 1 65 5
 529              		.loc 1 65 16 is_stmt 0
 530 033c 17050000 		lla	a0,.LC8
 530      13050500 
 531 0344 97000000 		call	_Z11printStringPKc@plt
 531      E7800000 
 532              	.LVL64:
  66:src/workers.cpp ****     __asm__ ("li t1, 5");
 533              		.loc 1 66 5 is_stmt 1
 534              		.loc 1 66 25 is_stmt 0
GAS LISTING /tmp/ccAeULGz.s 			page 13


 535              	#APP
 536              	# 66 "src/workers.cpp" 1
  67              	    TCB::yield();
 537              		li t1, 5
 538              	# 0 "" 2
 539              		.loc 1 67 5 is_stmt 1
 540              		.loc 1 67 15 is_stmt 0
 541              	#NO_APP
 542 0350 97000000 		call	_ZN3TCB5yieldEv@plt
 542      E7800000 
 543              	.LVL65:
  68:src/workers.cpp **** 
  69:src/workers.cpp ****     uint64 result = fibonacci(16);
 544              		.loc 1 69 5 is_stmt 1
 545              		.loc 1 69 30 is_stmt 0
 546 0358 13050001 		li	a0,16
 547 035c 97000000 		call	_Z9fibonaccim
 547      E7800000 
 548              	.LVL66:
 549 0364 13090500 		mv	s2,a0
 550              	.LVL67:
  70:src/workers.cpp ****     printString("D: fibonaci="); printInteger(result); printString("\n");
 551              		.loc 1 70 5 is_stmt 1
 552              		.loc 1 70 16 is_stmt 0
 553 0368 17050000 		lla	a0,.LC9
 553      13050500 
 554              	.LVL68:
 555 0370 97000000 		call	_Z11printStringPKc@plt
 555      E7800000 
 556              	.LVL69:
 557              		.loc 1 70 34 is_stmt 1
 558              		.loc 1 70 46 is_stmt 0
 559 0378 13050900 		mv	a0,s2
 560 037c 97000000 		call	_Z12printIntegerm@plt
 560      E7800000 
 561              	.LVL70:
 562              		.loc 1 70 56 is_stmt 1
 563              		.loc 1 70 67 is_stmt 0
 564 0384 17050000 		lla	a0,.LC1
 564      13050500 
 565 038c 97000000 		call	_Z11printStringPKc@plt
 565      E7800000 
 566              	.LVL71:
 567 0394 6F008003 		j	.L35
 568              	.L38:
  71:src/workers.cpp **** 
  72:src/workers.cpp ****     for (; i < 16; i++) {
  73:src/workers.cpp ****         printString("D: i="); printInteger(i); printString("\n");
 569              		.loc 1 73 9 is_stmt 1 discriminator 1
 570              		.loc 1 73 20 is_stmt 0 discriminator 1
 571 0398 17050000 		lla	a0,.LC7
 571      13050500 
 572 03a0 97000000 		call	_Z11printStringPKc@plt
 572      E7800000 
 573              	.LVL72:
 574              		.loc 1 73 31 is_stmt 1 discriminator 1
 575              		.loc 1 73 43 is_stmt 0 discriminator 1
GAS LISTING /tmp/ccAeULGz.s 			page 14


 576 03a8 13850400 		mv	a0,s1
 577 03ac 97000000 		call	_Z12printIntegerm@plt
 577      E7800000 
 578              	.LVL73:
 579              		.loc 1 73 48 is_stmt 1 discriminator 1
 580              		.loc 1 73 59 is_stmt 0 discriminator 1
 581 03b4 17050000 		lla	a0,.LC1
 581      13050500 
 582 03bc 97000000 		call	_Z11printStringPKc@plt
 582      E7800000 
 583              	.LVL74:
  72:src/workers.cpp ****         printString("D: i="); printInteger(i); printString("\n");
 584              		.loc 1 72 5 is_stmt 1 discriminator 1
 585 03c4 9B841400 		addiw	s1,s1,1
 586              	.LVL75:
 587 03c8 93F4F40F 		andi	s1,s1,0xff
 588              	.LVL76:
 589              	.L35:
  72:src/workers.cpp ****         printString("D: i="); printInteger(i); printString("\n");
 590              		.loc 1 72 5 discriminator 2
  72:src/workers.cpp ****         printString("D: i="); printInteger(i); printString("\n");
 591              		.loc 1 72 14 discriminator 2
 592 03cc 9307F000 		li	a5,15
 593 03d0 E3F497FC 		bleu	s1,a5,.L38
  74:src/workers.cpp ****     }
  75:src/workers.cpp **** //    TCB::yield();
  76:src/workers.cpp **** }
 594              		.loc 1 76 1 is_stmt 0
 595 03d4 83308101 		ld	ra,24(sp)
 596              		.cfi_restore 1
 597 03d8 03340101 		ld	s0,16(sp)
 598              		.cfi_restore 8
 599              		.cfi_def_cfa 2, 32
 600 03dc 83348100 		ld	s1,8(sp)
 601              		.cfi_restore 9
 602              	.LVL77:
 603 03e0 03390100 		ld	s2,0(sp)
 604              		.cfi_restore 18
 605              	.LVL78:
 606 03e4 13010102 		addi	sp,sp,32
 607              		.cfi_def_cfa_offset 0
 608 03e8 67800000 		jr	ra
 609              		.cfi_endproc
 610              	.LFE10:
 612              	.Letext0:
 613              		.file 2 "src/../lib/hw.h"
 614              		.file 3 "src/../h/tcb.hpp"
 615              		.file 4 "src/../h/print.hpp"
GAS LISTING /tmp/ccAeULGz.s 			page 15

